ARM GAS  /var/folders/bg/n1lwdyp56391g865_v8nrmhm0000gn/T//ccZDTuvB.s 			page 1


   1              		.cpu cortex-m7
   2              		.eabi_attribute 28, 1
   3              		.eabi_attribute 20, 1
   4              		.eabi_attribute 21, 1
   5              		.eabi_attribute 23, 3
   6              		.eabi_attribute 24, 1
   7              		.eabi_attribute 25, 1
   8              		.eabi_attribute 26, 1
   9              		.eabi_attribute 30, 1
  10              		.eabi_attribute 34, 1
  11              		.eabi_attribute 18, 4
  12              		.file	"ip4_frag.c"
  13              		.text
  14              	.Ltext0:
  15              		.cfi_sections	.debug_frame
  16              		.section	.rodata.ip_reass_dequeue_datagram.str1.4,"aMS",%progbits,1
  17              		.align	2
  18              	.LC0:
  19 0000 4D696464 		.ascii	"Middlewares/Third_Party/LwIP/src/core/ipv4/ip4_frag"
  19      6C657761 
  19      7265732F 
  19      54686972 
  19      645F5061 
  20 0033 2E6300   		.ascii	".c\000"
  21 0036 0000     		.align	2
  22              	.LC1:
  23 0038 73616E69 		.ascii	"sanity check linked list\000"
  23      74792063 
  23      6865636B 
  23      206C696E 
  23      6B656420 
  24 0051 000000   		.align	2
  25              	.LC2:
  26 0054 41737365 		.ascii	"Assertion \"%s\" failed at line %d in %s\012\000"
  26      7274696F 
  26      6E202225 
  26      73222066 
  26      61696C65 
  27              		.section	.text.ip_reass_dequeue_datagram,"ax",%progbits
  28              		.align	1
  29              		.arch armv7e-m
  30              		.syntax unified
  31              		.thumb
  32              		.thumb_func
  33              		.fpu fpv5-d16
  35              	ip_reass_dequeue_datagram:
  36              	.LVL0:
  37              	.LFB171:
  38              		.file 1 "Middlewares/Third_Party/LwIP/src/core/ipv4/ip4_frag.c"
   1:Middlewares/Third_Party/LwIP/src/core/ipv4/ip4_frag.c **** /**
   2:Middlewares/Third_Party/LwIP/src/core/ipv4/ip4_frag.c ****  * @file
   3:Middlewares/Third_Party/LwIP/src/core/ipv4/ip4_frag.c ****  * This is the IPv4 packet segmentation and reassembly implementation.
   4:Middlewares/Third_Party/LwIP/src/core/ipv4/ip4_frag.c ****  *
   5:Middlewares/Third_Party/LwIP/src/core/ipv4/ip4_frag.c ****  */
   6:Middlewares/Third_Party/LwIP/src/core/ipv4/ip4_frag.c **** 
   7:Middlewares/Third_Party/LwIP/src/core/ipv4/ip4_frag.c **** /*
   8:Middlewares/Third_Party/LwIP/src/core/ipv4/ip4_frag.c ****  * Copyright (c) 2001-2004 Swedish Institute of Computer Science.
ARM GAS  /var/folders/bg/n1lwdyp56391g865_v8nrmhm0000gn/T//ccZDTuvB.s 			page 2


   9:Middlewares/Third_Party/LwIP/src/core/ipv4/ip4_frag.c ****  * All rights reserved.
  10:Middlewares/Third_Party/LwIP/src/core/ipv4/ip4_frag.c ****  *
  11:Middlewares/Third_Party/LwIP/src/core/ipv4/ip4_frag.c ****  * Redistribution and use in source and binary forms, with or without modification,
  12:Middlewares/Third_Party/LwIP/src/core/ipv4/ip4_frag.c ****  * are permitted provided that the following conditions are met:
  13:Middlewares/Third_Party/LwIP/src/core/ipv4/ip4_frag.c ****  *
  14:Middlewares/Third_Party/LwIP/src/core/ipv4/ip4_frag.c ****  * 1. Redistributions of source code must retain the above copyright notice,
  15:Middlewares/Third_Party/LwIP/src/core/ipv4/ip4_frag.c ****  *    this list of conditions and the following disclaimer.
  16:Middlewares/Third_Party/LwIP/src/core/ipv4/ip4_frag.c ****  * 2. Redistributions in binary form must reproduce the above copyright notice,
  17:Middlewares/Third_Party/LwIP/src/core/ipv4/ip4_frag.c ****  *    this list of conditions and the following disclaimer in the documentation
  18:Middlewares/Third_Party/LwIP/src/core/ipv4/ip4_frag.c ****  *    and/or other materials provided with the distribution.
  19:Middlewares/Third_Party/LwIP/src/core/ipv4/ip4_frag.c ****  * 3. The name of the author may not be used to endorse or promote products
  20:Middlewares/Third_Party/LwIP/src/core/ipv4/ip4_frag.c ****  *    derived from this software without specific prior written permission.
  21:Middlewares/Third_Party/LwIP/src/core/ipv4/ip4_frag.c ****  *
  22:Middlewares/Third_Party/LwIP/src/core/ipv4/ip4_frag.c ****  * THIS SOFTWARE IS PROVIDED BY THE AUTHOR ``AS IS'' AND ANY EXPRESS OR IMPLIED
  23:Middlewares/Third_Party/LwIP/src/core/ipv4/ip4_frag.c ****  * WARRANTIES, INCLUDING, BUT NOT LIMITED TO, THE IMPLIED WARRANTIES OF
  24:Middlewares/Third_Party/LwIP/src/core/ipv4/ip4_frag.c ****  * MERCHANTABILITY AND FITNESS FOR A PARTICULAR PURPOSE ARE DISCLAIMED. IN NO EVENT
  25:Middlewares/Third_Party/LwIP/src/core/ipv4/ip4_frag.c ****  * SHALL THE AUTHOR BE LIABLE FOR ANY DIRECT, INDIRECT, INCIDENTAL, SPECIAL,
  26:Middlewares/Third_Party/LwIP/src/core/ipv4/ip4_frag.c ****  * EXEMPLARY, OR CONSEQUENTIAL DAMAGES (INCLUDING, BUT NOT LIMITED TO, PROCUREMENT
  27:Middlewares/Third_Party/LwIP/src/core/ipv4/ip4_frag.c ****  * OF SUBSTITUTE GOODS OR SERVICES; LOSS OF USE, DATA, OR PROFITS; OR BUSINESS
  28:Middlewares/Third_Party/LwIP/src/core/ipv4/ip4_frag.c ****  * INTERRUPTION) HOWEVER CAUSED AND ON ANY THEORY OF LIABILITY, WHETHER IN
  29:Middlewares/Third_Party/LwIP/src/core/ipv4/ip4_frag.c ****  * CONTRACT, STRICT LIABILITY, OR TORT (INCLUDING NEGLIGENCE OR OTHERWISE) ARISING
  30:Middlewares/Third_Party/LwIP/src/core/ipv4/ip4_frag.c ****  * IN ANY WAY OUT OF THE USE OF THIS SOFTWARE, EVEN IF ADVISED OF THE POSSIBILITY
  31:Middlewares/Third_Party/LwIP/src/core/ipv4/ip4_frag.c ****  * OF SUCH DAMAGE.
  32:Middlewares/Third_Party/LwIP/src/core/ipv4/ip4_frag.c ****  *
  33:Middlewares/Third_Party/LwIP/src/core/ipv4/ip4_frag.c ****  * This file is part of the lwIP TCP/IP stack.
  34:Middlewares/Third_Party/LwIP/src/core/ipv4/ip4_frag.c ****  *
  35:Middlewares/Third_Party/LwIP/src/core/ipv4/ip4_frag.c ****  * Author: Jani Monoses <jani@iv.ro>
  36:Middlewares/Third_Party/LwIP/src/core/ipv4/ip4_frag.c ****  *         Simon Goldschmidt
  37:Middlewares/Third_Party/LwIP/src/core/ipv4/ip4_frag.c ****  * original reassembly code by Adam Dunkels <adam@sics.se>
  38:Middlewares/Third_Party/LwIP/src/core/ipv4/ip4_frag.c ****  *
  39:Middlewares/Third_Party/LwIP/src/core/ipv4/ip4_frag.c ****  */
  40:Middlewares/Third_Party/LwIP/src/core/ipv4/ip4_frag.c **** 
  41:Middlewares/Third_Party/LwIP/src/core/ipv4/ip4_frag.c **** #include "lwip/opt.h"
  42:Middlewares/Third_Party/LwIP/src/core/ipv4/ip4_frag.c **** 
  43:Middlewares/Third_Party/LwIP/src/core/ipv4/ip4_frag.c **** #if LWIP_IPV4
  44:Middlewares/Third_Party/LwIP/src/core/ipv4/ip4_frag.c **** 
  45:Middlewares/Third_Party/LwIP/src/core/ipv4/ip4_frag.c **** #include "lwip/ip4_frag.h"
  46:Middlewares/Third_Party/LwIP/src/core/ipv4/ip4_frag.c **** #include "lwip/def.h"
  47:Middlewares/Third_Party/LwIP/src/core/ipv4/ip4_frag.c **** #include "lwip/inet_chksum.h"
  48:Middlewares/Third_Party/LwIP/src/core/ipv4/ip4_frag.c **** #include "lwip/netif.h"
  49:Middlewares/Third_Party/LwIP/src/core/ipv4/ip4_frag.c **** #include "lwip/stats.h"
  50:Middlewares/Third_Party/LwIP/src/core/ipv4/ip4_frag.c **** #include "lwip/icmp.h"
  51:Middlewares/Third_Party/LwIP/src/core/ipv4/ip4_frag.c **** 
  52:Middlewares/Third_Party/LwIP/src/core/ipv4/ip4_frag.c **** #include <string.h>
  53:Middlewares/Third_Party/LwIP/src/core/ipv4/ip4_frag.c **** 
  54:Middlewares/Third_Party/LwIP/src/core/ipv4/ip4_frag.c **** #if IP_REASSEMBLY
  55:Middlewares/Third_Party/LwIP/src/core/ipv4/ip4_frag.c **** /**
  56:Middlewares/Third_Party/LwIP/src/core/ipv4/ip4_frag.c ****  * The IP reassembly code currently has the following limitations:
  57:Middlewares/Third_Party/LwIP/src/core/ipv4/ip4_frag.c ****  * - IP header options are not supported
  58:Middlewares/Third_Party/LwIP/src/core/ipv4/ip4_frag.c ****  * - fragments must not overlap (e.g. due to different routes),
  59:Middlewares/Third_Party/LwIP/src/core/ipv4/ip4_frag.c ****  *   currently, overlapping or duplicate fragments are thrown away
  60:Middlewares/Third_Party/LwIP/src/core/ipv4/ip4_frag.c ****  *   if IP_REASS_CHECK_OVERLAP=1 (the default)!
  61:Middlewares/Third_Party/LwIP/src/core/ipv4/ip4_frag.c ****  *
  62:Middlewares/Third_Party/LwIP/src/core/ipv4/ip4_frag.c ****  * @todo: work with IP header options
  63:Middlewares/Third_Party/LwIP/src/core/ipv4/ip4_frag.c ****  */
  64:Middlewares/Third_Party/LwIP/src/core/ipv4/ip4_frag.c **** 
  65:Middlewares/Third_Party/LwIP/src/core/ipv4/ip4_frag.c **** /** Setting this to 0, you can turn off checking the fragments for overlapping
ARM GAS  /var/folders/bg/n1lwdyp56391g865_v8nrmhm0000gn/T//ccZDTuvB.s 			page 3


  66:Middlewares/Third_Party/LwIP/src/core/ipv4/ip4_frag.c ****  * regions. The code gets a little smaller. Only use this if you know that
  67:Middlewares/Third_Party/LwIP/src/core/ipv4/ip4_frag.c ****  * overlapping won't occur on your network! */
  68:Middlewares/Third_Party/LwIP/src/core/ipv4/ip4_frag.c **** #ifndef IP_REASS_CHECK_OVERLAP
  69:Middlewares/Third_Party/LwIP/src/core/ipv4/ip4_frag.c **** #define IP_REASS_CHECK_OVERLAP 1
  70:Middlewares/Third_Party/LwIP/src/core/ipv4/ip4_frag.c **** #endif /* IP_REASS_CHECK_OVERLAP */
  71:Middlewares/Third_Party/LwIP/src/core/ipv4/ip4_frag.c **** 
  72:Middlewares/Third_Party/LwIP/src/core/ipv4/ip4_frag.c **** /** Set to 0 to prevent freeing the oldest datagram when the reassembly buffer is
  73:Middlewares/Third_Party/LwIP/src/core/ipv4/ip4_frag.c ****  * full (IP_REASS_MAX_PBUFS pbufs are enqueued). The code gets a little smaller.
  74:Middlewares/Third_Party/LwIP/src/core/ipv4/ip4_frag.c ****  * Datagrams will be freed by timeout only. Especially useful when MEMP_NUM_REASSDATA
  75:Middlewares/Third_Party/LwIP/src/core/ipv4/ip4_frag.c ****  * is set to 1, so one datagram can be reassembled at a time, only. */
  76:Middlewares/Third_Party/LwIP/src/core/ipv4/ip4_frag.c **** #ifndef IP_REASS_FREE_OLDEST
  77:Middlewares/Third_Party/LwIP/src/core/ipv4/ip4_frag.c **** #define IP_REASS_FREE_OLDEST 1
  78:Middlewares/Third_Party/LwIP/src/core/ipv4/ip4_frag.c **** #endif /* IP_REASS_FREE_OLDEST */
  79:Middlewares/Third_Party/LwIP/src/core/ipv4/ip4_frag.c **** 
  80:Middlewares/Third_Party/LwIP/src/core/ipv4/ip4_frag.c **** #define IP_REASS_FLAG_LASTFRAG 0x01
  81:Middlewares/Third_Party/LwIP/src/core/ipv4/ip4_frag.c **** 
  82:Middlewares/Third_Party/LwIP/src/core/ipv4/ip4_frag.c **** #define IP_REASS_VALIDATE_TELEGRAM_FINISHED  1
  83:Middlewares/Third_Party/LwIP/src/core/ipv4/ip4_frag.c **** #define IP_REASS_VALIDATE_PBUF_QUEUED        0
  84:Middlewares/Third_Party/LwIP/src/core/ipv4/ip4_frag.c **** #define IP_REASS_VALIDATE_PBUF_DROPPED       -1
  85:Middlewares/Third_Party/LwIP/src/core/ipv4/ip4_frag.c **** 
  86:Middlewares/Third_Party/LwIP/src/core/ipv4/ip4_frag.c **** /** This is a helper struct which holds the starting
  87:Middlewares/Third_Party/LwIP/src/core/ipv4/ip4_frag.c ****  * offset and the ending offset of this fragment to
  88:Middlewares/Third_Party/LwIP/src/core/ipv4/ip4_frag.c ****  * easily chain the fragments.
  89:Middlewares/Third_Party/LwIP/src/core/ipv4/ip4_frag.c ****  * It has the same packing requirements as the IP header, since it replaces
  90:Middlewares/Third_Party/LwIP/src/core/ipv4/ip4_frag.c ****  * the IP header in memory in incoming fragments (after copying it) to keep
  91:Middlewares/Third_Party/LwIP/src/core/ipv4/ip4_frag.c ****  * track of the various fragments. (-> If the IP header doesn't need packing,
  92:Middlewares/Third_Party/LwIP/src/core/ipv4/ip4_frag.c ****  * this struct doesn't need packing, too.)
  93:Middlewares/Third_Party/LwIP/src/core/ipv4/ip4_frag.c ****  */
  94:Middlewares/Third_Party/LwIP/src/core/ipv4/ip4_frag.c **** #ifdef PACK_STRUCT_USE_INCLUDES
  95:Middlewares/Third_Party/LwIP/src/core/ipv4/ip4_frag.c **** #  include "arch/bpstruct.h"
  96:Middlewares/Third_Party/LwIP/src/core/ipv4/ip4_frag.c **** #endif
  97:Middlewares/Third_Party/LwIP/src/core/ipv4/ip4_frag.c **** PACK_STRUCT_BEGIN
  98:Middlewares/Third_Party/LwIP/src/core/ipv4/ip4_frag.c **** struct ip_reass_helper {
  99:Middlewares/Third_Party/LwIP/src/core/ipv4/ip4_frag.c ****   PACK_STRUCT_FIELD(struct pbuf *next_pbuf);
 100:Middlewares/Third_Party/LwIP/src/core/ipv4/ip4_frag.c ****   PACK_STRUCT_FIELD(u16_t start);
 101:Middlewares/Third_Party/LwIP/src/core/ipv4/ip4_frag.c ****   PACK_STRUCT_FIELD(u16_t end);
 102:Middlewares/Third_Party/LwIP/src/core/ipv4/ip4_frag.c **** } PACK_STRUCT_STRUCT;
 103:Middlewares/Third_Party/LwIP/src/core/ipv4/ip4_frag.c **** PACK_STRUCT_END
 104:Middlewares/Third_Party/LwIP/src/core/ipv4/ip4_frag.c **** #ifdef PACK_STRUCT_USE_INCLUDES
 105:Middlewares/Third_Party/LwIP/src/core/ipv4/ip4_frag.c **** #  include "arch/epstruct.h"
 106:Middlewares/Third_Party/LwIP/src/core/ipv4/ip4_frag.c **** #endif
 107:Middlewares/Third_Party/LwIP/src/core/ipv4/ip4_frag.c **** 
 108:Middlewares/Third_Party/LwIP/src/core/ipv4/ip4_frag.c **** #define IP_ADDRESSES_AND_ID_MATCH(iphdrA, iphdrB)  \
 109:Middlewares/Third_Party/LwIP/src/core/ipv4/ip4_frag.c ****   (ip4_addr_cmp(&(iphdrA)->src, &(iphdrB)->src) && \
 110:Middlewares/Third_Party/LwIP/src/core/ipv4/ip4_frag.c ****    ip4_addr_cmp(&(iphdrA)->dest, &(iphdrB)->dest) && \
 111:Middlewares/Third_Party/LwIP/src/core/ipv4/ip4_frag.c ****    IPH_ID(iphdrA) == IPH_ID(iphdrB)) ? 1 : 0
 112:Middlewares/Third_Party/LwIP/src/core/ipv4/ip4_frag.c **** 
 113:Middlewares/Third_Party/LwIP/src/core/ipv4/ip4_frag.c **** /* global variables */
 114:Middlewares/Third_Party/LwIP/src/core/ipv4/ip4_frag.c **** static struct ip_reassdata *reassdatagrams;
 115:Middlewares/Third_Party/LwIP/src/core/ipv4/ip4_frag.c **** static u16_t ip_reass_pbufcount;
 116:Middlewares/Third_Party/LwIP/src/core/ipv4/ip4_frag.c **** 
 117:Middlewares/Third_Party/LwIP/src/core/ipv4/ip4_frag.c **** /* function prototypes */
 118:Middlewares/Third_Party/LwIP/src/core/ipv4/ip4_frag.c **** static void ip_reass_dequeue_datagram(struct ip_reassdata *ipr, struct ip_reassdata *prev);
 119:Middlewares/Third_Party/LwIP/src/core/ipv4/ip4_frag.c **** static int ip_reass_free_complete_datagram(struct ip_reassdata *ipr, struct ip_reassdata *prev);
 120:Middlewares/Third_Party/LwIP/src/core/ipv4/ip4_frag.c **** 
 121:Middlewares/Third_Party/LwIP/src/core/ipv4/ip4_frag.c **** /**
 122:Middlewares/Third_Party/LwIP/src/core/ipv4/ip4_frag.c ****  * Reassembly timer base function
ARM GAS  /var/folders/bg/n1lwdyp56391g865_v8nrmhm0000gn/T//ccZDTuvB.s 			page 4


 123:Middlewares/Third_Party/LwIP/src/core/ipv4/ip4_frag.c ****  * for both NO_SYS == 0 and 1 (!).
 124:Middlewares/Third_Party/LwIP/src/core/ipv4/ip4_frag.c ****  *
 125:Middlewares/Third_Party/LwIP/src/core/ipv4/ip4_frag.c ****  * Should be called every 1000 msec (defined by IP_TMR_INTERVAL).
 126:Middlewares/Third_Party/LwIP/src/core/ipv4/ip4_frag.c ****  */
 127:Middlewares/Third_Party/LwIP/src/core/ipv4/ip4_frag.c **** void
 128:Middlewares/Third_Party/LwIP/src/core/ipv4/ip4_frag.c **** ip_reass_tmr(void)
 129:Middlewares/Third_Party/LwIP/src/core/ipv4/ip4_frag.c **** {
 130:Middlewares/Third_Party/LwIP/src/core/ipv4/ip4_frag.c ****   struct ip_reassdata *r, *prev = NULL;
 131:Middlewares/Third_Party/LwIP/src/core/ipv4/ip4_frag.c **** 
 132:Middlewares/Third_Party/LwIP/src/core/ipv4/ip4_frag.c ****   r = reassdatagrams;
 133:Middlewares/Third_Party/LwIP/src/core/ipv4/ip4_frag.c ****   while (r != NULL) {
 134:Middlewares/Third_Party/LwIP/src/core/ipv4/ip4_frag.c ****     /* Decrement the timer. Once it reaches 0,
 135:Middlewares/Third_Party/LwIP/src/core/ipv4/ip4_frag.c ****      * clean up the incomplete fragment assembly */
 136:Middlewares/Third_Party/LwIP/src/core/ipv4/ip4_frag.c ****     if (r->timer > 0) {
 137:Middlewares/Third_Party/LwIP/src/core/ipv4/ip4_frag.c ****       r->timer--;
 138:Middlewares/Third_Party/LwIP/src/core/ipv4/ip4_frag.c ****       LWIP_DEBUGF(IP_REASS_DEBUG, ("ip_reass_tmr: timer dec %"U16_F"\n", (u16_t)r->timer));
 139:Middlewares/Third_Party/LwIP/src/core/ipv4/ip4_frag.c ****       prev = r;
 140:Middlewares/Third_Party/LwIP/src/core/ipv4/ip4_frag.c ****       r = r->next;
 141:Middlewares/Third_Party/LwIP/src/core/ipv4/ip4_frag.c ****     } else {
 142:Middlewares/Third_Party/LwIP/src/core/ipv4/ip4_frag.c ****       /* reassembly timed out */
 143:Middlewares/Third_Party/LwIP/src/core/ipv4/ip4_frag.c ****       struct ip_reassdata *tmp;
 144:Middlewares/Third_Party/LwIP/src/core/ipv4/ip4_frag.c ****       LWIP_DEBUGF(IP_REASS_DEBUG, ("ip_reass_tmr: timer timed out\n"));
 145:Middlewares/Third_Party/LwIP/src/core/ipv4/ip4_frag.c ****       tmp = r;
 146:Middlewares/Third_Party/LwIP/src/core/ipv4/ip4_frag.c ****       /* get the next pointer before freeing */
 147:Middlewares/Third_Party/LwIP/src/core/ipv4/ip4_frag.c ****       r = r->next;
 148:Middlewares/Third_Party/LwIP/src/core/ipv4/ip4_frag.c ****       /* free the helper struct and all enqueued pbufs */
 149:Middlewares/Third_Party/LwIP/src/core/ipv4/ip4_frag.c ****       ip_reass_free_complete_datagram(tmp, prev);
 150:Middlewares/Third_Party/LwIP/src/core/ipv4/ip4_frag.c ****     }
 151:Middlewares/Third_Party/LwIP/src/core/ipv4/ip4_frag.c ****   }
 152:Middlewares/Third_Party/LwIP/src/core/ipv4/ip4_frag.c **** }
 153:Middlewares/Third_Party/LwIP/src/core/ipv4/ip4_frag.c **** 
 154:Middlewares/Third_Party/LwIP/src/core/ipv4/ip4_frag.c **** /**
 155:Middlewares/Third_Party/LwIP/src/core/ipv4/ip4_frag.c ****  * Free a datagram (struct ip_reassdata) and all its pbufs.
 156:Middlewares/Third_Party/LwIP/src/core/ipv4/ip4_frag.c ****  * Updates the total count of enqueued pbufs (ip_reass_pbufcount),
 157:Middlewares/Third_Party/LwIP/src/core/ipv4/ip4_frag.c ****  * SNMP counters and sends an ICMP time exceeded packet.
 158:Middlewares/Third_Party/LwIP/src/core/ipv4/ip4_frag.c ****  *
 159:Middlewares/Third_Party/LwIP/src/core/ipv4/ip4_frag.c ****  * @param ipr datagram to free
 160:Middlewares/Third_Party/LwIP/src/core/ipv4/ip4_frag.c ****  * @param prev the previous datagram in the linked list
 161:Middlewares/Third_Party/LwIP/src/core/ipv4/ip4_frag.c ****  * @return the number of pbufs freed
 162:Middlewares/Third_Party/LwIP/src/core/ipv4/ip4_frag.c ****  */
 163:Middlewares/Third_Party/LwIP/src/core/ipv4/ip4_frag.c **** static int
 164:Middlewares/Third_Party/LwIP/src/core/ipv4/ip4_frag.c **** ip_reass_free_complete_datagram(struct ip_reassdata *ipr, struct ip_reassdata *prev)
 165:Middlewares/Third_Party/LwIP/src/core/ipv4/ip4_frag.c **** {
 166:Middlewares/Third_Party/LwIP/src/core/ipv4/ip4_frag.c ****   u16_t pbufs_freed = 0;
 167:Middlewares/Third_Party/LwIP/src/core/ipv4/ip4_frag.c ****   u16_t clen;
 168:Middlewares/Third_Party/LwIP/src/core/ipv4/ip4_frag.c ****   struct pbuf *p;
 169:Middlewares/Third_Party/LwIP/src/core/ipv4/ip4_frag.c ****   struct ip_reass_helper *iprh;
 170:Middlewares/Third_Party/LwIP/src/core/ipv4/ip4_frag.c **** 
 171:Middlewares/Third_Party/LwIP/src/core/ipv4/ip4_frag.c ****   LWIP_ASSERT("prev != ipr", prev != ipr);
 172:Middlewares/Third_Party/LwIP/src/core/ipv4/ip4_frag.c ****   if (prev != NULL) {
 173:Middlewares/Third_Party/LwIP/src/core/ipv4/ip4_frag.c ****     LWIP_ASSERT("prev->next == ipr", prev->next == ipr);
 174:Middlewares/Third_Party/LwIP/src/core/ipv4/ip4_frag.c ****   }
 175:Middlewares/Third_Party/LwIP/src/core/ipv4/ip4_frag.c **** 
 176:Middlewares/Third_Party/LwIP/src/core/ipv4/ip4_frag.c ****   MIB2_STATS_INC(mib2.ipreasmfails);
 177:Middlewares/Third_Party/LwIP/src/core/ipv4/ip4_frag.c **** #if LWIP_ICMP
 178:Middlewares/Third_Party/LwIP/src/core/ipv4/ip4_frag.c ****   iprh = (struct ip_reass_helper *)ipr->p->payload;
 179:Middlewares/Third_Party/LwIP/src/core/ipv4/ip4_frag.c ****   if (iprh->start == 0) {
ARM GAS  /var/folders/bg/n1lwdyp56391g865_v8nrmhm0000gn/T//ccZDTuvB.s 			page 5


 180:Middlewares/Third_Party/LwIP/src/core/ipv4/ip4_frag.c ****     /* The first fragment was received, send ICMP time exceeded. */
 181:Middlewares/Third_Party/LwIP/src/core/ipv4/ip4_frag.c ****     /* First, de-queue the first pbuf from r->p. */
 182:Middlewares/Third_Party/LwIP/src/core/ipv4/ip4_frag.c ****     p = ipr->p;
 183:Middlewares/Third_Party/LwIP/src/core/ipv4/ip4_frag.c ****     ipr->p = iprh->next_pbuf;
 184:Middlewares/Third_Party/LwIP/src/core/ipv4/ip4_frag.c ****     /* Then, copy the original header into it. */
 185:Middlewares/Third_Party/LwIP/src/core/ipv4/ip4_frag.c ****     SMEMCPY(p->payload, &ipr->iphdr, IP_HLEN);
 186:Middlewares/Third_Party/LwIP/src/core/ipv4/ip4_frag.c ****     icmp_time_exceeded(p, ICMP_TE_FRAG);
 187:Middlewares/Third_Party/LwIP/src/core/ipv4/ip4_frag.c ****     clen = pbuf_clen(p);
 188:Middlewares/Third_Party/LwIP/src/core/ipv4/ip4_frag.c ****     LWIP_ASSERT("pbufs_freed + clen <= 0xffff", pbufs_freed + clen <= 0xffff);
 189:Middlewares/Third_Party/LwIP/src/core/ipv4/ip4_frag.c ****     pbufs_freed = (u16_t)(pbufs_freed + clen);
 190:Middlewares/Third_Party/LwIP/src/core/ipv4/ip4_frag.c ****     pbuf_free(p);
 191:Middlewares/Third_Party/LwIP/src/core/ipv4/ip4_frag.c ****   }
 192:Middlewares/Third_Party/LwIP/src/core/ipv4/ip4_frag.c **** #endif /* LWIP_ICMP */
 193:Middlewares/Third_Party/LwIP/src/core/ipv4/ip4_frag.c **** 
 194:Middlewares/Third_Party/LwIP/src/core/ipv4/ip4_frag.c ****   /* First, free all received pbufs.  The individual pbufs need to be released
 195:Middlewares/Third_Party/LwIP/src/core/ipv4/ip4_frag.c ****      separately as they have not yet been chained */
 196:Middlewares/Third_Party/LwIP/src/core/ipv4/ip4_frag.c ****   p = ipr->p;
 197:Middlewares/Third_Party/LwIP/src/core/ipv4/ip4_frag.c ****   while (p != NULL) {
 198:Middlewares/Third_Party/LwIP/src/core/ipv4/ip4_frag.c ****     struct pbuf *pcur;
 199:Middlewares/Third_Party/LwIP/src/core/ipv4/ip4_frag.c ****     iprh = (struct ip_reass_helper *)p->payload;
 200:Middlewares/Third_Party/LwIP/src/core/ipv4/ip4_frag.c ****     pcur = p;
 201:Middlewares/Third_Party/LwIP/src/core/ipv4/ip4_frag.c ****     /* get the next pointer before freeing */
 202:Middlewares/Third_Party/LwIP/src/core/ipv4/ip4_frag.c ****     p = iprh->next_pbuf;
 203:Middlewares/Third_Party/LwIP/src/core/ipv4/ip4_frag.c ****     clen = pbuf_clen(pcur);
 204:Middlewares/Third_Party/LwIP/src/core/ipv4/ip4_frag.c ****     LWIP_ASSERT("pbufs_freed + clen <= 0xffff", pbufs_freed + clen <= 0xffff);
 205:Middlewares/Third_Party/LwIP/src/core/ipv4/ip4_frag.c ****     pbufs_freed = (u16_t)(pbufs_freed + clen);
 206:Middlewares/Third_Party/LwIP/src/core/ipv4/ip4_frag.c ****     pbuf_free(pcur);
 207:Middlewares/Third_Party/LwIP/src/core/ipv4/ip4_frag.c ****   }
 208:Middlewares/Third_Party/LwIP/src/core/ipv4/ip4_frag.c ****   /* Then, unchain the struct ip_reassdata from the list and free it. */
 209:Middlewares/Third_Party/LwIP/src/core/ipv4/ip4_frag.c ****   ip_reass_dequeue_datagram(ipr, prev);
 210:Middlewares/Third_Party/LwIP/src/core/ipv4/ip4_frag.c ****   LWIP_ASSERT("ip_reass_pbufcount >= pbufs_freed", ip_reass_pbufcount >= pbufs_freed);
 211:Middlewares/Third_Party/LwIP/src/core/ipv4/ip4_frag.c ****   ip_reass_pbufcount = (u16_t)(ip_reass_pbufcount - pbufs_freed);
 212:Middlewares/Third_Party/LwIP/src/core/ipv4/ip4_frag.c **** 
 213:Middlewares/Third_Party/LwIP/src/core/ipv4/ip4_frag.c ****   return pbufs_freed;
 214:Middlewares/Third_Party/LwIP/src/core/ipv4/ip4_frag.c **** }
 215:Middlewares/Third_Party/LwIP/src/core/ipv4/ip4_frag.c **** 
 216:Middlewares/Third_Party/LwIP/src/core/ipv4/ip4_frag.c **** #if IP_REASS_FREE_OLDEST
 217:Middlewares/Third_Party/LwIP/src/core/ipv4/ip4_frag.c **** /**
 218:Middlewares/Third_Party/LwIP/src/core/ipv4/ip4_frag.c ****  * Free the oldest datagram to make room for enqueueing new fragments.
 219:Middlewares/Third_Party/LwIP/src/core/ipv4/ip4_frag.c ****  * The datagram 'fraghdr' belongs to is not freed!
 220:Middlewares/Third_Party/LwIP/src/core/ipv4/ip4_frag.c ****  *
 221:Middlewares/Third_Party/LwIP/src/core/ipv4/ip4_frag.c ****  * @param fraghdr IP header of the current fragment
 222:Middlewares/Third_Party/LwIP/src/core/ipv4/ip4_frag.c ****  * @param pbufs_needed number of pbufs needed to enqueue
 223:Middlewares/Third_Party/LwIP/src/core/ipv4/ip4_frag.c ****  *        (used for freeing other datagrams if not enough space)
 224:Middlewares/Third_Party/LwIP/src/core/ipv4/ip4_frag.c ****  * @return the number of pbufs freed
 225:Middlewares/Third_Party/LwIP/src/core/ipv4/ip4_frag.c ****  */
 226:Middlewares/Third_Party/LwIP/src/core/ipv4/ip4_frag.c **** static int
 227:Middlewares/Third_Party/LwIP/src/core/ipv4/ip4_frag.c **** ip_reass_remove_oldest_datagram(struct ip_hdr *fraghdr, int pbufs_needed)
 228:Middlewares/Third_Party/LwIP/src/core/ipv4/ip4_frag.c **** {
 229:Middlewares/Third_Party/LwIP/src/core/ipv4/ip4_frag.c ****   /* @todo Can't we simply remove the last datagram in the
 230:Middlewares/Third_Party/LwIP/src/core/ipv4/ip4_frag.c ****    *       linked list behind reassdatagrams?
 231:Middlewares/Third_Party/LwIP/src/core/ipv4/ip4_frag.c ****    */
 232:Middlewares/Third_Party/LwIP/src/core/ipv4/ip4_frag.c ****   struct ip_reassdata *r, *oldest, *prev, *oldest_prev;
 233:Middlewares/Third_Party/LwIP/src/core/ipv4/ip4_frag.c ****   int pbufs_freed = 0, pbufs_freed_current;
 234:Middlewares/Third_Party/LwIP/src/core/ipv4/ip4_frag.c ****   int other_datagrams;
 235:Middlewares/Third_Party/LwIP/src/core/ipv4/ip4_frag.c **** 
 236:Middlewares/Third_Party/LwIP/src/core/ipv4/ip4_frag.c ****   /* Free datagrams until being allowed to enqueue 'pbufs_needed' pbufs,
ARM GAS  /var/folders/bg/n1lwdyp56391g865_v8nrmhm0000gn/T//ccZDTuvB.s 			page 6


 237:Middlewares/Third_Party/LwIP/src/core/ipv4/ip4_frag.c ****    * but don't free the datagram that 'fraghdr' belongs to! */
 238:Middlewares/Third_Party/LwIP/src/core/ipv4/ip4_frag.c ****   do {
 239:Middlewares/Third_Party/LwIP/src/core/ipv4/ip4_frag.c ****     oldest = NULL;
 240:Middlewares/Third_Party/LwIP/src/core/ipv4/ip4_frag.c ****     prev = NULL;
 241:Middlewares/Third_Party/LwIP/src/core/ipv4/ip4_frag.c ****     oldest_prev = NULL;
 242:Middlewares/Third_Party/LwIP/src/core/ipv4/ip4_frag.c ****     other_datagrams = 0;
 243:Middlewares/Third_Party/LwIP/src/core/ipv4/ip4_frag.c ****     r = reassdatagrams;
 244:Middlewares/Third_Party/LwIP/src/core/ipv4/ip4_frag.c ****     while (r != NULL) {
 245:Middlewares/Third_Party/LwIP/src/core/ipv4/ip4_frag.c ****       if (!IP_ADDRESSES_AND_ID_MATCH(&r->iphdr, fraghdr)) {
 246:Middlewares/Third_Party/LwIP/src/core/ipv4/ip4_frag.c ****         /* Not the same datagram as fraghdr */
 247:Middlewares/Third_Party/LwIP/src/core/ipv4/ip4_frag.c ****         other_datagrams++;
 248:Middlewares/Third_Party/LwIP/src/core/ipv4/ip4_frag.c ****         if (oldest == NULL) {
 249:Middlewares/Third_Party/LwIP/src/core/ipv4/ip4_frag.c ****           oldest = r;
 250:Middlewares/Third_Party/LwIP/src/core/ipv4/ip4_frag.c ****           oldest_prev = prev;
 251:Middlewares/Third_Party/LwIP/src/core/ipv4/ip4_frag.c ****         } else if (r->timer <= oldest->timer) {
 252:Middlewares/Third_Party/LwIP/src/core/ipv4/ip4_frag.c ****           /* older than the previous oldest */
 253:Middlewares/Third_Party/LwIP/src/core/ipv4/ip4_frag.c ****           oldest = r;
 254:Middlewares/Third_Party/LwIP/src/core/ipv4/ip4_frag.c ****           oldest_prev = prev;
 255:Middlewares/Third_Party/LwIP/src/core/ipv4/ip4_frag.c ****         }
 256:Middlewares/Third_Party/LwIP/src/core/ipv4/ip4_frag.c ****       }
 257:Middlewares/Third_Party/LwIP/src/core/ipv4/ip4_frag.c ****       if (r->next != NULL) {
 258:Middlewares/Third_Party/LwIP/src/core/ipv4/ip4_frag.c ****         prev = r;
 259:Middlewares/Third_Party/LwIP/src/core/ipv4/ip4_frag.c ****       }
 260:Middlewares/Third_Party/LwIP/src/core/ipv4/ip4_frag.c ****       r = r->next;
 261:Middlewares/Third_Party/LwIP/src/core/ipv4/ip4_frag.c ****     }
 262:Middlewares/Third_Party/LwIP/src/core/ipv4/ip4_frag.c ****     if (oldest != NULL) {
 263:Middlewares/Third_Party/LwIP/src/core/ipv4/ip4_frag.c ****       pbufs_freed_current = ip_reass_free_complete_datagram(oldest, oldest_prev);
 264:Middlewares/Third_Party/LwIP/src/core/ipv4/ip4_frag.c ****       pbufs_freed += pbufs_freed_current;
 265:Middlewares/Third_Party/LwIP/src/core/ipv4/ip4_frag.c ****     }
 266:Middlewares/Third_Party/LwIP/src/core/ipv4/ip4_frag.c ****   } while ((pbufs_freed < pbufs_needed) && (other_datagrams > 1));
 267:Middlewares/Third_Party/LwIP/src/core/ipv4/ip4_frag.c ****   return pbufs_freed;
 268:Middlewares/Third_Party/LwIP/src/core/ipv4/ip4_frag.c **** }
 269:Middlewares/Third_Party/LwIP/src/core/ipv4/ip4_frag.c **** #endif /* IP_REASS_FREE_OLDEST */
 270:Middlewares/Third_Party/LwIP/src/core/ipv4/ip4_frag.c **** 
 271:Middlewares/Third_Party/LwIP/src/core/ipv4/ip4_frag.c **** /**
 272:Middlewares/Third_Party/LwIP/src/core/ipv4/ip4_frag.c ****  * Enqueues a new fragment into the fragment queue
 273:Middlewares/Third_Party/LwIP/src/core/ipv4/ip4_frag.c ****  * @param fraghdr points to the new fragments IP hdr
 274:Middlewares/Third_Party/LwIP/src/core/ipv4/ip4_frag.c ****  * @param clen number of pbufs needed to enqueue (used for freeing other datagrams if not enough sp
 275:Middlewares/Third_Party/LwIP/src/core/ipv4/ip4_frag.c ****  * @return A pointer to the queue location into which the fragment was enqueued
 276:Middlewares/Third_Party/LwIP/src/core/ipv4/ip4_frag.c ****  */
 277:Middlewares/Third_Party/LwIP/src/core/ipv4/ip4_frag.c **** static struct ip_reassdata *
 278:Middlewares/Third_Party/LwIP/src/core/ipv4/ip4_frag.c **** ip_reass_enqueue_new_datagram(struct ip_hdr *fraghdr, int clen)
 279:Middlewares/Third_Party/LwIP/src/core/ipv4/ip4_frag.c **** {
 280:Middlewares/Third_Party/LwIP/src/core/ipv4/ip4_frag.c ****   struct ip_reassdata *ipr;
 281:Middlewares/Third_Party/LwIP/src/core/ipv4/ip4_frag.c **** #if ! IP_REASS_FREE_OLDEST
 282:Middlewares/Third_Party/LwIP/src/core/ipv4/ip4_frag.c ****   LWIP_UNUSED_ARG(clen);
 283:Middlewares/Third_Party/LwIP/src/core/ipv4/ip4_frag.c **** #endif
 284:Middlewares/Third_Party/LwIP/src/core/ipv4/ip4_frag.c **** 
 285:Middlewares/Third_Party/LwIP/src/core/ipv4/ip4_frag.c ****   /* No matching previous fragment found, allocate a new reassdata struct */
 286:Middlewares/Third_Party/LwIP/src/core/ipv4/ip4_frag.c ****   ipr = (struct ip_reassdata *)memp_malloc(MEMP_REASSDATA);
 287:Middlewares/Third_Party/LwIP/src/core/ipv4/ip4_frag.c ****   if (ipr == NULL) {
 288:Middlewares/Third_Party/LwIP/src/core/ipv4/ip4_frag.c **** #if IP_REASS_FREE_OLDEST
 289:Middlewares/Third_Party/LwIP/src/core/ipv4/ip4_frag.c ****     if (ip_reass_remove_oldest_datagram(fraghdr, clen) >= clen) {
 290:Middlewares/Third_Party/LwIP/src/core/ipv4/ip4_frag.c ****       ipr = (struct ip_reassdata *)memp_malloc(MEMP_REASSDATA);
 291:Middlewares/Third_Party/LwIP/src/core/ipv4/ip4_frag.c ****     }
 292:Middlewares/Third_Party/LwIP/src/core/ipv4/ip4_frag.c ****     if (ipr == NULL)
 293:Middlewares/Third_Party/LwIP/src/core/ipv4/ip4_frag.c **** #endif /* IP_REASS_FREE_OLDEST */
ARM GAS  /var/folders/bg/n1lwdyp56391g865_v8nrmhm0000gn/T//ccZDTuvB.s 			page 7


 294:Middlewares/Third_Party/LwIP/src/core/ipv4/ip4_frag.c ****     {
 295:Middlewares/Third_Party/LwIP/src/core/ipv4/ip4_frag.c ****       IPFRAG_STATS_INC(ip_frag.memerr);
 296:Middlewares/Third_Party/LwIP/src/core/ipv4/ip4_frag.c ****       LWIP_DEBUGF(IP_REASS_DEBUG, ("Failed to alloc reassdata struct\n"));
 297:Middlewares/Third_Party/LwIP/src/core/ipv4/ip4_frag.c ****       return NULL;
 298:Middlewares/Third_Party/LwIP/src/core/ipv4/ip4_frag.c ****     }
 299:Middlewares/Third_Party/LwIP/src/core/ipv4/ip4_frag.c ****   }
 300:Middlewares/Third_Party/LwIP/src/core/ipv4/ip4_frag.c ****   memset(ipr, 0, sizeof(struct ip_reassdata));
 301:Middlewares/Third_Party/LwIP/src/core/ipv4/ip4_frag.c ****   ipr->timer = IP_REASS_MAXAGE;
 302:Middlewares/Third_Party/LwIP/src/core/ipv4/ip4_frag.c **** 
 303:Middlewares/Third_Party/LwIP/src/core/ipv4/ip4_frag.c ****   /* enqueue the new structure to the front of the list */
 304:Middlewares/Third_Party/LwIP/src/core/ipv4/ip4_frag.c ****   ipr->next = reassdatagrams;
 305:Middlewares/Third_Party/LwIP/src/core/ipv4/ip4_frag.c ****   reassdatagrams = ipr;
 306:Middlewares/Third_Party/LwIP/src/core/ipv4/ip4_frag.c ****   /* copy the ip header for later tests and input */
 307:Middlewares/Third_Party/LwIP/src/core/ipv4/ip4_frag.c ****   /* @todo: no ip options supported? */
 308:Middlewares/Third_Party/LwIP/src/core/ipv4/ip4_frag.c ****   SMEMCPY(&(ipr->iphdr), fraghdr, IP_HLEN);
 309:Middlewares/Third_Party/LwIP/src/core/ipv4/ip4_frag.c ****   return ipr;
 310:Middlewares/Third_Party/LwIP/src/core/ipv4/ip4_frag.c **** }
 311:Middlewares/Third_Party/LwIP/src/core/ipv4/ip4_frag.c **** 
 312:Middlewares/Third_Party/LwIP/src/core/ipv4/ip4_frag.c **** /**
 313:Middlewares/Third_Party/LwIP/src/core/ipv4/ip4_frag.c ****  * Dequeues a datagram from the datagram queue. Doesn't deallocate the pbufs.
 314:Middlewares/Third_Party/LwIP/src/core/ipv4/ip4_frag.c ****  * @param ipr points to the queue entry to dequeue
 315:Middlewares/Third_Party/LwIP/src/core/ipv4/ip4_frag.c ****  */
 316:Middlewares/Third_Party/LwIP/src/core/ipv4/ip4_frag.c **** static void
 317:Middlewares/Third_Party/LwIP/src/core/ipv4/ip4_frag.c **** ip_reass_dequeue_datagram(struct ip_reassdata *ipr, struct ip_reassdata *prev)
 318:Middlewares/Third_Party/LwIP/src/core/ipv4/ip4_frag.c **** {
  39              		.loc 1 318 1 view -0
  40              		.cfi_startproc
  41              		@ args = 0, pretend = 0, frame = 0
  42              		@ frame_needed = 0, uses_anonymous_args = 0
  43              		.loc 1 318 1 is_stmt 0 view .LVU1
  44 0000 38B5     		push	{r3, r4, r5, lr}
  45              	.LCFI0:
  46              		.cfi_def_cfa_offset 16
  47              		.cfi_offset 3, -16
  48              		.cfi_offset 4, -12
  49              		.cfi_offset 5, -8
  50              		.cfi_offset 14, -4
  51 0002 0446     		mov	r4, r0
 319:Middlewares/Third_Party/LwIP/src/core/ipv4/ip4_frag.c ****   /* dequeue the reass struct  */
 320:Middlewares/Third_Party/LwIP/src/core/ipv4/ip4_frag.c ****   if (reassdatagrams == ipr) {
  52              		.loc 1 320 3 is_stmt 1 view .LVU2
  53              		.loc 1 320 22 is_stmt 0 view .LVU3
  54 0004 0C4B     		ldr	r3, .L8
  55 0006 1B68     		ldr	r3, [r3]
  56              		.loc 1 320 6 view .LVU4
  57 0008 8342     		cmp	r3, r0
  58 000a 08D0     		beq	.L6
  59 000c 0D46     		mov	r5, r1
 321:Middlewares/Third_Party/LwIP/src/core/ipv4/ip4_frag.c ****     /* it was the first in the list */
 322:Middlewares/Third_Party/LwIP/src/core/ipv4/ip4_frag.c ****     reassdatagrams = ipr->next;
 323:Middlewares/Third_Party/LwIP/src/core/ipv4/ip4_frag.c ****   } else {
 324:Middlewares/Third_Party/LwIP/src/core/ipv4/ip4_frag.c ****     /* it wasn't the first, so it must have a valid 'prev' */
 325:Middlewares/Third_Party/LwIP/src/core/ipv4/ip4_frag.c ****     LWIP_ASSERT("sanity check linked list", prev != NULL);
  60              		.loc 1 325 5 is_stmt 1 view .LVU5
  61              		.loc 1 325 5 view .LVU6
  62 000e 51B1     		cbz	r1, .L7
  63              	.LVL1:
ARM GAS  /var/folders/bg/n1lwdyp56391g865_v8nrmhm0000gn/T//ccZDTuvB.s 			page 8


  64              	.L4:
  65              		.loc 1 325 5 discriminator 3 view .LVU7
  66              		.loc 1 325 5 discriminator 3 view .LVU8
 326:Middlewares/Third_Party/LwIP/src/core/ipv4/ip4_frag.c ****     prev->next = ipr->next;
  67              		.loc 1 326 5 discriminator 3 view .LVU9
  68              		.loc 1 326 21 is_stmt 0 discriminator 3 view .LVU10
  69 0010 2368     		ldr	r3, [r4]
  70              		.loc 1 326 16 discriminator 3 view .LVU11
  71 0012 2B60     		str	r3, [r5]
  72              	.LVL2:
  73              	.L3:
 327:Middlewares/Third_Party/LwIP/src/core/ipv4/ip4_frag.c ****   }
 328:Middlewares/Third_Party/LwIP/src/core/ipv4/ip4_frag.c **** 
 329:Middlewares/Third_Party/LwIP/src/core/ipv4/ip4_frag.c ****   /* now we can free the ip_reassdata struct */
 330:Middlewares/Third_Party/LwIP/src/core/ipv4/ip4_frag.c ****   memp_free(MEMP_REASSDATA, ipr);
  74              		.loc 1 330 3 is_stmt 1 view .LVU12
  75 0014 2146     		mov	r1, r4
  76 0016 0420     		movs	r0, #4
  77 0018 FFF7FEFF 		bl	memp_free
  78              	.LVL3:
 331:Middlewares/Third_Party/LwIP/src/core/ipv4/ip4_frag.c **** }
  79              		.loc 1 331 1 is_stmt 0 view .LVU13
  80 001c 38BD     		pop	{r3, r4, r5, pc}
  81              	.LVL4:
  82              	.L6:
 322:Middlewares/Third_Party/LwIP/src/core/ipv4/ip4_frag.c ****   } else {
  83              		.loc 1 322 5 is_stmt 1 view .LVU14
 322:Middlewares/Third_Party/LwIP/src/core/ipv4/ip4_frag.c ****   } else {
  84              		.loc 1 322 25 is_stmt 0 view .LVU15
  85 001e 0268     		ldr	r2, [r0]
 322:Middlewares/Third_Party/LwIP/src/core/ipv4/ip4_frag.c ****   } else {
  86              		.loc 1 322 20 view .LVU16
  87 0020 054B     		ldr	r3, .L8
  88 0022 1A60     		str	r2, [r3]
  89 0024 F6E7     		b	.L3
  90              	.L7:
 325:Middlewares/Third_Party/LwIP/src/core/ipv4/ip4_frag.c ****     prev->next = ipr->next;
  91              		.loc 1 325 5 is_stmt 1 discriminator 1 view .LVU17
 325:Middlewares/Third_Party/LwIP/src/core/ipv4/ip4_frag.c ****     prev->next = ipr->next;
  92              		.loc 1 325 5 discriminator 1 view .LVU18
  93 0026 054B     		ldr	r3, .L8+4
  94 0028 40F24512 		movw	r2, #325
  95 002c 0449     		ldr	r1, .L8+8
  96              	.LVL5:
 325:Middlewares/Third_Party/LwIP/src/core/ipv4/ip4_frag.c ****     prev->next = ipr->next;
  97              		.loc 1 325 5 is_stmt 0 discriminator 1 view .LVU19
  98 002e 0548     		ldr	r0, .L8+12
  99              	.LVL6:
 325:Middlewares/Third_Party/LwIP/src/core/ipv4/ip4_frag.c ****     prev->next = ipr->next;
 100              		.loc 1 325 5 discriminator 1 view .LVU20
 101 0030 FFF7FEFF 		bl	printf
 102              	.LVL7:
 103 0034 ECE7     		b	.L4
 104              	.L9:
 105 0036 00BF     		.align	2
 106              	.L8:
 107 0038 00000000 		.word	.LANCHOR0
ARM GAS  /var/folders/bg/n1lwdyp56391g865_v8nrmhm0000gn/T//ccZDTuvB.s 			page 9


 108 003c 00000000 		.word	.LC0
 109 0040 38000000 		.word	.LC1
 110 0044 54000000 		.word	.LC2
 111              		.cfi_endproc
 112              	.LFE171:
 114              		.section	.rodata.ip_reass_free_complete_datagram.str1.4,"aMS",%progbits,1
 115              		.align	2
 116              	.LC3:
 117 0000 70726576 		.ascii	"prev != ipr\000"
 117      20213D20 
 117      69707200 
 118              		.align	2
 119              	.LC4:
 120 000c 70726576 		.ascii	"prev->next == ipr\000"
 120      2D3E6E65 
 120      7874203D 
 120      3D206970 
 120      7200
 121 001e 0000     		.align	2
 122              	.LC5:
 123 0020 70627566 		.ascii	"pbufs_freed + clen <= 0xffff\000"
 123      735F6672 
 123      65656420 
 123      2B20636C 
 123      656E203C 
 124 003d 000000   		.align	2
 125              	.LC6:
 126 0040 69705F72 		.ascii	"ip_reass_pbufcount >= pbufs_freed\000"
 126      65617373 
 126      5F706275 
 126      66636F75 
 126      6E74203E 
 127              		.section	.text.ip_reass_free_complete_datagram,"ax",%progbits
 128              		.align	1
 129              		.syntax unified
 130              		.thumb
 131              		.thumb_func
 132              		.fpu fpv5-d16
 134              	ip_reass_free_complete_datagram:
 135              	.LVL8:
 136              	.LFB168:
 165:Middlewares/Third_Party/LwIP/src/core/ipv4/ip4_frag.c ****   u16_t pbufs_freed = 0;
 137              		.loc 1 165 1 is_stmt 1 view -0
 138              		.cfi_startproc
 139              		@ args = 0, pretend = 0, frame = 0
 140              		@ frame_needed = 0, uses_anonymous_args = 0
 165:Middlewares/Third_Party/LwIP/src/core/ipv4/ip4_frag.c ****   u16_t pbufs_freed = 0;
 141              		.loc 1 165 1 is_stmt 0 view .LVU22
 142 0000 2DE9F843 		push	{r3, r4, r5, r6, r7, r8, r9, lr}
 143              	.LCFI1:
 144              		.cfi_def_cfa_offset 32
 145              		.cfi_offset 3, -32
 146              		.cfi_offset 4, -28
 147              		.cfi_offset 5, -24
 148              		.cfi_offset 6, -20
 149              		.cfi_offset 7, -16
 150              		.cfi_offset 8, -12
ARM GAS  /var/folders/bg/n1lwdyp56391g865_v8nrmhm0000gn/T//ccZDTuvB.s 			page 10


 151              		.cfi_offset 9, -8
 152              		.cfi_offset 14, -4
 153 0004 8046     		mov	r8, r0
 154 0006 8946     		mov	r9, r1
 166:Middlewares/Third_Party/LwIP/src/core/ipv4/ip4_frag.c ****   u16_t clen;
 155              		.loc 1 166 3 is_stmt 1 view .LVU23
 156              	.LVL9:
 167:Middlewares/Third_Party/LwIP/src/core/ipv4/ip4_frag.c ****   struct pbuf *p;
 157              		.loc 1 167 3 view .LVU24
 168:Middlewares/Third_Party/LwIP/src/core/ipv4/ip4_frag.c ****   struct ip_reass_helper *iprh;
 158              		.loc 1 168 3 view .LVU25
 169:Middlewares/Third_Party/LwIP/src/core/ipv4/ip4_frag.c **** 
 159              		.loc 1 169 3 view .LVU26
 171:Middlewares/Third_Party/LwIP/src/core/ipv4/ip4_frag.c ****   if (prev != NULL) {
 160              		.loc 1 171 3 view .LVU27
 171:Middlewares/Third_Party/LwIP/src/core/ipv4/ip4_frag.c ****   if (prev != NULL) {
 161              		.loc 1 171 3 view .LVU28
 162 0008 8142     		cmp	r1, r0
 163 000a 15D0     		beq	.L20
 164              	.LVL10:
 165              	.L11:
 171:Middlewares/Third_Party/LwIP/src/core/ipv4/ip4_frag.c ****   if (prev != NULL) {
 166              		.loc 1 171 3 discriminator 3 view .LVU29
 171:Middlewares/Third_Party/LwIP/src/core/ipv4/ip4_frag.c ****   if (prev != NULL) {
 167              		.loc 1 171 3 discriminator 3 view .LVU30
 172:Middlewares/Third_Party/LwIP/src/core/ipv4/ip4_frag.c ****     LWIP_ASSERT("prev->next == ipr", prev->next == ipr);
 168              		.loc 1 172 3 discriminator 3 view .LVU31
 172:Middlewares/Third_Party/LwIP/src/core/ipv4/ip4_frag.c ****     LWIP_ASSERT("prev->next == ipr", prev->next == ipr);
 169              		.loc 1 172 6 is_stmt 0 discriminator 3 view .LVU32
 170 000c B9F1000F 		cmp	r9, #0
 171 0010 09D0     		beq	.L12
 173:Middlewares/Third_Party/LwIP/src/core/ipv4/ip4_frag.c ****   }
 172              		.loc 1 173 5 is_stmt 1 view .LVU33
 173:Middlewares/Third_Party/LwIP/src/core/ipv4/ip4_frag.c ****   }
 173              		.loc 1 173 5 view .LVU34
 174 0012 D9F80030 		ldr	r3, [r9]
 175 0016 4345     		cmp	r3, r8
 176 0018 05D0     		beq	.L12
 173:Middlewares/Third_Party/LwIP/src/core/ipv4/ip4_frag.c ****   }
 177              		.loc 1 173 5 discriminator 1 view .LVU35
 173:Middlewares/Third_Party/LwIP/src/core/ipv4/ip4_frag.c ****   }
 178              		.loc 1 173 5 discriminator 1 view .LVU36
 179 001a 314B     		ldr	r3, .L24
 180 001c AD22     		movs	r2, #173
 181 001e 3149     		ldr	r1, .L24+4
 182 0020 3148     		ldr	r0, .L24+8
 183 0022 FFF7FEFF 		bl	printf
 184              	.LVL11:
 185              	.L12:
 173:Middlewares/Third_Party/LwIP/src/core/ipv4/ip4_frag.c ****   }
 186              		.loc 1 173 5 discriminator 3 view .LVU37
 173:Middlewares/Third_Party/LwIP/src/core/ipv4/ip4_frag.c ****   }
 187              		.loc 1 173 5 discriminator 3 view .LVU38
 176:Middlewares/Third_Party/LwIP/src/core/ipv4/ip4_frag.c **** #if LWIP_ICMP
 188              		.loc 1 176 36 discriminator 3 view .LVU39
 178:Middlewares/Third_Party/LwIP/src/core/ipv4/ip4_frag.c ****   if (iprh->start == 0) {
 189              		.loc 1 178 3 discriminator 3 view .LVU40
ARM GAS  /var/folders/bg/n1lwdyp56391g865_v8nrmhm0000gn/T//ccZDTuvB.s 			page 11


 178:Middlewares/Third_Party/LwIP/src/core/ipv4/ip4_frag.c ****   if (iprh->start == 0) {
 190              		.loc 1 178 39 is_stmt 0 discriminator 3 view .LVU41
 191 0026 D8F80450 		ldr	r5, [r8, #4]
 178:Middlewares/Third_Party/LwIP/src/core/ipv4/ip4_frag.c ****   if (iprh->start == 0) {
 192              		.loc 1 178 8 discriminator 3 view .LVU42
 193 002a 6B68     		ldr	r3, [r5, #4]
 194              	.LVL12:
 179:Middlewares/Third_Party/LwIP/src/core/ipv4/ip4_frag.c ****     /* The first fragment was received, send ICMP time exceeded. */
 195              		.loc 1 179 3 is_stmt 1 discriminator 3 view .LVU43
 179:Middlewares/Third_Party/LwIP/src/core/ipv4/ip4_frag.c ****     /* The first fragment was received, send ICMP time exceeded. */
 196              		.loc 1 179 11 is_stmt 0 discriminator 3 view .LVU44
 197 002c 9A88     		ldrh	r2, [r3, #4]	@ unaligned
 179:Middlewares/Third_Party/LwIP/src/core/ipv4/ip4_frag.c ****     /* The first fragment was received, send ICMP time exceeded. */
 198              		.loc 1 179 6 discriminator 3 view .LVU45
 199 002e 52B1     		cbz	r2, .L21
 166:Middlewares/Third_Party/LwIP/src/core/ipv4/ip4_frag.c ****   u16_t clen;
 200              		.loc 1 166 9 view .LVU46
 201 0030 0026     		movs	r6, #0
 202              	.LVL13:
 203              	.L13:
 196:Middlewares/Third_Party/LwIP/src/core/ipv4/ip4_frag.c ****   while (p != NULL) {
 204              		.loc 1 196 3 is_stmt 1 view .LVU47
 196:Middlewares/Third_Party/LwIP/src/core/ipv4/ip4_frag.c ****   while (p != NULL) {
 205              		.loc 1 196 5 is_stmt 0 view .LVU48
 206 0032 D8F80450 		ldr	r5, [r8, #4]
 207              	.LVL14:
 197:Middlewares/Third_Party/LwIP/src/core/ipv4/ip4_frag.c ****     struct pbuf *pcur;
 208              		.loc 1 197 3 is_stmt 1 view .LVU49
 197:Middlewares/Third_Party/LwIP/src/core/ipv4/ip4_frag.c ****     struct pbuf *pcur;
 209              		.loc 1 197 9 is_stmt 0 view .LVU50
 210 0036 2BE0     		b	.L14
 211              	.LVL15:
 212              	.L20:
 171:Middlewares/Third_Party/LwIP/src/core/ipv4/ip4_frag.c ****   if (prev != NULL) {
 213              		.loc 1 171 3 is_stmt 1 discriminator 1 view .LVU51
 171:Middlewares/Third_Party/LwIP/src/core/ipv4/ip4_frag.c ****   if (prev != NULL) {
 214              		.loc 1 171 3 discriminator 1 view .LVU52
 215 0038 294B     		ldr	r3, .L24
 216 003a AB22     		movs	r2, #171
 217 003c 2B49     		ldr	r1, .L24+12
 218              	.LVL16:
 171:Middlewares/Third_Party/LwIP/src/core/ipv4/ip4_frag.c ****   if (prev != NULL) {
 219              		.loc 1 171 3 is_stmt 0 discriminator 1 view .LVU53
 220 003e 2A48     		ldr	r0, .L24+8
 221              	.LVL17:
 171:Middlewares/Third_Party/LwIP/src/core/ipv4/ip4_frag.c ****   if (prev != NULL) {
 222              		.loc 1 171 3 discriminator 1 view .LVU54
 223 0040 FFF7FEFF 		bl	printf
 224              	.LVL18:
 225 0044 E2E7     		b	.L11
 226              	.LVL19:
 227              	.L21:
 182:Middlewares/Third_Party/LwIP/src/core/ipv4/ip4_frag.c ****     ipr->p = iprh->next_pbuf;
 228              		.loc 1 182 5 is_stmt 1 view .LVU55
 183:Middlewares/Third_Party/LwIP/src/core/ipv4/ip4_frag.c ****     /* Then, copy the original header into it. */
 229              		.loc 1 183 5 view .LVU56
 183:Middlewares/Third_Party/LwIP/src/core/ipv4/ip4_frag.c ****     /* Then, copy the original header into it. */
ARM GAS  /var/folders/bg/n1lwdyp56391g865_v8nrmhm0000gn/T//ccZDTuvB.s 			page 12


 230              		.loc 1 183 18 is_stmt 0 view .LVU57
 231 0046 1B68     		ldr	r3, [r3]	@ unaligned
 232              	.LVL20:
 183:Middlewares/Third_Party/LwIP/src/core/ipv4/ip4_frag.c ****     /* Then, copy the original header into it. */
 233              		.loc 1 183 12 view .LVU58
 234 0048 C8F80430 		str	r3, [r8, #4]
 235              	.LVL21:
 185:Middlewares/Third_Party/LwIP/src/core/ipv4/ip4_frag.c ****     icmp_time_exceeded(p, ICMP_TE_FRAG);
 236              		.loc 1 185 5 is_stmt 1 view .LVU59
 237 004c 6B68     		ldr	r3, [r5, #4]
 238 004e D8F80820 		ldr	r2, [r8, #8]	@ unaligned
 239 0052 D8F80C40 		ldr	r4, [r8, #12]	@ unaligned
 240 0056 D8F81000 		ldr	r0, [r8, #16]	@ unaligned
 241 005a D8F81410 		ldr	r1, [r8, #20]	@ unaligned
 242 005e 1A60     		str	r2, [r3]	@ unaligned
 243 0060 5C60     		str	r4, [r3, #4]	@ unaligned
 244 0062 9860     		str	r0, [r3, #8]	@ unaligned
 245 0064 D960     		str	r1, [r3, #12]	@ unaligned
 246 0066 D8F81820 		ldr	r2, [r8, #24]	@ unaligned
 247 006a 1A61     		str	r2, [r3, #16]	@ unaligned
 186:Middlewares/Third_Party/LwIP/src/core/ipv4/ip4_frag.c ****     clen = pbuf_clen(p);
 248              		.loc 1 186 5 view .LVU60
 249 006c 0121     		movs	r1, #1
 250 006e 2846     		mov	r0, r5
 251 0070 FFF7FEFF 		bl	icmp_time_exceeded
 252              	.LVL22:
 187:Middlewares/Third_Party/LwIP/src/core/ipv4/ip4_frag.c ****     LWIP_ASSERT("pbufs_freed + clen <= 0xffff", pbufs_freed + clen <= 0xffff);
 253              		.loc 1 187 5 view .LVU61
 187:Middlewares/Third_Party/LwIP/src/core/ipv4/ip4_frag.c ****     LWIP_ASSERT("pbufs_freed + clen <= 0xffff", pbufs_freed + clen <= 0xffff);
 254              		.loc 1 187 12 is_stmt 0 view .LVU62
 255 0074 2846     		mov	r0, r5
 256 0076 FFF7FEFF 		bl	pbuf_clen
 257              	.LVL23:
 258 007a 0646     		mov	r6, r0
 259              	.LVL24:
 188:Middlewares/Third_Party/LwIP/src/core/ipv4/ip4_frag.c ****     pbufs_freed = (u16_t)(pbufs_freed + clen);
 260              		.loc 1 188 5 is_stmt 1 view .LVU63
 188:Middlewares/Third_Party/LwIP/src/core/ipv4/ip4_frag.c ****     pbufs_freed = (u16_t)(pbufs_freed + clen);
 261              		.loc 1 188 5 view .LVU64
 188:Middlewares/Third_Party/LwIP/src/core/ipv4/ip4_frag.c ****     pbufs_freed = (u16_t)(pbufs_freed + clen);
 262              		.loc 1 188 5 view .LVU65
 188:Middlewares/Third_Party/LwIP/src/core/ipv4/ip4_frag.c ****     pbufs_freed = (u16_t)(pbufs_freed + clen);
 263              		.loc 1 188 5 view .LVU66
 189:Middlewares/Third_Party/LwIP/src/core/ipv4/ip4_frag.c ****     pbuf_free(p);
 264              		.loc 1 189 5 view .LVU67
 190:Middlewares/Third_Party/LwIP/src/core/ipv4/ip4_frag.c ****   }
 265              		.loc 1 190 5 view .LVU68
 266 007c 2846     		mov	r0, r5
 267 007e FFF7FEFF 		bl	pbuf_free
 268              	.LVL25:
 269 0082 D6E7     		b	.L13
 270              	.LVL26:
 271              	.L15:
 272              	.LBB2:
 204:Middlewares/Third_Party/LwIP/src/core/ipv4/ip4_frag.c ****     pbufs_freed = (u16_t)(pbufs_freed + clen);
 273              		.loc 1 204 5 discriminator 3 view .LVU69
 204:Middlewares/Third_Party/LwIP/src/core/ipv4/ip4_frag.c ****     pbufs_freed = (u16_t)(pbufs_freed + clen);
ARM GAS  /var/folders/bg/n1lwdyp56391g865_v8nrmhm0000gn/T//ccZDTuvB.s 			page 13


 274              		.loc 1 204 5 discriminator 3 view .LVU70
 205:Middlewares/Third_Party/LwIP/src/core/ipv4/ip4_frag.c ****     pbuf_free(pcur);
 275              		.loc 1 205 5 discriminator 3 view .LVU71
 205:Middlewares/Third_Party/LwIP/src/core/ipv4/ip4_frag.c ****     pbuf_free(pcur);
 276              		.loc 1 205 17 is_stmt 0 discriminator 3 view .LVU72
 277 0084 3444     		add	r4, r4, r6
 278 0086 A6B2     		uxth	r6, r4
 279              	.LVL27:
 206:Middlewares/Third_Party/LwIP/src/core/ipv4/ip4_frag.c ****   }
 280              		.loc 1 206 5 is_stmt 1 discriminator 3 view .LVU73
 281 0088 2846     		mov	r0, r5
 282 008a FFF7FEFF 		bl	pbuf_free
 283              	.LVL28:
 202:Middlewares/Third_Party/LwIP/src/core/ipv4/ip4_frag.c ****     clen = pbuf_clen(pcur);
 284              		.loc 1 202 7 is_stmt 0 discriminator 3 view .LVU74
 285 008e 3D46     		mov	r5, r7
 286              	.LVL29:
 287              	.L14:
 202:Middlewares/Third_Party/LwIP/src/core/ipv4/ip4_frag.c ****     clen = pbuf_clen(pcur);
 288              		.loc 1 202 7 discriminator 3 view .LVU75
 289              	.LBE2:
 197:Middlewares/Third_Party/LwIP/src/core/ipv4/ip4_frag.c ****     struct pbuf *pcur;
 290              		.loc 1 197 9 is_stmt 1 view .LVU76
 291 0090 85B1     		cbz	r5, .L22
 292              	.LBB3:
 198:Middlewares/Third_Party/LwIP/src/core/ipv4/ip4_frag.c ****     iprh = (struct ip_reass_helper *)p->payload;
 293              		.loc 1 198 5 view .LVU77
 199:Middlewares/Third_Party/LwIP/src/core/ipv4/ip4_frag.c ****     pcur = p;
 294              		.loc 1 199 5 view .LVU78
 199:Middlewares/Third_Party/LwIP/src/core/ipv4/ip4_frag.c ****     pcur = p;
 295              		.loc 1 199 10 is_stmt 0 view .LVU79
 296 0092 6B68     		ldr	r3, [r5, #4]
 297              	.LVL30:
 200:Middlewares/Third_Party/LwIP/src/core/ipv4/ip4_frag.c ****     /* get the next pointer before freeing */
 298              		.loc 1 200 5 is_stmt 1 view .LVU80
 202:Middlewares/Third_Party/LwIP/src/core/ipv4/ip4_frag.c ****     clen = pbuf_clen(pcur);
 299              		.loc 1 202 5 view .LVU81
 202:Middlewares/Third_Party/LwIP/src/core/ipv4/ip4_frag.c ****     clen = pbuf_clen(pcur);
 300              		.loc 1 202 7 is_stmt 0 view .LVU82
 301 0094 1F68     		ldr	r7, [r3]	@ unaligned
 302              	.LVL31:
 203:Middlewares/Third_Party/LwIP/src/core/ipv4/ip4_frag.c ****     LWIP_ASSERT("pbufs_freed + clen <= 0xffff", pbufs_freed + clen <= 0xffff);
 303              		.loc 1 203 5 is_stmt 1 view .LVU83
 203:Middlewares/Third_Party/LwIP/src/core/ipv4/ip4_frag.c ****     LWIP_ASSERT("pbufs_freed + clen <= 0xffff", pbufs_freed + clen <= 0xffff);
 304              		.loc 1 203 12 is_stmt 0 view .LVU84
 305 0096 2846     		mov	r0, r5
 306 0098 FFF7FEFF 		bl	pbuf_clen
 307              	.LVL32:
 203:Middlewares/Third_Party/LwIP/src/core/ipv4/ip4_frag.c ****     LWIP_ASSERT("pbufs_freed + clen <= 0xffff", pbufs_freed + clen <= 0xffff);
 308              		.loc 1 203 12 view .LVU85
 309 009c 0446     		mov	r4, r0
 310              	.LVL33:
 204:Middlewares/Third_Party/LwIP/src/core/ipv4/ip4_frag.c ****     pbufs_freed = (u16_t)(pbufs_freed + clen);
 311              		.loc 1 204 5 is_stmt 1 view .LVU86
 204:Middlewares/Third_Party/LwIP/src/core/ipv4/ip4_frag.c ****     pbufs_freed = (u16_t)(pbufs_freed + clen);
 312              		.loc 1 204 5 view .LVU87
 313 009e 3318     		adds	r3, r6, r0
ARM GAS  /var/folders/bg/n1lwdyp56391g865_v8nrmhm0000gn/T//ccZDTuvB.s 			page 14


 314 00a0 B3F5803F 		cmp	r3, #65536
 315 00a4 EEDB     		blt	.L15
 204:Middlewares/Third_Party/LwIP/src/core/ipv4/ip4_frag.c ****     pbufs_freed = (u16_t)(pbufs_freed + clen);
 316              		.loc 1 204 5 discriminator 1 view .LVU88
 204:Middlewares/Third_Party/LwIP/src/core/ipv4/ip4_frag.c ****     pbufs_freed = (u16_t)(pbufs_freed + clen);
 317              		.loc 1 204 5 discriminator 1 view .LVU89
 318 00a6 0E4B     		ldr	r3, .L24
 319 00a8 CC22     		movs	r2, #204
 320 00aa 1149     		ldr	r1, .L24+16
 321 00ac 0E48     		ldr	r0, .L24+8
 322              	.LVL34:
 204:Middlewares/Third_Party/LwIP/src/core/ipv4/ip4_frag.c ****     pbufs_freed = (u16_t)(pbufs_freed + clen);
 323              		.loc 1 204 5 is_stmt 0 discriminator 1 view .LVU90
 324 00ae FFF7FEFF 		bl	printf
 325              	.LVL35:
 326 00b2 E7E7     		b	.L15
 327              	.LVL36:
 328              	.L22:
 204:Middlewares/Third_Party/LwIP/src/core/ipv4/ip4_frag.c ****     pbufs_freed = (u16_t)(pbufs_freed + clen);
 329              		.loc 1 204 5 discriminator 1 view .LVU91
 330              	.LBE3:
 209:Middlewares/Third_Party/LwIP/src/core/ipv4/ip4_frag.c ****   LWIP_ASSERT("ip_reass_pbufcount >= pbufs_freed", ip_reass_pbufcount >= pbufs_freed);
 331              		.loc 1 209 3 is_stmt 1 view .LVU92
 332 00b4 4946     		mov	r1, r9
 333 00b6 4046     		mov	r0, r8
 334 00b8 FFF7FEFF 		bl	ip_reass_dequeue_datagram
 335              	.LVL37:
 210:Middlewares/Third_Party/LwIP/src/core/ipv4/ip4_frag.c ****   ip_reass_pbufcount = (u16_t)(ip_reass_pbufcount - pbufs_freed);
 336              		.loc 1 210 3 view .LVU93
 210:Middlewares/Third_Party/LwIP/src/core/ipv4/ip4_frag.c ****   ip_reass_pbufcount = (u16_t)(ip_reass_pbufcount - pbufs_freed);
 337              		.loc 1 210 3 view .LVU94
 338 00bc 0D4B     		ldr	r3, .L24+20
 339 00be 1B88     		ldrh	r3, [r3]
 340 00c0 B342     		cmp	r3, r6
 341 00c2 06D3     		bcc	.L23
 342              	.L17:
 210:Middlewares/Third_Party/LwIP/src/core/ipv4/ip4_frag.c ****   ip_reass_pbufcount = (u16_t)(ip_reass_pbufcount - pbufs_freed);
 343              		.loc 1 210 3 discriminator 3 view .LVU95
 210:Middlewares/Third_Party/LwIP/src/core/ipv4/ip4_frag.c ****   ip_reass_pbufcount = (u16_t)(ip_reass_pbufcount - pbufs_freed);
 344              		.loc 1 210 3 discriminator 3 view .LVU96
 211:Middlewares/Third_Party/LwIP/src/core/ipv4/ip4_frag.c **** 
 345              		.loc 1 211 3 discriminator 3 view .LVU97
 211:Middlewares/Third_Party/LwIP/src/core/ipv4/ip4_frag.c **** 
 346              		.loc 1 211 24 is_stmt 0 discriminator 3 view .LVU98
 347 00c4 0B4A     		ldr	r2, .L24+20
 348 00c6 1388     		ldrh	r3, [r2]
 349 00c8 9B1B     		subs	r3, r3, r6
 211:Middlewares/Third_Party/LwIP/src/core/ipv4/ip4_frag.c **** 
 350              		.loc 1 211 22 discriminator 3 view .LVU99
 351 00ca 1380     		strh	r3, [r2]	@ movhi
 213:Middlewares/Third_Party/LwIP/src/core/ipv4/ip4_frag.c **** }
 352              		.loc 1 213 3 is_stmt 1 discriminator 3 view .LVU100
 214:Middlewares/Third_Party/LwIP/src/core/ipv4/ip4_frag.c **** 
 353              		.loc 1 214 1 is_stmt 0 discriminator 3 view .LVU101
 354 00cc 3046     		mov	r0, r6
 355 00ce BDE8F883 		pop	{r3, r4, r5, r6, r7, r8, r9, pc}
 356              	.LVL38:
ARM GAS  /var/folders/bg/n1lwdyp56391g865_v8nrmhm0000gn/T//ccZDTuvB.s 			page 15


 357              	.L23:
 210:Middlewares/Third_Party/LwIP/src/core/ipv4/ip4_frag.c ****   ip_reass_pbufcount = (u16_t)(ip_reass_pbufcount - pbufs_freed);
 358              		.loc 1 210 3 is_stmt 1 discriminator 1 view .LVU102
 210:Middlewares/Third_Party/LwIP/src/core/ipv4/ip4_frag.c ****   ip_reass_pbufcount = (u16_t)(ip_reass_pbufcount - pbufs_freed);
 359              		.loc 1 210 3 discriminator 1 view .LVU103
 360 00d2 034B     		ldr	r3, .L24
 361 00d4 D222     		movs	r2, #210
 362 00d6 0849     		ldr	r1, .L24+24
 363 00d8 0348     		ldr	r0, .L24+8
 364 00da FFF7FEFF 		bl	printf
 365              	.LVL39:
 366 00de F1E7     		b	.L17
 367              	.L25:
 368              		.align	2
 369              	.L24:
 370 00e0 00000000 		.word	.LC0
 371 00e4 0C000000 		.word	.LC4
 372 00e8 54000000 		.word	.LC2
 373 00ec 00000000 		.word	.LC3
 374 00f0 20000000 		.word	.LC5
 375 00f4 00000000 		.word	.LANCHOR1
 376 00f8 40000000 		.word	.LC6
 377              		.cfi_endproc
 378              	.LFE168:
 380              		.section	.text.ip_reass_remove_oldest_datagram,"ax",%progbits
 381              		.align	1
 382              		.syntax unified
 383              		.thumb
 384              		.thumb_func
 385              		.fpu fpv5-d16
 387              	ip_reass_remove_oldest_datagram:
 388              	.LVL40:
 389              	.LFB169:
 228:Middlewares/Third_Party/LwIP/src/core/ipv4/ip4_frag.c ****   /* @todo Can't we simply remove the last datagram in the
 390              		.loc 1 228 1 view -0
 391              		.cfi_startproc
 392              		@ args = 0, pretend = 0, frame = 0
 393              		@ frame_needed = 0, uses_anonymous_args = 0
 228:Middlewares/Third_Party/LwIP/src/core/ipv4/ip4_frag.c ****   /* @todo Can't we simply remove the last datagram in the
 394              		.loc 1 228 1 is_stmt 0 view .LVU105
 395 0000 F8B5     		push	{r3, r4, r5, r6, r7, lr}
 396              	.LCFI2:
 397              		.cfi_def_cfa_offset 24
 398              		.cfi_offset 3, -24
 399              		.cfi_offset 4, -20
 400              		.cfi_offset 5, -16
 401              		.cfi_offset 6, -12
 402              		.cfi_offset 7, -8
 403              		.cfi_offset 14, -4
 404 0002 0546     		mov	r5, r0
 405 0004 0F46     		mov	r7, r1
 232:Middlewares/Third_Party/LwIP/src/core/ipv4/ip4_frag.c ****   int pbufs_freed = 0, pbufs_freed_current;
 406              		.loc 1 232 3 is_stmt 1 view .LVU106
 233:Middlewares/Third_Party/LwIP/src/core/ipv4/ip4_frag.c ****   int other_datagrams;
 407              		.loc 1 233 3 view .LVU107
 408              	.LVL41:
 233:Middlewares/Third_Party/LwIP/src/core/ipv4/ip4_frag.c ****   int other_datagrams;
ARM GAS  /var/folders/bg/n1lwdyp56391g865_v8nrmhm0000gn/T//ccZDTuvB.s 			page 16


 409              		.loc 1 233 7 is_stmt 0 view .LVU108
 410 0006 0026     		movs	r6, #0
 411 0008 2FE0     		b	.L33
 412              	.LVL42:
 413              	.L39:
 245:Middlewares/Third_Party/LwIP/src/core/ipv4/ip4_frag.c ****         /* Not the same datagram as fraghdr */
 414              		.loc 1 245 12 discriminator 1 view .LVU109
 415 000a 9A69     		ldr	r2, [r3, #24]
 416 000c D5F810E0 		ldr	lr, [r5, #16]	@ unaligned
 417 0010 7245     		cmp	r2, lr
 418 0012 11D1     		bne	.L28
 245:Middlewares/Third_Party/LwIP/src/core/ipv4/ip4_frag.c ****         /* Not the same datagram as fraghdr */
 419              		.loc 1 245 12 discriminator 2 view .LVU110
 420 0014 B3F80CE0 		ldrh	lr, [r3, #12]
 421 0018 AA88     		ldrh	r2, [r5, #4]	@ unaligned
 245:Middlewares/Third_Party/LwIP/src/core/ipv4/ip4_frag.c ****         /* Not the same datagram as fraghdr */
 422              		.loc 1 245 11 discriminator 2 view .LVU111
 423 001a 9645     		cmp	lr, r2
 424 001c 0CD1     		bne	.L28
 425 001e 01E0     		b	.L29
 426              	.L34:
 250:Middlewares/Third_Party/LwIP/src/core/ipv4/ip4_frag.c ****         } else if (r->timer <= oldest->timer) {
 427              		.loc 1 250 23 view .LVU112
 428 0020 6146     		mov	r1, ip
 429              	.LVL43:
 249:Middlewares/Third_Party/LwIP/src/core/ipv4/ip4_frag.c ****           oldest_prev = prev;
 430              		.loc 1 249 18 view .LVU113
 431 0022 1846     		mov	r0, r3
 432              	.LVL44:
 433              	.L29:
 257:Middlewares/Third_Party/LwIP/src/core/ipv4/ip4_frag.c ****         prev = r;
 434              		.loc 1 257 7 is_stmt 1 view .LVU114
 257:Middlewares/Third_Party/LwIP/src/core/ipv4/ip4_frag.c ****         prev = r;
 435              		.loc 1 257 12 is_stmt 0 view .LVU115
 436 0024 1A68     		ldr	r2, [r3]
 257:Middlewares/Third_Party/LwIP/src/core/ipv4/ip4_frag.c ****         prev = r;
 437              		.loc 1 257 10 view .LVU116
 438 0026 92B1     		cbz	r2, .L37
 439              	.LVL45:
 440              	.L30:
 257:Middlewares/Third_Party/LwIP/src/core/ipv4/ip4_frag.c ****         prev = r;
 441              		.loc 1 257 10 view .LVU117
 442 0028 9C46     		mov	ip, r3
 443 002a 1346     		mov	r3, r2
 444              	.LVL46:
 445              	.L27:
 244:Middlewares/Third_Party/LwIP/src/core/ipv4/ip4_frag.c ****       if (!IP_ADDRESSES_AND_ID_MATCH(&r->iphdr, fraghdr)) {
 446              		.loc 1 244 11 is_stmt 1 view .LVU118
 447 002c 8BB1     		cbz	r3, .L38
 245:Middlewares/Third_Party/LwIP/src/core/ipv4/ip4_frag.c ****         /* Not the same datagram as fraghdr */
 448              		.loc 1 245 7 view .LVU119
 245:Middlewares/Third_Party/LwIP/src/core/ipv4/ip4_frag.c ****         /* Not the same datagram as fraghdr */
 449              		.loc 1 245 12 is_stmt 0 view .LVU120
 450 002e 5A69     		ldr	r2, [r3, #20]
 451 0030 D5F80CE0 		ldr	lr, [r5, #12]	@ unaligned
 245:Middlewares/Third_Party/LwIP/src/core/ipv4/ip4_frag.c ****         /* Not the same datagram as fraghdr */
 452              		.loc 1 245 10 view .LVU121
ARM GAS  /var/folders/bg/n1lwdyp56391g865_v8nrmhm0000gn/T//ccZDTuvB.s 			page 17


 453 0034 7245     		cmp	r2, lr
 454 0036 E8D0     		beq	.L39
 455              	.L28:
 247:Middlewares/Third_Party/LwIP/src/core/ipv4/ip4_frag.c ****         if (oldest == NULL) {
 456              		.loc 1 247 9 is_stmt 1 view .LVU122
 247:Middlewares/Third_Party/LwIP/src/core/ipv4/ip4_frag.c ****         if (oldest == NULL) {
 457              		.loc 1 247 24 is_stmt 0 view .LVU123
 458 0038 0134     		adds	r4, r4, #1
 459              	.LVL47:
 248:Middlewares/Third_Party/LwIP/src/core/ipv4/ip4_frag.c ****           oldest = r;
 460              		.loc 1 248 9 is_stmt 1 view .LVU124
 248:Middlewares/Third_Party/LwIP/src/core/ipv4/ip4_frag.c ****           oldest = r;
 461              		.loc 1 248 12 is_stmt 0 view .LVU125
 462 003a 0028     		cmp	r0, #0
 463 003c F0D0     		beq	.L34
 251:Middlewares/Third_Party/LwIP/src/core/ipv4/ip4_frag.c ****           /* older than the previous oldest */
 464              		.loc 1 251 16 is_stmt 1 view .LVU126
 251:Middlewares/Third_Party/LwIP/src/core/ipv4/ip4_frag.c ****           /* older than the previous oldest */
 465              		.loc 1 251 21 is_stmt 0 view .LVU127
 466 003e 93F81FE0 		ldrb	lr, [r3, #31]	@ zero_extendqisi2
 251:Middlewares/Third_Party/LwIP/src/core/ipv4/ip4_frag.c ****           /* older than the previous oldest */
 467              		.loc 1 251 38 view .LVU128
 468 0042 C27F     		ldrb	r2, [r0, #31]	@ zero_extendqisi2
 251:Middlewares/Third_Party/LwIP/src/core/ipv4/ip4_frag.c ****           /* older than the previous oldest */
 469              		.loc 1 251 19 view .LVU129
 470 0044 9645     		cmp	lr, r2
 471 0046 EDD8     		bhi	.L29
 254:Middlewares/Third_Party/LwIP/src/core/ipv4/ip4_frag.c ****         }
 472              		.loc 1 254 23 view .LVU130
 473 0048 6146     		mov	r1, ip
 474              	.LVL48:
 253:Middlewares/Third_Party/LwIP/src/core/ipv4/ip4_frag.c ****           oldest_prev = prev;
 475              		.loc 1 253 18 view .LVU131
 476 004a 1846     		mov	r0, r3
 477              	.LVL49:
 253:Middlewares/Third_Party/LwIP/src/core/ipv4/ip4_frag.c ****           oldest_prev = prev;
 478              		.loc 1 253 18 view .LVU132
 479 004c EAE7     		b	.L29
 480              	.LVL50:
 481              	.L37:
 257:Middlewares/Third_Party/LwIP/src/core/ipv4/ip4_frag.c ****         prev = r;
 482              		.loc 1 257 10 view .LVU133
 483 004e 6346     		mov	r3, ip
 484              	.LVL51:
 257:Middlewares/Third_Party/LwIP/src/core/ipv4/ip4_frag.c ****         prev = r;
 485              		.loc 1 257 10 view .LVU134
 486 0050 EAE7     		b	.L30
 487              	.LVL52:
 488              	.L38:
 262:Middlewares/Third_Party/LwIP/src/core/ipv4/ip4_frag.c ****       pbufs_freed_current = ip_reass_free_complete_datagram(oldest, oldest_prev);
 489              		.loc 1 262 5 is_stmt 1 view .LVU135
 262:Middlewares/Third_Party/LwIP/src/core/ipv4/ip4_frag.c ****       pbufs_freed_current = ip_reass_free_complete_datagram(oldest, oldest_prev);
 490              		.loc 1 262 8 is_stmt 0 view .LVU136
 491 0052 10B1     		cbz	r0, .L32
 263:Middlewares/Third_Party/LwIP/src/core/ipv4/ip4_frag.c ****       pbufs_freed += pbufs_freed_current;
 492              		.loc 1 263 7 is_stmt 1 view .LVU137
 263:Middlewares/Third_Party/LwIP/src/core/ipv4/ip4_frag.c ****       pbufs_freed += pbufs_freed_current;
ARM GAS  /var/folders/bg/n1lwdyp56391g865_v8nrmhm0000gn/T//ccZDTuvB.s 			page 18


 493              		.loc 1 263 29 is_stmt 0 view .LVU138
 494 0054 FFF7FEFF 		bl	ip_reass_free_complete_datagram
 495              	.LVL53:
 264:Middlewares/Third_Party/LwIP/src/core/ipv4/ip4_frag.c ****     }
 496              		.loc 1 264 7 is_stmt 1 view .LVU139
 264:Middlewares/Third_Party/LwIP/src/core/ipv4/ip4_frag.c ****     }
 497              		.loc 1 264 19 is_stmt 0 view .LVU140
 498 0058 0644     		add	r6, r6, r0
 499              	.LVL54:
 500              	.L32:
 266:Middlewares/Third_Party/LwIP/src/core/ipv4/ip4_frag.c ****   return pbufs_freed;
 501              		.loc 1 266 11 is_stmt 1 view .LVU141
 266:Middlewares/Third_Party/LwIP/src/core/ipv4/ip4_frag.c ****   return pbufs_freed;
 502              		.loc 1 266 41 is_stmt 0 view .LVU142
 503 005a BE42     		cmp	r6, r7
 504 005c ACBF     		ite	ge
 505 005e 0023     		movge	r3, #0
 506 0060 0123     		movlt	r3, #1
 507 0062 012C     		cmp	r4, #1
 508 0064 D8BF     		it	le
 509 0066 0023     		movle	r3, #0
 266:Middlewares/Third_Party/LwIP/src/core/ipv4/ip4_frag.c ****   return pbufs_freed;
 510              		.loc 1 266 3 view .LVU143
 511 0068 33B1     		cbz	r3, .L40
 512              	.LVL55:
 513              	.L33:
 234:Middlewares/Third_Party/LwIP/src/core/ipv4/ip4_frag.c **** 
 514              		.loc 1 234 3 is_stmt 1 view .LVU144
 238:Middlewares/Third_Party/LwIP/src/core/ipv4/ip4_frag.c ****     oldest = NULL;
 515              		.loc 1 238 3 view .LVU145
 239:Middlewares/Third_Party/LwIP/src/core/ipv4/ip4_frag.c ****     prev = NULL;
 516              		.loc 1 239 5 view .LVU146
 240:Middlewares/Third_Party/LwIP/src/core/ipv4/ip4_frag.c ****     oldest_prev = NULL;
 517              		.loc 1 240 5 view .LVU147
 241:Middlewares/Third_Party/LwIP/src/core/ipv4/ip4_frag.c ****     other_datagrams = 0;
 518              		.loc 1 241 5 view .LVU148
 242:Middlewares/Third_Party/LwIP/src/core/ipv4/ip4_frag.c ****     r = reassdatagrams;
 519              		.loc 1 242 5 view .LVU149
 243:Middlewares/Third_Party/LwIP/src/core/ipv4/ip4_frag.c ****     while (r != NULL) {
 520              		.loc 1 243 5 view .LVU150
 243:Middlewares/Third_Party/LwIP/src/core/ipv4/ip4_frag.c ****     while (r != NULL) {
 521              		.loc 1 243 7 is_stmt 0 view .LVU151
 522 006a 044B     		ldr	r3, .L41
 523 006c 1B68     		ldr	r3, [r3]
 524              	.LVL56:
 244:Middlewares/Third_Party/LwIP/src/core/ipv4/ip4_frag.c ****       if (!IP_ADDRESSES_AND_ID_MATCH(&r->iphdr, fraghdr)) {
 525              		.loc 1 244 5 is_stmt 1 view .LVU152
 242:Middlewares/Third_Party/LwIP/src/core/ipv4/ip4_frag.c ****     r = reassdatagrams;
 526              		.loc 1 242 21 is_stmt 0 view .LVU153
 527 006e 0024     		movs	r4, #0
 241:Middlewares/Third_Party/LwIP/src/core/ipv4/ip4_frag.c ****     other_datagrams = 0;
 528              		.loc 1 241 17 view .LVU154
 529 0070 2146     		mov	r1, r4
 240:Middlewares/Third_Party/LwIP/src/core/ipv4/ip4_frag.c ****     oldest_prev = NULL;
 530              		.loc 1 240 10 view .LVU155
 531 0072 A446     		mov	ip, r4
 239:Middlewares/Third_Party/LwIP/src/core/ipv4/ip4_frag.c ****     prev = NULL;
ARM GAS  /var/folders/bg/n1lwdyp56391g865_v8nrmhm0000gn/T//ccZDTuvB.s 			page 19


 532              		.loc 1 239 12 view .LVU156
 533 0074 2046     		mov	r0, r4
 244:Middlewares/Third_Party/LwIP/src/core/ipv4/ip4_frag.c ****       if (!IP_ADDRESSES_AND_ID_MATCH(&r->iphdr, fraghdr)) {
 534              		.loc 1 244 11 view .LVU157
 535 0076 D9E7     		b	.L27
 536              	.LVL57:
 537              	.L40:
 267:Middlewares/Third_Party/LwIP/src/core/ipv4/ip4_frag.c **** }
 538              		.loc 1 267 3 is_stmt 1 view .LVU158
 268:Middlewares/Third_Party/LwIP/src/core/ipv4/ip4_frag.c **** #endif /* IP_REASS_FREE_OLDEST */
 539              		.loc 1 268 1 is_stmt 0 view .LVU159
 540 0078 3046     		mov	r0, r6
 541 007a F8BD     		pop	{r3, r4, r5, r6, r7, pc}
 542              	.LVL58:
 543              	.L42:
 268:Middlewares/Third_Party/LwIP/src/core/ipv4/ip4_frag.c **** #endif /* IP_REASS_FREE_OLDEST */
 544              		.loc 1 268 1 view .LVU160
 545              		.align	2
 546              	.L41:
 547 007c 00000000 		.word	.LANCHOR0
 548              		.cfi_endproc
 549              	.LFE169:
 551              		.section	.rodata.ip_frag_free_pbuf_custom_ref.str1.4,"aMS",%progbits,1
 552              		.align	2
 553              	.LC7:
 554 0000 7020213D 		.ascii	"p != NULL\000"
 554      204E554C 
 554      4C00
 555              		.section	.text.ip_frag_free_pbuf_custom_ref,"ax",%progbits
 556              		.align	1
 557              		.syntax unified
 558              		.thumb
 559              		.thumb_func
 560              		.fpu fpv5-d16
 562              	ip_frag_free_pbuf_custom_ref:
 563              	.LVL59:
 564              	.LFB175:
 332:Middlewares/Third_Party/LwIP/src/core/ipv4/ip4_frag.c **** 
 333:Middlewares/Third_Party/LwIP/src/core/ipv4/ip4_frag.c **** /**
 334:Middlewares/Third_Party/LwIP/src/core/ipv4/ip4_frag.c ****  * Chain a new pbuf into the pbuf list that composes the datagram.  The pbuf list
 335:Middlewares/Third_Party/LwIP/src/core/ipv4/ip4_frag.c ****  * will grow over time as  new pbufs are rx.
 336:Middlewares/Third_Party/LwIP/src/core/ipv4/ip4_frag.c ****  * Also checks that the datagram passes basic continuity checks (if the last
 337:Middlewares/Third_Party/LwIP/src/core/ipv4/ip4_frag.c ****  * fragment was received at least once).
 338:Middlewares/Third_Party/LwIP/src/core/ipv4/ip4_frag.c ****  * @param ipr points to the reassembly state
 339:Middlewares/Third_Party/LwIP/src/core/ipv4/ip4_frag.c ****  * @param new_p points to the pbuf for the current fragment
 340:Middlewares/Third_Party/LwIP/src/core/ipv4/ip4_frag.c ****  * @param is_last is 1 if this pbuf has MF==0 (ipr->flags not updated yet)
 341:Middlewares/Third_Party/LwIP/src/core/ipv4/ip4_frag.c ****  * @return see IP_REASS_VALIDATE_* defines
 342:Middlewares/Third_Party/LwIP/src/core/ipv4/ip4_frag.c ****  */
 343:Middlewares/Third_Party/LwIP/src/core/ipv4/ip4_frag.c **** static int
 344:Middlewares/Third_Party/LwIP/src/core/ipv4/ip4_frag.c **** ip_reass_chain_frag_into_datagram_and_validate(struct ip_reassdata *ipr, struct pbuf *new_p, int is
 345:Middlewares/Third_Party/LwIP/src/core/ipv4/ip4_frag.c **** {
 346:Middlewares/Third_Party/LwIP/src/core/ipv4/ip4_frag.c ****   struct ip_reass_helper *iprh, *iprh_tmp, *iprh_prev = NULL;
 347:Middlewares/Third_Party/LwIP/src/core/ipv4/ip4_frag.c ****   struct pbuf *q;
 348:Middlewares/Third_Party/LwIP/src/core/ipv4/ip4_frag.c ****   u16_t offset, len;
 349:Middlewares/Third_Party/LwIP/src/core/ipv4/ip4_frag.c ****   u8_t hlen;
 350:Middlewares/Third_Party/LwIP/src/core/ipv4/ip4_frag.c ****   struct ip_hdr *fraghdr;
 351:Middlewares/Third_Party/LwIP/src/core/ipv4/ip4_frag.c ****   int valid = 1;
ARM GAS  /var/folders/bg/n1lwdyp56391g865_v8nrmhm0000gn/T//ccZDTuvB.s 			page 20


 352:Middlewares/Third_Party/LwIP/src/core/ipv4/ip4_frag.c **** 
 353:Middlewares/Third_Party/LwIP/src/core/ipv4/ip4_frag.c ****   /* Extract length and fragment offset from current fragment */
 354:Middlewares/Third_Party/LwIP/src/core/ipv4/ip4_frag.c ****   fraghdr = (struct ip_hdr *)new_p->payload;
 355:Middlewares/Third_Party/LwIP/src/core/ipv4/ip4_frag.c ****   len = lwip_ntohs(IPH_LEN(fraghdr));
 356:Middlewares/Third_Party/LwIP/src/core/ipv4/ip4_frag.c ****   hlen = IPH_HL_BYTES(fraghdr);
 357:Middlewares/Third_Party/LwIP/src/core/ipv4/ip4_frag.c ****   if (hlen > len) {
 358:Middlewares/Third_Party/LwIP/src/core/ipv4/ip4_frag.c ****     /* invalid datagram */
 359:Middlewares/Third_Party/LwIP/src/core/ipv4/ip4_frag.c ****     return IP_REASS_VALIDATE_PBUF_DROPPED;
 360:Middlewares/Third_Party/LwIP/src/core/ipv4/ip4_frag.c ****   }
 361:Middlewares/Third_Party/LwIP/src/core/ipv4/ip4_frag.c ****   len = (u16_t)(len - hlen);
 362:Middlewares/Third_Party/LwIP/src/core/ipv4/ip4_frag.c ****   offset = IPH_OFFSET_BYTES(fraghdr);
 363:Middlewares/Third_Party/LwIP/src/core/ipv4/ip4_frag.c **** 
 364:Middlewares/Third_Party/LwIP/src/core/ipv4/ip4_frag.c ****   /* overwrite the fragment's ip header from the pbuf with our helper struct,
 365:Middlewares/Third_Party/LwIP/src/core/ipv4/ip4_frag.c ****    * and setup the embedded helper structure. */
 366:Middlewares/Third_Party/LwIP/src/core/ipv4/ip4_frag.c ****   /* make sure the struct ip_reass_helper fits into the IP header */
 367:Middlewares/Third_Party/LwIP/src/core/ipv4/ip4_frag.c ****   LWIP_ASSERT("sizeof(struct ip_reass_helper) <= IP_HLEN",
 368:Middlewares/Third_Party/LwIP/src/core/ipv4/ip4_frag.c ****               sizeof(struct ip_reass_helper) <= IP_HLEN);
 369:Middlewares/Third_Party/LwIP/src/core/ipv4/ip4_frag.c ****   iprh = (struct ip_reass_helper *)new_p->payload;
 370:Middlewares/Third_Party/LwIP/src/core/ipv4/ip4_frag.c ****   iprh->next_pbuf = NULL;
 371:Middlewares/Third_Party/LwIP/src/core/ipv4/ip4_frag.c ****   iprh->start = offset;
 372:Middlewares/Third_Party/LwIP/src/core/ipv4/ip4_frag.c ****   iprh->end = (u16_t)(offset + len);
 373:Middlewares/Third_Party/LwIP/src/core/ipv4/ip4_frag.c ****   if (iprh->end < offset) {
 374:Middlewares/Third_Party/LwIP/src/core/ipv4/ip4_frag.c ****     /* u16_t overflow, cannot handle this */
 375:Middlewares/Third_Party/LwIP/src/core/ipv4/ip4_frag.c ****     return IP_REASS_VALIDATE_PBUF_DROPPED;
 376:Middlewares/Third_Party/LwIP/src/core/ipv4/ip4_frag.c ****   }
 377:Middlewares/Third_Party/LwIP/src/core/ipv4/ip4_frag.c **** 
 378:Middlewares/Third_Party/LwIP/src/core/ipv4/ip4_frag.c ****   /* Iterate through until we either get to the end of the list (append),
 379:Middlewares/Third_Party/LwIP/src/core/ipv4/ip4_frag.c ****    * or we find one with a larger offset (insert). */
 380:Middlewares/Third_Party/LwIP/src/core/ipv4/ip4_frag.c ****   for (q = ipr->p; q != NULL;) {
 381:Middlewares/Third_Party/LwIP/src/core/ipv4/ip4_frag.c ****     iprh_tmp = (struct ip_reass_helper *)q->payload;
 382:Middlewares/Third_Party/LwIP/src/core/ipv4/ip4_frag.c ****     if (iprh->start < iprh_tmp->start) {
 383:Middlewares/Third_Party/LwIP/src/core/ipv4/ip4_frag.c ****       /* the new pbuf should be inserted before this */
 384:Middlewares/Third_Party/LwIP/src/core/ipv4/ip4_frag.c ****       iprh->next_pbuf = q;
 385:Middlewares/Third_Party/LwIP/src/core/ipv4/ip4_frag.c ****       if (iprh_prev != NULL) {
 386:Middlewares/Third_Party/LwIP/src/core/ipv4/ip4_frag.c ****         /* not the fragment with the lowest offset */
 387:Middlewares/Third_Party/LwIP/src/core/ipv4/ip4_frag.c **** #if IP_REASS_CHECK_OVERLAP
 388:Middlewares/Third_Party/LwIP/src/core/ipv4/ip4_frag.c ****         if ((iprh->start < iprh_prev->end) || (iprh->end > iprh_tmp->start)) {
 389:Middlewares/Third_Party/LwIP/src/core/ipv4/ip4_frag.c ****           /* fragment overlaps with previous or following, throw away */
 390:Middlewares/Third_Party/LwIP/src/core/ipv4/ip4_frag.c ****           return IP_REASS_VALIDATE_PBUF_DROPPED;
 391:Middlewares/Third_Party/LwIP/src/core/ipv4/ip4_frag.c ****         }
 392:Middlewares/Third_Party/LwIP/src/core/ipv4/ip4_frag.c **** #endif /* IP_REASS_CHECK_OVERLAP */
 393:Middlewares/Third_Party/LwIP/src/core/ipv4/ip4_frag.c ****         iprh_prev->next_pbuf = new_p;
 394:Middlewares/Third_Party/LwIP/src/core/ipv4/ip4_frag.c ****         if (iprh_prev->end != iprh->start) {
 395:Middlewares/Third_Party/LwIP/src/core/ipv4/ip4_frag.c ****           /* There is a fragment missing between the current
 396:Middlewares/Third_Party/LwIP/src/core/ipv4/ip4_frag.c ****            * and the previous fragment */
 397:Middlewares/Third_Party/LwIP/src/core/ipv4/ip4_frag.c ****           valid = 0;
 398:Middlewares/Third_Party/LwIP/src/core/ipv4/ip4_frag.c ****         }
 399:Middlewares/Third_Party/LwIP/src/core/ipv4/ip4_frag.c ****       } else {
 400:Middlewares/Third_Party/LwIP/src/core/ipv4/ip4_frag.c **** #if IP_REASS_CHECK_OVERLAP
 401:Middlewares/Third_Party/LwIP/src/core/ipv4/ip4_frag.c ****         if (iprh->end > iprh_tmp->start) {
 402:Middlewares/Third_Party/LwIP/src/core/ipv4/ip4_frag.c ****           /* fragment overlaps with following, throw away */
 403:Middlewares/Third_Party/LwIP/src/core/ipv4/ip4_frag.c ****           return IP_REASS_VALIDATE_PBUF_DROPPED;
 404:Middlewares/Third_Party/LwIP/src/core/ipv4/ip4_frag.c ****         }
 405:Middlewares/Third_Party/LwIP/src/core/ipv4/ip4_frag.c **** #endif /* IP_REASS_CHECK_OVERLAP */
 406:Middlewares/Third_Party/LwIP/src/core/ipv4/ip4_frag.c ****         /* fragment with the lowest offset */
 407:Middlewares/Third_Party/LwIP/src/core/ipv4/ip4_frag.c ****         ipr->p = new_p;
 408:Middlewares/Third_Party/LwIP/src/core/ipv4/ip4_frag.c ****       }
ARM GAS  /var/folders/bg/n1lwdyp56391g865_v8nrmhm0000gn/T//ccZDTuvB.s 			page 21


 409:Middlewares/Third_Party/LwIP/src/core/ipv4/ip4_frag.c ****       break;
 410:Middlewares/Third_Party/LwIP/src/core/ipv4/ip4_frag.c ****     } else if (iprh->start == iprh_tmp->start) {
 411:Middlewares/Third_Party/LwIP/src/core/ipv4/ip4_frag.c ****       /* received the same datagram twice: no need to keep the datagram */
 412:Middlewares/Third_Party/LwIP/src/core/ipv4/ip4_frag.c ****       return IP_REASS_VALIDATE_PBUF_DROPPED;
 413:Middlewares/Third_Party/LwIP/src/core/ipv4/ip4_frag.c **** #if IP_REASS_CHECK_OVERLAP
 414:Middlewares/Third_Party/LwIP/src/core/ipv4/ip4_frag.c ****     } else if (iprh->start < iprh_tmp->end) {
 415:Middlewares/Third_Party/LwIP/src/core/ipv4/ip4_frag.c ****       /* overlap: no need to keep the new datagram */
 416:Middlewares/Third_Party/LwIP/src/core/ipv4/ip4_frag.c ****       return IP_REASS_VALIDATE_PBUF_DROPPED;
 417:Middlewares/Third_Party/LwIP/src/core/ipv4/ip4_frag.c **** #endif /* IP_REASS_CHECK_OVERLAP */
 418:Middlewares/Third_Party/LwIP/src/core/ipv4/ip4_frag.c ****     } else {
 419:Middlewares/Third_Party/LwIP/src/core/ipv4/ip4_frag.c ****       /* Check if the fragments received so far have no holes. */
 420:Middlewares/Third_Party/LwIP/src/core/ipv4/ip4_frag.c ****       if (iprh_prev != NULL) {
 421:Middlewares/Third_Party/LwIP/src/core/ipv4/ip4_frag.c ****         if (iprh_prev->end != iprh_tmp->start) {
 422:Middlewares/Third_Party/LwIP/src/core/ipv4/ip4_frag.c ****           /* There is a fragment missing between the current
 423:Middlewares/Third_Party/LwIP/src/core/ipv4/ip4_frag.c ****            * and the previous fragment */
 424:Middlewares/Third_Party/LwIP/src/core/ipv4/ip4_frag.c ****           valid = 0;
 425:Middlewares/Third_Party/LwIP/src/core/ipv4/ip4_frag.c ****         }
 426:Middlewares/Third_Party/LwIP/src/core/ipv4/ip4_frag.c ****       }
 427:Middlewares/Third_Party/LwIP/src/core/ipv4/ip4_frag.c ****     }
 428:Middlewares/Third_Party/LwIP/src/core/ipv4/ip4_frag.c ****     q = iprh_tmp->next_pbuf;
 429:Middlewares/Third_Party/LwIP/src/core/ipv4/ip4_frag.c ****     iprh_prev = iprh_tmp;
 430:Middlewares/Third_Party/LwIP/src/core/ipv4/ip4_frag.c ****   }
 431:Middlewares/Third_Party/LwIP/src/core/ipv4/ip4_frag.c **** 
 432:Middlewares/Third_Party/LwIP/src/core/ipv4/ip4_frag.c ****   /* If q is NULL, then we made it to the end of the list. Determine what to do now */
 433:Middlewares/Third_Party/LwIP/src/core/ipv4/ip4_frag.c ****   if (q == NULL) {
 434:Middlewares/Third_Party/LwIP/src/core/ipv4/ip4_frag.c ****     if (iprh_prev != NULL) {
 435:Middlewares/Third_Party/LwIP/src/core/ipv4/ip4_frag.c ****       /* this is (for now), the fragment with the highest offset:
 436:Middlewares/Third_Party/LwIP/src/core/ipv4/ip4_frag.c ****        * chain it to the last fragment */
 437:Middlewares/Third_Party/LwIP/src/core/ipv4/ip4_frag.c **** #if IP_REASS_CHECK_OVERLAP
 438:Middlewares/Third_Party/LwIP/src/core/ipv4/ip4_frag.c ****       LWIP_ASSERT("check fragments don't overlap", iprh_prev->end <= iprh->start);
 439:Middlewares/Third_Party/LwIP/src/core/ipv4/ip4_frag.c **** #endif /* IP_REASS_CHECK_OVERLAP */
 440:Middlewares/Third_Party/LwIP/src/core/ipv4/ip4_frag.c ****       iprh_prev->next_pbuf = new_p;
 441:Middlewares/Third_Party/LwIP/src/core/ipv4/ip4_frag.c ****       if (iprh_prev->end != iprh->start) {
 442:Middlewares/Third_Party/LwIP/src/core/ipv4/ip4_frag.c ****         valid = 0;
 443:Middlewares/Third_Party/LwIP/src/core/ipv4/ip4_frag.c ****       }
 444:Middlewares/Third_Party/LwIP/src/core/ipv4/ip4_frag.c ****     } else {
 445:Middlewares/Third_Party/LwIP/src/core/ipv4/ip4_frag.c **** #if IP_REASS_CHECK_OVERLAP
 446:Middlewares/Third_Party/LwIP/src/core/ipv4/ip4_frag.c ****       LWIP_ASSERT("no previous fragment, this must be the first fragment!",
 447:Middlewares/Third_Party/LwIP/src/core/ipv4/ip4_frag.c ****                   ipr->p == NULL);
 448:Middlewares/Third_Party/LwIP/src/core/ipv4/ip4_frag.c **** #endif /* IP_REASS_CHECK_OVERLAP */
 449:Middlewares/Third_Party/LwIP/src/core/ipv4/ip4_frag.c ****       /* this is the first fragment we ever received for this ip datagram */
 450:Middlewares/Third_Party/LwIP/src/core/ipv4/ip4_frag.c ****       ipr->p = new_p;
 451:Middlewares/Third_Party/LwIP/src/core/ipv4/ip4_frag.c ****     }
 452:Middlewares/Third_Party/LwIP/src/core/ipv4/ip4_frag.c ****   }
 453:Middlewares/Third_Party/LwIP/src/core/ipv4/ip4_frag.c **** 
 454:Middlewares/Third_Party/LwIP/src/core/ipv4/ip4_frag.c ****   /* At this point, the validation part begins: */
 455:Middlewares/Third_Party/LwIP/src/core/ipv4/ip4_frag.c ****   /* If we already received the last fragment */
 456:Middlewares/Third_Party/LwIP/src/core/ipv4/ip4_frag.c ****   if (is_last || ((ipr->flags & IP_REASS_FLAG_LASTFRAG) != 0)) {
 457:Middlewares/Third_Party/LwIP/src/core/ipv4/ip4_frag.c ****     /* and had no holes so far */
 458:Middlewares/Third_Party/LwIP/src/core/ipv4/ip4_frag.c ****     if (valid) {
 459:Middlewares/Third_Party/LwIP/src/core/ipv4/ip4_frag.c ****       /* then check if the rest of the fragments is here */
 460:Middlewares/Third_Party/LwIP/src/core/ipv4/ip4_frag.c ****       /* Check if the queue starts with the first datagram */
 461:Middlewares/Third_Party/LwIP/src/core/ipv4/ip4_frag.c ****       if ((ipr->p == NULL) || (((struct ip_reass_helper *)ipr->p->payload)->start != 0)) {
 462:Middlewares/Third_Party/LwIP/src/core/ipv4/ip4_frag.c ****         valid = 0;
 463:Middlewares/Third_Party/LwIP/src/core/ipv4/ip4_frag.c ****       } else {
 464:Middlewares/Third_Party/LwIP/src/core/ipv4/ip4_frag.c ****         /* and check that there are no holes after this datagram */
 465:Middlewares/Third_Party/LwIP/src/core/ipv4/ip4_frag.c ****         iprh_prev = iprh;
ARM GAS  /var/folders/bg/n1lwdyp56391g865_v8nrmhm0000gn/T//ccZDTuvB.s 			page 22


 466:Middlewares/Third_Party/LwIP/src/core/ipv4/ip4_frag.c ****         q = iprh->next_pbuf;
 467:Middlewares/Third_Party/LwIP/src/core/ipv4/ip4_frag.c ****         while (q != NULL) {
 468:Middlewares/Third_Party/LwIP/src/core/ipv4/ip4_frag.c ****           iprh = (struct ip_reass_helper *)q->payload;
 469:Middlewares/Third_Party/LwIP/src/core/ipv4/ip4_frag.c ****           if (iprh_prev->end != iprh->start) {
 470:Middlewares/Third_Party/LwIP/src/core/ipv4/ip4_frag.c ****             valid = 0;
 471:Middlewares/Third_Party/LwIP/src/core/ipv4/ip4_frag.c ****             break;
 472:Middlewares/Third_Party/LwIP/src/core/ipv4/ip4_frag.c ****           }
 473:Middlewares/Third_Party/LwIP/src/core/ipv4/ip4_frag.c ****           iprh_prev = iprh;
 474:Middlewares/Third_Party/LwIP/src/core/ipv4/ip4_frag.c ****           q = iprh->next_pbuf;
 475:Middlewares/Third_Party/LwIP/src/core/ipv4/ip4_frag.c ****         }
 476:Middlewares/Third_Party/LwIP/src/core/ipv4/ip4_frag.c ****         /* if still valid, all fragments are received
 477:Middlewares/Third_Party/LwIP/src/core/ipv4/ip4_frag.c ****          * (because to the MF==0 already arrived */
 478:Middlewares/Third_Party/LwIP/src/core/ipv4/ip4_frag.c ****         if (valid) {
 479:Middlewares/Third_Party/LwIP/src/core/ipv4/ip4_frag.c ****           LWIP_ASSERT("sanity check", ipr->p != NULL);
 480:Middlewares/Third_Party/LwIP/src/core/ipv4/ip4_frag.c ****           LWIP_ASSERT("sanity check",
 481:Middlewares/Third_Party/LwIP/src/core/ipv4/ip4_frag.c ****                       ((struct ip_reass_helper *)ipr->p->payload) != iprh);
 482:Middlewares/Third_Party/LwIP/src/core/ipv4/ip4_frag.c ****           LWIP_ASSERT("validate_datagram:next_pbuf!=NULL",
 483:Middlewares/Third_Party/LwIP/src/core/ipv4/ip4_frag.c ****                       iprh->next_pbuf == NULL);
 484:Middlewares/Third_Party/LwIP/src/core/ipv4/ip4_frag.c ****         }
 485:Middlewares/Third_Party/LwIP/src/core/ipv4/ip4_frag.c ****       }
 486:Middlewares/Third_Party/LwIP/src/core/ipv4/ip4_frag.c ****     }
 487:Middlewares/Third_Party/LwIP/src/core/ipv4/ip4_frag.c ****     /* If valid is 0 here, there are some fragments missing in the middle
 488:Middlewares/Third_Party/LwIP/src/core/ipv4/ip4_frag.c ****      * (since MF == 0 has already arrived). Such datagrams simply time out if
 489:Middlewares/Third_Party/LwIP/src/core/ipv4/ip4_frag.c ****      * no more fragments are received... */
 490:Middlewares/Third_Party/LwIP/src/core/ipv4/ip4_frag.c ****     return valid ? IP_REASS_VALIDATE_TELEGRAM_FINISHED : IP_REASS_VALIDATE_PBUF_QUEUED;
 491:Middlewares/Third_Party/LwIP/src/core/ipv4/ip4_frag.c ****   }
 492:Middlewares/Third_Party/LwIP/src/core/ipv4/ip4_frag.c ****   /* If we come here, not all fragments were received, yet! */
 493:Middlewares/Third_Party/LwIP/src/core/ipv4/ip4_frag.c ****   return IP_REASS_VALIDATE_PBUF_QUEUED; /* not yet valid! */
 494:Middlewares/Third_Party/LwIP/src/core/ipv4/ip4_frag.c **** }
 495:Middlewares/Third_Party/LwIP/src/core/ipv4/ip4_frag.c **** 
 496:Middlewares/Third_Party/LwIP/src/core/ipv4/ip4_frag.c **** /**
 497:Middlewares/Third_Party/LwIP/src/core/ipv4/ip4_frag.c ****  * Reassembles incoming IP fragments into an IP datagram.
 498:Middlewares/Third_Party/LwIP/src/core/ipv4/ip4_frag.c ****  *
 499:Middlewares/Third_Party/LwIP/src/core/ipv4/ip4_frag.c ****  * @param p points to a pbuf chain of the fragment
 500:Middlewares/Third_Party/LwIP/src/core/ipv4/ip4_frag.c ****  * @return NULL if reassembly is incomplete, ? otherwise
 501:Middlewares/Third_Party/LwIP/src/core/ipv4/ip4_frag.c ****  */
 502:Middlewares/Third_Party/LwIP/src/core/ipv4/ip4_frag.c **** struct pbuf *
 503:Middlewares/Third_Party/LwIP/src/core/ipv4/ip4_frag.c **** ip4_reass(struct pbuf *p)
 504:Middlewares/Third_Party/LwIP/src/core/ipv4/ip4_frag.c **** {
 505:Middlewares/Third_Party/LwIP/src/core/ipv4/ip4_frag.c ****   struct pbuf *r;
 506:Middlewares/Third_Party/LwIP/src/core/ipv4/ip4_frag.c ****   struct ip_hdr *fraghdr;
 507:Middlewares/Third_Party/LwIP/src/core/ipv4/ip4_frag.c ****   struct ip_reassdata *ipr;
 508:Middlewares/Third_Party/LwIP/src/core/ipv4/ip4_frag.c ****   struct ip_reass_helper *iprh;
 509:Middlewares/Third_Party/LwIP/src/core/ipv4/ip4_frag.c ****   u16_t offset, len, clen;
 510:Middlewares/Third_Party/LwIP/src/core/ipv4/ip4_frag.c ****   u8_t hlen;
 511:Middlewares/Third_Party/LwIP/src/core/ipv4/ip4_frag.c ****   int valid;
 512:Middlewares/Third_Party/LwIP/src/core/ipv4/ip4_frag.c ****   int is_last;
 513:Middlewares/Third_Party/LwIP/src/core/ipv4/ip4_frag.c **** 
 514:Middlewares/Third_Party/LwIP/src/core/ipv4/ip4_frag.c ****   IPFRAG_STATS_INC(ip_frag.recv);
 515:Middlewares/Third_Party/LwIP/src/core/ipv4/ip4_frag.c ****   MIB2_STATS_INC(mib2.ipreasmreqds);
 516:Middlewares/Third_Party/LwIP/src/core/ipv4/ip4_frag.c **** 
 517:Middlewares/Third_Party/LwIP/src/core/ipv4/ip4_frag.c ****   fraghdr = (struct ip_hdr *)p->payload;
 518:Middlewares/Third_Party/LwIP/src/core/ipv4/ip4_frag.c **** 
 519:Middlewares/Third_Party/LwIP/src/core/ipv4/ip4_frag.c ****   if (IPH_HL_BYTES(fraghdr) != IP_HLEN) {
 520:Middlewares/Third_Party/LwIP/src/core/ipv4/ip4_frag.c ****     LWIP_DEBUGF(IP_REASS_DEBUG, ("ip4_reass: IP options currently not supported!\n"));
 521:Middlewares/Third_Party/LwIP/src/core/ipv4/ip4_frag.c ****     IPFRAG_STATS_INC(ip_frag.err);
 522:Middlewares/Third_Party/LwIP/src/core/ipv4/ip4_frag.c ****     goto nullreturn;
ARM GAS  /var/folders/bg/n1lwdyp56391g865_v8nrmhm0000gn/T//ccZDTuvB.s 			page 23


 523:Middlewares/Third_Party/LwIP/src/core/ipv4/ip4_frag.c ****   }
 524:Middlewares/Third_Party/LwIP/src/core/ipv4/ip4_frag.c **** 
 525:Middlewares/Third_Party/LwIP/src/core/ipv4/ip4_frag.c ****   offset = IPH_OFFSET_BYTES(fraghdr);
 526:Middlewares/Third_Party/LwIP/src/core/ipv4/ip4_frag.c ****   len = lwip_ntohs(IPH_LEN(fraghdr));
 527:Middlewares/Third_Party/LwIP/src/core/ipv4/ip4_frag.c ****   hlen = IPH_HL_BYTES(fraghdr);
 528:Middlewares/Third_Party/LwIP/src/core/ipv4/ip4_frag.c ****   if (hlen > len) {
 529:Middlewares/Third_Party/LwIP/src/core/ipv4/ip4_frag.c ****     /* invalid datagram */
 530:Middlewares/Third_Party/LwIP/src/core/ipv4/ip4_frag.c ****     goto nullreturn;
 531:Middlewares/Third_Party/LwIP/src/core/ipv4/ip4_frag.c ****   }
 532:Middlewares/Third_Party/LwIP/src/core/ipv4/ip4_frag.c ****   len = (u16_t)(len - hlen);
 533:Middlewares/Third_Party/LwIP/src/core/ipv4/ip4_frag.c **** 
 534:Middlewares/Third_Party/LwIP/src/core/ipv4/ip4_frag.c ****   /* Check if we are allowed to enqueue more datagrams. */
 535:Middlewares/Third_Party/LwIP/src/core/ipv4/ip4_frag.c ****   clen = pbuf_clen(p);
 536:Middlewares/Third_Party/LwIP/src/core/ipv4/ip4_frag.c ****   if ((ip_reass_pbufcount + clen) > IP_REASS_MAX_PBUFS) {
 537:Middlewares/Third_Party/LwIP/src/core/ipv4/ip4_frag.c **** #if IP_REASS_FREE_OLDEST
 538:Middlewares/Third_Party/LwIP/src/core/ipv4/ip4_frag.c ****     if (!ip_reass_remove_oldest_datagram(fraghdr, clen) ||
 539:Middlewares/Third_Party/LwIP/src/core/ipv4/ip4_frag.c ****         ((ip_reass_pbufcount + clen) > IP_REASS_MAX_PBUFS))
 540:Middlewares/Third_Party/LwIP/src/core/ipv4/ip4_frag.c **** #endif /* IP_REASS_FREE_OLDEST */
 541:Middlewares/Third_Party/LwIP/src/core/ipv4/ip4_frag.c ****     {
 542:Middlewares/Third_Party/LwIP/src/core/ipv4/ip4_frag.c ****       /* No datagram could be freed and still too many pbufs enqueued */
 543:Middlewares/Third_Party/LwIP/src/core/ipv4/ip4_frag.c ****       LWIP_DEBUGF(IP_REASS_DEBUG, ("ip4_reass: Overflow condition: pbufct=%d, clen=%d, MAX=%d\n",
 544:Middlewares/Third_Party/LwIP/src/core/ipv4/ip4_frag.c ****                                    ip_reass_pbufcount, clen, IP_REASS_MAX_PBUFS));
 545:Middlewares/Third_Party/LwIP/src/core/ipv4/ip4_frag.c ****       IPFRAG_STATS_INC(ip_frag.memerr);
 546:Middlewares/Third_Party/LwIP/src/core/ipv4/ip4_frag.c ****       /* @todo: send ICMP time exceeded here? */
 547:Middlewares/Third_Party/LwIP/src/core/ipv4/ip4_frag.c ****       /* drop this pbuf */
 548:Middlewares/Third_Party/LwIP/src/core/ipv4/ip4_frag.c ****       goto nullreturn;
 549:Middlewares/Third_Party/LwIP/src/core/ipv4/ip4_frag.c ****     }
 550:Middlewares/Third_Party/LwIP/src/core/ipv4/ip4_frag.c ****   }
 551:Middlewares/Third_Party/LwIP/src/core/ipv4/ip4_frag.c **** 
 552:Middlewares/Third_Party/LwIP/src/core/ipv4/ip4_frag.c ****   /* Look for the datagram the fragment belongs to in the current datagram queue,
 553:Middlewares/Third_Party/LwIP/src/core/ipv4/ip4_frag.c ****    * remembering the previous in the queue for later dequeueing. */
 554:Middlewares/Third_Party/LwIP/src/core/ipv4/ip4_frag.c ****   for (ipr = reassdatagrams; ipr != NULL; ipr = ipr->next) {
 555:Middlewares/Third_Party/LwIP/src/core/ipv4/ip4_frag.c ****     /* Check if the incoming fragment matches the one currently present
 556:Middlewares/Third_Party/LwIP/src/core/ipv4/ip4_frag.c ****        in the reassembly buffer. If so, we proceed with copying the
 557:Middlewares/Third_Party/LwIP/src/core/ipv4/ip4_frag.c ****        fragment into the buffer. */
 558:Middlewares/Third_Party/LwIP/src/core/ipv4/ip4_frag.c ****     if (IP_ADDRESSES_AND_ID_MATCH(&ipr->iphdr, fraghdr)) {
 559:Middlewares/Third_Party/LwIP/src/core/ipv4/ip4_frag.c ****       LWIP_DEBUGF(IP_REASS_DEBUG, ("ip4_reass: matching previous fragment ID=%"X16_F"\n",
 560:Middlewares/Third_Party/LwIP/src/core/ipv4/ip4_frag.c ****                                    lwip_ntohs(IPH_ID(fraghdr))));
 561:Middlewares/Third_Party/LwIP/src/core/ipv4/ip4_frag.c ****       IPFRAG_STATS_INC(ip_frag.cachehit);
 562:Middlewares/Third_Party/LwIP/src/core/ipv4/ip4_frag.c ****       break;
 563:Middlewares/Third_Party/LwIP/src/core/ipv4/ip4_frag.c ****     }
 564:Middlewares/Third_Party/LwIP/src/core/ipv4/ip4_frag.c ****   }
 565:Middlewares/Third_Party/LwIP/src/core/ipv4/ip4_frag.c **** 
 566:Middlewares/Third_Party/LwIP/src/core/ipv4/ip4_frag.c ****   if (ipr == NULL) {
 567:Middlewares/Third_Party/LwIP/src/core/ipv4/ip4_frag.c ****     /* Enqueue a new datagram into the datagram queue */
 568:Middlewares/Third_Party/LwIP/src/core/ipv4/ip4_frag.c ****     ipr = ip_reass_enqueue_new_datagram(fraghdr, clen);
 569:Middlewares/Third_Party/LwIP/src/core/ipv4/ip4_frag.c ****     /* Bail if unable to enqueue */
 570:Middlewares/Third_Party/LwIP/src/core/ipv4/ip4_frag.c ****     if (ipr == NULL) {
 571:Middlewares/Third_Party/LwIP/src/core/ipv4/ip4_frag.c ****       goto nullreturn;
 572:Middlewares/Third_Party/LwIP/src/core/ipv4/ip4_frag.c ****     }
 573:Middlewares/Third_Party/LwIP/src/core/ipv4/ip4_frag.c ****   } else {
 574:Middlewares/Third_Party/LwIP/src/core/ipv4/ip4_frag.c ****     if (((lwip_ntohs(IPH_OFFSET(fraghdr)) & IP_OFFMASK) == 0) &&
 575:Middlewares/Third_Party/LwIP/src/core/ipv4/ip4_frag.c ****         ((lwip_ntohs(IPH_OFFSET(&ipr->iphdr)) & IP_OFFMASK) != 0)) {
 576:Middlewares/Third_Party/LwIP/src/core/ipv4/ip4_frag.c ****       /* ipr->iphdr is not the header from the first fragment, but fraghdr is
 577:Middlewares/Third_Party/LwIP/src/core/ipv4/ip4_frag.c ****        * -> copy fraghdr into ipr->iphdr since we want to have the header
 578:Middlewares/Third_Party/LwIP/src/core/ipv4/ip4_frag.c ****        * of the first fragment (for ICMP time exceeded and later, for copying
 579:Middlewares/Third_Party/LwIP/src/core/ipv4/ip4_frag.c ****        * all options, if supported)*/
ARM GAS  /var/folders/bg/n1lwdyp56391g865_v8nrmhm0000gn/T//ccZDTuvB.s 			page 24


 580:Middlewares/Third_Party/LwIP/src/core/ipv4/ip4_frag.c ****       SMEMCPY(&ipr->iphdr, fraghdr, IP_HLEN);
 581:Middlewares/Third_Party/LwIP/src/core/ipv4/ip4_frag.c ****     }
 582:Middlewares/Third_Party/LwIP/src/core/ipv4/ip4_frag.c ****   }
 583:Middlewares/Third_Party/LwIP/src/core/ipv4/ip4_frag.c **** 
 584:Middlewares/Third_Party/LwIP/src/core/ipv4/ip4_frag.c ****   /* At this point, we have either created a new entry or pointing
 585:Middlewares/Third_Party/LwIP/src/core/ipv4/ip4_frag.c ****    * to an existing one */
 586:Middlewares/Third_Party/LwIP/src/core/ipv4/ip4_frag.c **** 
 587:Middlewares/Third_Party/LwIP/src/core/ipv4/ip4_frag.c ****   /* check for 'no more fragments', and update queue entry*/
 588:Middlewares/Third_Party/LwIP/src/core/ipv4/ip4_frag.c ****   is_last = (IPH_OFFSET(fraghdr) & PP_NTOHS(IP_MF)) == 0;
 589:Middlewares/Third_Party/LwIP/src/core/ipv4/ip4_frag.c ****   if (is_last) {
 590:Middlewares/Third_Party/LwIP/src/core/ipv4/ip4_frag.c ****     u16_t datagram_len = (u16_t)(offset + len);
 591:Middlewares/Third_Party/LwIP/src/core/ipv4/ip4_frag.c ****     if ((datagram_len < offset) || (datagram_len > (0xFFFF - IP_HLEN))) {
 592:Middlewares/Third_Party/LwIP/src/core/ipv4/ip4_frag.c ****       /* u16_t overflow, cannot handle this */
 593:Middlewares/Third_Party/LwIP/src/core/ipv4/ip4_frag.c ****       goto nullreturn_ipr;
 594:Middlewares/Third_Party/LwIP/src/core/ipv4/ip4_frag.c ****     }
 595:Middlewares/Third_Party/LwIP/src/core/ipv4/ip4_frag.c ****   }
 596:Middlewares/Third_Party/LwIP/src/core/ipv4/ip4_frag.c ****   /* find the right place to insert this pbuf */
 597:Middlewares/Third_Party/LwIP/src/core/ipv4/ip4_frag.c ****   /* @todo: trim pbufs if fragments are overlapping */
 598:Middlewares/Third_Party/LwIP/src/core/ipv4/ip4_frag.c ****   valid = ip_reass_chain_frag_into_datagram_and_validate(ipr, p, is_last);
 599:Middlewares/Third_Party/LwIP/src/core/ipv4/ip4_frag.c ****   if (valid == IP_REASS_VALIDATE_PBUF_DROPPED) {
 600:Middlewares/Third_Party/LwIP/src/core/ipv4/ip4_frag.c ****     goto nullreturn_ipr;
 601:Middlewares/Third_Party/LwIP/src/core/ipv4/ip4_frag.c ****   }
 602:Middlewares/Third_Party/LwIP/src/core/ipv4/ip4_frag.c ****   /* if we come here, the pbuf has been enqueued */
 603:Middlewares/Third_Party/LwIP/src/core/ipv4/ip4_frag.c **** 
 604:Middlewares/Third_Party/LwIP/src/core/ipv4/ip4_frag.c ****   /* Track the current number of pbufs current 'in-flight', in order to limit
 605:Middlewares/Third_Party/LwIP/src/core/ipv4/ip4_frag.c ****      the number of fragments that may be enqueued at any one time
 606:Middlewares/Third_Party/LwIP/src/core/ipv4/ip4_frag.c ****      (overflow checked by testing against IP_REASS_MAX_PBUFS) */
 607:Middlewares/Third_Party/LwIP/src/core/ipv4/ip4_frag.c ****   ip_reass_pbufcount = (u16_t)(ip_reass_pbufcount + clen);
 608:Middlewares/Third_Party/LwIP/src/core/ipv4/ip4_frag.c ****   if (is_last) {
 609:Middlewares/Third_Party/LwIP/src/core/ipv4/ip4_frag.c ****     u16_t datagram_len = (u16_t)(offset + len);
 610:Middlewares/Third_Party/LwIP/src/core/ipv4/ip4_frag.c ****     ipr->datagram_len = datagram_len;
 611:Middlewares/Third_Party/LwIP/src/core/ipv4/ip4_frag.c ****     ipr->flags |= IP_REASS_FLAG_LASTFRAG;
 612:Middlewares/Third_Party/LwIP/src/core/ipv4/ip4_frag.c ****     LWIP_DEBUGF(IP_REASS_DEBUG,
 613:Middlewares/Third_Party/LwIP/src/core/ipv4/ip4_frag.c ****                 ("ip4_reass: last fragment seen, total len %"S16_F"\n",
 614:Middlewares/Third_Party/LwIP/src/core/ipv4/ip4_frag.c ****                  ipr->datagram_len));
 615:Middlewares/Third_Party/LwIP/src/core/ipv4/ip4_frag.c ****   }
 616:Middlewares/Third_Party/LwIP/src/core/ipv4/ip4_frag.c **** 
 617:Middlewares/Third_Party/LwIP/src/core/ipv4/ip4_frag.c ****   if (valid == IP_REASS_VALIDATE_TELEGRAM_FINISHED) {
 618:Middlewares/Third_Party/LwIP/src/core/ipv4/ip4_frag.c ****     struct ip_reassdata *ipr_prev;
 619:Middlewares/Third_Party/LwIP/src/core/ipv4/ip4_frag.c ****     /* the totally last fragment (flag more fragments = 0) was received at least
 620:Middlewares/Third_Party/LwIP/src/core/ipv4/ip4_frag.c ****      * once AND all fragments are received */
 621:Middlewares/Third_Party/LwIP/src/core/ipv4/ip4_frag.c ****     u16_t datagram_len = (u16_t)(ipr->datagram_len + IP_HLEN);
 622:Middlewares/Third_Party/LwIP/src/core/ipv4/ip4_frag.c **** 
 623:Middlewares/Third_Party/LwIP/src/core/ipv4/ip4_frag.c ****     /* save the second pbuf before copying the header over the pointer */
 624:Middlewares/Third_Party/LwIP/src/core/ipv4/ip4_frag.c ****     r = ((struct ip_reass_helper *)ipr->p->payload)->next_pbuf;
 625:Middlewares/Third_Party/LwIP/src/core/ipv4/ip4_frag.c **** 
 626:Middlewares/Third_Party/LwIP/src/core/ipv4/ip4_frag.c ****     /* copy the original ip header back to the first pbuf */
 627:Middlewares/Third_Party/LwIP/src/core/ipv4/ip4_frag.c ****     fraghdr = (struct ip_hdr *)(ipr->p->payload);
 628:Middlewares/Third_Party/LwIP/src/core/ipv4/ip4_frag.c ****     SMEMCPY(fraghdr, &ipr->iphdr, IP_HLEN);
 629:Middlewares/Third_Party/LwIP/src/core/ipv4/ip4_frag.c ****     IPH_LEN_SET(fraghdr, lwip_htons(datagram_len));
 630:Middlewares/Third_Party/LwIP/src/core/ipv4/ip4_frag.c ****     IPH_OFFSET_SET(fraghdr, 0);
 631:Middlewares/Third_Party/LwIP/src/core/ipv4/ip4_frag.c ****     IPH_CHKSUM_SET(fraghdr, 0);
 632:Middlewares/Third_Party/LwIP/src/core/ipv4/ip4_frag.c ****     /* @todo: do we need to set/calculate the correct checksum? */
 633:Middlewares/Third_Party/LwIP/src/core/ipv4/ip4_frag.c **** #if CHECKSUM_GEN_IP
 634:Middlewares/Third_Party/LwIP/src/core/ipv4/ip4_frag.c ****     IF__NETIF_CHECKSUM_ENABLED(ip_current_input_netif(), NETIF_CHECKSUM_GEN_IP) {
 635:Middlewares/Third_Party/LwIP/src/core/ipv4/ip4_frag.c ****       IPH_CHKSUM_SET(fraghdr, inet_chksum(fraghdr, IP_HLEN));
 636:Middlewares/Third_Party/LwIP/src/core/ipv4/ip4_frag.c ****     }
ARM GAS  /var/folders/bg/n1lwdyp56391g865_v8nrmhm0000gn/T//ccZDTuvB.s 			page 25


 637:Middlewares/Third_Party/LwIP/src/core/ipv4/ip4_frag.c **** #endif /* CHECKSUM_GEN_IP */
 638:Middlewares/Third_Party/LwIP/src/core/ipv4/ip4_frag.c **** 
 639:Middlewares/Third_Party/LwIP/src/core/ipv4/ip4_frag.c ****     p = ipr->p;
 640:Middlewares/Third_Party/LwIP/src/core/ipv4/ip4_frag.c **** 
 641:Middlewares/Third_Party/LwIP/src/core/ipv4/ip4_frag.c ****     /* chain together the pbufs contained within the reass_data list. */
 642:Middlewares/Third_Party/LwIP/src/core/ipv4/ip4_frag.c ****     while (r != NULL) {
 643:Middlewares/Third_Party/LwIP/src/core/ipv4/ip4_frag.c ****       iprh = (struct ip_reass_helper *)r->payload;
 644:Middlewares/Third_Party/LwIP/src/core/ipv4/ip4_frag.c **** 
 645:Middlewares/Third_Party/LwIP/src/core/ipv4/ip4_frag.c ****       /* hide the ip header for every succeeding fragment */
 646:Middlewares/Third_Party/LwIP/src/core/ipv4/ip4_frag.c ****       pbuf_remove_header(r, IP_HLEN);
 647:Middlewares/Third_Party/LwIP/src/core/ipv4/ip4_frag.c ****       pbuf_cat(p, r);
 648:Middlewares/Third_Party/LwIP/src/core/ipv4/ip4_frag.c ****       r = iprh->next_pbuf;
 649:Middlewares/Third_Party/LwIP/src/core/ipv4/ip4_frag.c ****     }
 650:Middlewares/Third_Party/LwIP/src/core/ipv4/ip4_frag.c **** 
 651:Middlewares/Third_Party/LwIP/src/core/ipv4/ip4_frag.c ****     /* find the previous entry in the linked list */
 652:Middlewares/Third_Party/LwIP/src/core/ipv4/ip4_frag.c ****     if (ipr == reassdatagrams) {
 653:Middlewares/Third_Party/LwIP/src/core/ipv4/ip4_frag.c ****       ipr_prev = NULL;
 654:Middlewares/Third_Party/LwIP/src/core/ipv4/ip4_frag.c ****     } else {
 655:Middlewares/Third_Party/LwIP/src/core/ipv4/ip4_frag.c ****       for (ipr_prev = reassdatagrams; ipr_prev != NULL; ipr_prev = ipr_prev->next) {
 656:Middlewares/Third_Party/LwIP/src/core/ipv4/ip4_frag.c ****         if (ipr_prev->next == ipr) {
 657:Middlewares/Third_Party/LwIP/src/core/ipv4/ip4_frag.c ****           break;
 658:Middlewares/Third_Party/LwIP/src/core/ipv4/ip4_frag.c ****         }
 659:Middlewares/Third_Party/LwIP/src/core/ipv4/ip4_frag.c ****       }
 660:Middlewares/Third_Party/LwIP/src/core/ipv4/ip4_frag.c ****     }
 661:Middlewares/Third_Party/LwIP/src/core/ipv4/ip4_frag.c **** 
 662:Middlewares/Third_Party/LwIP/src/core/ipv4/ip4_frag.c ****     /* release the sources allocate for the fragment queue entry */
 663:Middlewares/Third_Party/LwIP/src/core/ipv4/ip4_frag.c ****     ip_reass_dequeue_datagram(ipr, ipr_prev);
 664:Middlewares/Third_Party/LwIP/src/core/ipv4/ip4_frag.c **** 
 665:Middlewares/Third_Party/LwIP/src/core/ipv4/ip4_frag.c ****     /* and adjust the number of pbufs currently queued for reassembly. */
 666:Middlewares/Third_Party/LwIP/src/core/ipv4/ip4_frag.c ****     clen = pbuf_clen(p);
 667:Middlewares/Third_Party/LwIP/src/core/ipv4/ip4_frag.c ****     LWIP_ASSERT("ip_reass_pbufcount >= clen", ip_reass_pbufcount >= clen);
 668:Middlewares/Third_Party/LwIP/src/core/ipv4/ip4_frag.c ****     ip_reass_pbufcount = (u16_t)(ip_reass_pbufcount - clen);
 669:Middlewares/Third_Party/LwIP/src/core/ipv4/ip4_frag.c **** 
 670:Middlewares/Third_Party/LwIP/src/core/ipv4/ip4_frag.c ****     MIB2_STATS_INC(mib2.ipreasmoks);
 671:Middlewares/Third_Party/LwIP/src/core/ipv4/ip4_frag.c **** 
 672:Middlewares/Third_Party/LwIP/src/core/ipv4/ip4_frag.c ****     /* Return the pbuf chain */
 673:Middlewares/Third_Party/LwIP/src/core/ipv4/ip4_frag.c ****     return p;
 674:Middlewares/Third_Party/LwIP/src/core/ipv4/ip4_frag.c ****   }
 675:Middlewares/Third_Party/LwIP/src/core/ipv4/ip4_frag.c ****   /* the datagram is not (yet?) reassembled completely */
 676:Middlewares/Third_Party/LwIP/src/core/ipv4/ip4_frag.c ****   LWIP_DEBUGF(IP_REASS_DEBUG, ("ip_reass_pbufcount: %d out\n", ip_reass_pbufcount));
 677:Middlewares/Third_Party/LwIP/src/core/ipv4/ip4_frag.c ****   return NULL;
 678:Middlewares/Third_Party/LwIP/src/core/ipv4/ip4_frag.c **** 
 679:Middlewares/Third_Party/LwIP/src/core/ipv4/ip4_frag.c **** nullreturn_ipr:
 680:Middlewares/Third_Party/LwIP/src/core/ipv4/ip4_frag.c ****   LWIP_ASSERT("ipr != NULL", ipr != NULL);
 681:Middlewares/Third_Party/LwIP/src/core/ipv4/ip4_frag.c ****   if (ipr->p == NULL) {
 682:Middlewares/Third_Party/LwIP/src/core/ipv4/ip4_frag.c ****     /* dropped pbuf after creating a new datagram entry: remove the entry, too */
 683:Middlewares/Third_Party/LwIP/src/core/ipv4/ip4_frag.c ****     LWIP_ASSERT("not firstalthough just enqueued", ipr == reassdatagrams);
 684:Middlewares/Third_Party/LwIP/src/core/ipv4/ip4_frag.c ****     ip_reass_dequeue_datagram(ipr, NULL);
 685:Middlewares/Third_Party/LwIP/src/core/ipv4/ip4_frag.c ****   }
 686:Middlewares/Third_Party/LwIP/src/core/ipv4/ip4_frag.c **** 
 687:Middlewares/Third_Party/LwIP/src/core/ipv4/ip4_frag.c **** nullreturn:
 688:Middlewares/Third_Party/LwIP/src/core/ipv4/ip4_frag.c ****   LWIP_DEBUGF(IP_REASS_DEBUG, ("ip4_reass: nullreturn\n"));
 689:Middlewares/Third_Party/LwIP/src/core/ipv4/ip4_frag.c ****   IPFRAG_STATS_INC(ip_frag.drop);
 690:Middlewares/Third_Party/LwIP/src/core/ipv4/ip4_frag.c ****   pbuf_free(p);
 691:Middlewares/Third_Party/LwIP/src/core/ipv4/ip4_frag.c ****   return NULL;
 692:Middlewares/Third_Party/LwIP/src/core/ipv4/ip4_frag.c **** }
 693:Middlewares/Third_Party/LwIP/src/core/ipv4/ip4_frag.c **** #endif /* IP_REASSEMBLY */
ARM GAS  /var/folders/bg/n1lwdyp56391g865_v8nrmhm0000gn/T//ccZDTuvB.s 			page 26


 694:Middlewares/Third_Party/LwIP/src/core/ipv4/ip4_frag.c **** 
 695:Middlewares/Third_Party/LwIP/src/core/ipv4/ip4_frag.c **** #if IP_FRAG
 696:Middlewares/Third_Party/LwIP/src/core/ipv4/ip4_frag.c **** #if !LWIP_NETIF_TX_SINGLE_PBUF
 697:Middlewares/Third_Party/LwIP/src/core/ipv4/ip4_frag.c **** /** Allocate a new struct pbuf_custom_ref */
 698:Middlewares/Third_Party/LwIP/src/core/ipv4/ip4_frag.c **** static struct pbuf_custom_ref *
 699:Middlewares/Third_Party/LwIP/src/core/ipv4/ip4_frag.c **** ip_frag_alloc_pbuf_custom_ref(void)
 700:Middlewares/Third_Party/LwIP/src/core/ipv4/ip4_frag.c **** {
 701:Middlewares/Third_Party/LwIP/src/core/ipv4/ip4_frag.c ****   return (struct pbuf_custom_ref *)memp_malloc(MEMP_FRAG_PBUF);
 702:Middlewares/Third_Party/LwIP/src/core/ipv4/ip4_frag.c **** }
 703:Middlewares/Third_Party/LwIP/src/core/ipv4/ip4_frag.c **** 
 704:Middlewares/Third_Party/LwIP/src/core/ipv4/ip4_frag.c **** /** Free a struct pbuf_custom_ref */
 705:Middlewares/Third_Party/LwIP/src/core/ipv4/ip4_frag.c **** static void
 706:Middlewares/Third_Party/LwIP/src/core/ipv4/ip4_frag.c **** ip_frag_free_pbuf_custom_ref(struct pbuf_custom_ref *p)
 707:Middlewares/Third_Party/LwIP/src/core/ipv4/ip4_frag.c **** {
 565              		.loc 1 707 1 is_stmt 1 view -0
 566              		.cfi_startproc
 567              		@ args = 0, pretend = 0, frame = 0
 568              		@ frame_needed = 0, uses_anonymous_args = 0
 569              		.loc 1 707 1 is_stmt 0 view .LVU162
 570 0000 10B5     		push	{r4, lr}
 571              	.LCFI3:
 572              		.cfi_def_cfa_offset 8
 573              		.cfi_offset 4, -8
 574              		.cfi_offset 14, -4
 708:Middlewares/Third_Party/LwIP/src/core/ipv4/ip4_frag.c ****   LWIP_ASSERT("p != NULL", p != NULL);
 575              		.loc 1 708 3 is_stmt 1 view .LVU163
 576              		.loc 1 708 3 view .LVU164
 577 0002 0446     		mov	r4, r0
 578 0004 20B1     		cbz	r0, .L46
 579              	.LVL60:
 580              	.L44:
 581              		.loc 1 708 3 discriminator 3 view .LVU165
 582              		.loc 1 708 3 discriminator 3 view .LVU166
 709:Middlewares/Third_Party/LwIP/src/core/ipv4/ip4_frag.c ****   memp_free(MEMP_FRAG_PBUF, p);
 583              		.loc 1 709 3 discriminator 3 view .LVU167
 584 0006 2146     		mov	r1, r4
 585 0008 0520     		movs	r0, #5
 586 000a FFF7FEFF 		bl	memp_free
 587              	.LVL61:
 710:Middlewares/Third_Party/LwIP/src/core/ipv4/ip4_frag.c **** }
 588              		.loc 1 710 1 is_stmt 0 discriminator 3 view .LVU168
 589 000e 10BD     		pop	{r4, pc}
 590              	.LVL62:
 591              	.L46:
 708:Middlewares/Third_Party/LwIP/src/core/ipv4/ip4_frag.c ****   LWIP_ASSERT("p != NULL", p != NULL);
 592              		.loc 1 708 3 is_stmt 1 discriminator 1 view .LVU169
 708:Middlewares/Third_Party/LwIP/src/core/ipv4/ip4_frag.c ****   LWIP_ASSERT("p != NULL", p != NULL);
 593              		.loc 1 708 3 discriminator 1 view .LVU170
 594 0010 034B     		ldr	r3, .L47
 595 0012 4FF43172 		mov	r2, #708
 596 0016 0349     		ldr	r1, .L47+4
 597 0018 0348     		ldr	r0, .L47+8
 598              	.LVL63:
 708:Middlewares/Third_Party/LwIP/src/core/ipv4/ip4_frag.c ****   LWIP_ASSERT("p != NULL", p != NULL);
 599              		.loc 1 708 3 is_stmt 0 discriminator 1 view .LVU171
 600 001a FFF7FEFF 		bl	printf
 601              	.LVL64:
ARM GAS  /var/folders/bg/n1lwdyp56391g865_v8nrmhm0000gn/T//ccZDTuvB.s 			page 27


 602 001e F2E7     		b	.L44
 603              	.L48:
 604              		.align	2
 605              	.L47:
 606 0020 00000000 		.word	.LC0
 607 0024 00000000 		.word	.LC7
 608 0028 54000000 		.word	.LC2
 609              		.cfi_endproc
 610              	.LFE175:
 612              		.section	.rodata.ipfrag_free_pbuf_custom.str1.4,"aMS",%progbits,1
 613              		.align	2
 614              	.LC8:
 615 0000 70637220 		.ascii	"pcr != NULL\000"
 615      213D204E 
 615      554C4C00 
 616              		.section	.text.ipfrag_free_pbuf_custom,"ax",%progbits
 617              		.align	1
 618              		.syntax unified
 619              		.thumb
 620              		.thumb_func
 621              		.fpu fpv5-d16
 623              	ipfrag_free_pbuf_custom:
 624              	.LVL65:
 625              	.LFB176:
 711:Middlewares/Third_Party/LwIP/src/core/ipv4/ip4_frag.c **** 
 712:Middlewares/Third_Party/LwIP/src/core/ipv4/ip4_frag.c **** /** Free-callback function to free a 'struct pbuf_custom_ref', called by
 713:Middlewares/Third_Party/LwIP/src/core/ipv4/ip4_frag.c ****  * pbuf_free. */
 714:Middlewares/Third_Party/LwIP/src/core/ipv4/ip4_frag.c **** static void
 715:Middlewares/Third_Party/LwIP/src/core/ipv4/ip4_frag.c **** ipfrag_free_pbuf_custom(struct pbuf *p)
 716:Middlewares/Third_Party/LwIP/src/core/ipv4/ip4_frag.c **** {
 626              		.loc 1 716 1 is_stmt 1 view -0
 627              		.cfi_startproc
 628              		@ args = 0, pretend = 0, frame = 0
 629              		@ frame_needed = 0, uses_anonymous_args = 0
 630              		.loc 1 716 1 is_stmt 0 view .LVU173
 631 0000 10B5     		push	{r4, lr}
 632              	.LCFI4:
 633              		.cfi_def_cfa_offset 8
 634              		.cfi_offset 4, -8
 635              		.cfi_offset 14, -4
 717:Middlewares/Third_Party/LwIP/src/core/ipv4/ip4_frag.c ****   struct pbuf_custom_ref *pcr = (struct pbuf_custom_ref *)p;
 636              		.loc 1 717 3 is_stmt 1 view .LVU174
 637              	.LVL66:
 718:Middlewares/Third_Party/LwIP/src/core/ipv4/ip4_frag.c ****   LWIP_ASSERT("pcr != NULL", pcr != NULL);
 638              		.loc 1 718 3 view .LVU175
 639              		.loc 1 718 3 view .LVU176
 640 0002 0446     		mov	r4, r0
 641 0004 38B1     		cbz	r0, .L53
 642              	.LVL67:
 643              	.L50:
 644              		.loc 1 718 3 discriminator 3 view .LVU177
 645              		.loc 1 718 3 discriminator 3 view .LVU178
 719:Middlewares/Third_Party/LwIP/src/core/ipv4/ip4_frag.c ****   LWIP_ASSERT("pcr == p", (void *)pcr == (void *)p);
 646              		.loc 1 719 3 discriminator 3 view .LVU179
 647              		.loc 1 719 3 discriminator 3 view .LVU180
 648              		.loc 1 719 3 discriminator 3 view .LVU181
 649              		.loc 1 719 3 discriminator 3 view .LVU182
ARM GAS  /var/folders/bg/n1lwdyp56391g865_v8nrmhm0000gn/T//ccZDTuvB.s 			page 28


 720:Middlewares/Third_Party/LwIP/src/core/ipv4/ip4_frag.c ****   if (pcr->original != NULL) {
 650              		.loc 1 720 3 discriminator 3 view .LVU183
 651              		.loc 1 720 10 is_stmt 0 discriminator 3 view .LVU184
 652 0006 6069     		ldr	r0, [r4, #20]
 653              		.loc 1 720 6 discriminator 3 view .LVU185
 654 0008 08B1     		cbz	r0, .L51
 721:Middlewares/Third_Party/LwIP/src/core/ipv4/ip4_frag.c ****     pbuf_free(pcr->original);
 655              		.loc 1 721 5 is_stmt 1 view .LVU186
 656 000a FFF7FEFF 		bl	pbuf_free
 657              	.LVL68:
 658              	.L51:
 722:Middlewares/Third_Party/LwIP/src/core/ipv4/ip4_frag.c ****   }
 723:Middlewares/Third_Party/LwIP/src/core/ipv4/ip4_frag.c ****   ip_frag_free_pbuf_custom_ref(pcr);
 659              		.loc 1 723 3 view .LVU187
 660 000e 2046     		mov	r0, r4
 661 0010 FFF7FEFF 		bl	ip_frag_free_pbuf_custom_ref
 662              	.LVL69:
 724:Middlewares/Third_Party/LwIP/src/core/ipv4/ip4_frag.c **** }
 663              		.loc 1 724 1 is_stmt 0 view .LVU188
 664 0014 10BD     		pop	{r4, pc}
 665              	.LVL70:
 666              	.L53:
 718:Middlewares/Third_Party/LwIP/src/core/ipv4/ip4_frag.c ****   LWIP_ASSERT("pcr == p", (void *)pcr == (void *)p);
 667              		.loc 1 718 3 is_stmt 1 discriminator 1 view .LVU189
 718:Middlewares/Third_Party/LwIP/src/core/ipv4/ip4_frag.c ****   LWIP_ASSERT("pcr == p", (void *)pcr == (void *)p);
 668              		.loc 1 718 3 discriminator 1 view .LVU190
 669 0016 044B     		ldr	r3, .L54
 670 0018 40F2CE22 		movw	r2, #718
 671 001c 0349     		ldr	r1, .L54+4
 672 001e 0448     		ldr	r0, .L54+8
 673              	.LVL71:
 718:Middlewares/Third_Party/LwIP/src/core/ipv4/ip4_frag.c ****   LWIP_ASSERT("pcr == p", (void *)pcr == (void *)p);
 674              		.loc 1 718 3 is_stmt 0 discriminator 1 view .LVU191
 675 0020 FFF7FEFF 		bl	printf
 676              	.LVL72:
 677 0024 EFE7     		b	.L50
 678              	.L55:
 679 0026 00BF     		.align	2
 680              	.L54:
 681 0028 00000000 		.word	.LC0
 682 002c 00000000 		.word	.LC8
 683 0030 54000000 		.word	.LC2
 684              		.cfi_endproc
 685              	.LFE176:
 687              		.section	.rodata.ip_reass_chain_frag_into_datagram_and_validate.str1.4,"aMS",%progbits,1
 688              		.align	2
 689              	.LC9:
 690 0000 63686563 		.ascii	"check fragments don't overlap\000"
 690      6B206672 
 690      61676D65 
 690      6E747320 
 690      646F6E27 
 691 001e 0000     		.align	2
 692              	.LC10:
 693 0020 6E6F2070 		.ascii	"no previous fragment, this must be the first fragme"
 693      72657669 
 693      6F757320 
ARM GAS  /var/folders/bg/n1lwdyp56391g865_v8nrmhm0000gn/T//ccZDTuvB.s 			page 29


 693      66726167 
 693      6D656E74 
 694 0053 6E742100 		.ascii	"nt!\000"
 695 0057 00       		.align	2
 696              	.LC11:
 697 0058 73616E69 		.ascii	"sanity check\000"
 697      74792063 
 697      6865636B 
 697      00
 698 0065 000000   		.align	2
 699              	.LC12:
 700 0068 76616C69 		.ascii	"validate_datagram:next_pbuf!=NULL\000"
 700      64617465 
 700      5F646174 
 700      61677261 
 700      6D3A6E65 
 701              		.section	.text.ip_reass_chain_frag_into_datagram_and_validate,"ax",%progbits
 702              		.align	1
 703              		.syntax unified
 704              		.thumb
 705              		.thumb_func
 706              		.fpu fpv5-d16
 708              	ip_reass_chain_frag_into_datagram_and_validate:
 709              	.LVL73:
 710              	.LFB172:
 345:Middlewares/Third_Party/LwIP/src/core/ipv4/ip4_frag.c ****   struct ip_reass_helper *iprh, *iprh_tmp, *iprh_prev = NULL;
 711              		.loc 1 345 1 is_stmt 1 view -0
 712              		.cfi_startproc
 713              		@ args = 0, pretend = 0, frame = 0
 714              		@ frame_needed = 0, uses_anonymous_args = 0
 345:Middlewares/Third_Party/LwIP/src/core/ipv4/ip4_frag.c ****   struct ip_reass_helper *iprh, *iprh_tmp, *iprh_prev = NULL;
 715              		.loc 1 345 1 is_stmt 0 view .LVU193
 716 0000 2DE9F843 		push	{r3, r4, r5, r6, r7, r8, r9, lr}
 717              	.LCFI5:
 718              		.cfi_def_cfa_offset 32
 719              		.cfi_offset 3, -32
 720              		.cfi_offset 4, -28
 721              		.cfi_offset 5, -24
 722              		.cfi_offset 6, -20
 723              		.cfi_offset 7, -16
 724              		.cfi_offset 8, -12
 725              		.cfi_offset 9, -8
 726              		.cfi_offset 14, -4
 727 0004 8046     		mov	r8, r0
 728 0006 0D46     		mov	r5, r1
 729 0008 9146     		mov	r9, r2
 346:Middlewares/Third_Party/LwIP/src/core/ipv4/ip4_frag.c ****   struct pbuf *q;
 730              		.loc 1 346 3 is_stmt 1 view .LVU194
 731              	.LVL74:
 347:Middlewares/Third_Party/LwIP/src/core/ipv4/ip4_frag.c ****   u16_t offset, len;
 732              		.loc 1 347 3 view .LVU195
 348:Middlewares/Third_Party/LwIP/src/core/ipv4/ip4_frag.c ****   u8_t hlen;
 733              		.loc 1 348 3 view .LVU196
 349:Middlewares/Third_Party/LwIP/src/core/ipv4/ip4_frag.c ****   struct ip_hdr *fraghdr;
 734              		.loc 1 349 3 view .LVU197
 350:Middlewares/Third_Party/LwIP/src/core/ipv4/ip4_frag.c ****   int valid = 1;
 735              		.loc 1 350 3 view .LVU198
ARM GAS  /var/folders/bg/n1lwdyp56391g865_v8nrmhm0000gn/T//ccZDTuvB.s 			page 30


 351:Middlewares/Third_Party/LwIP/src/core/ipv4/ip4_frag.c **** 
 736              		.loc 1 351 3 view .LVU199
 354:Middlewares/Third_Party/LwIP/src/core/ipv4/ip4_frag.c ****   len = lwip_ntohs(IPH_LEN(fraghdr));
 737              		.loc 1 354 3 view .LVU200
 354:Middlewares/Third_Party/LwIP/src/core/ipv4/ip4_frag.c ****   len = lwip_ntohs(IPH_LEN(fraghdr));
 738              		.loc 1 354 11 is_stmt 0 view .LVU201
 739 000a 4C68     		ldr	r4, [r1, #4]
 740              	.LVL75:
 355:Middlewares/Third_Party/LwIP/src/core/ipv4/ip4_frag.c ****   hlen = IPH_HL_BYTES(fraghdr);
 741              		.loc 1 355 3 is_stmt 1 view .LVU202
 355:Middlewares/Third_Party/LwIP/src/core/ipv4/ip4_frag.c ****   hlen = IPH_HL_BYTES(fraghdr);
 742              		.loc 1 355 9 is_stmt 0 view .LVU203
 743 000c 6088     		ldrh	r0, [r4, #2]	@ unaligned
 744              	.LVL76:
 355:Middlewares/Third_Party/LwIP/src/core/ipv4/ip4_frag.c ****   hlen = IPH_HL_BYTES(fraghdr);
 745              		.loc 1 355 9 view .LVU204
 746 000e FFF7FEFF 		bl	lwip_htons
 747              	.LVL77:
 356:Middlewares/Third_Party/LwIP/src/core/ipv4/ip4_frag.c ****   if (hlen > len) {
 748              		.loc 1 356 3 is_stmt 1 view .LVU205
 356:Middlewares/Third_Party/LwIP/src/core/ipv4/ip4_frag.c ****   if (hlen > len) {
 749              		.loc 1 356 10 is_stmt 0 view .LVU206
 750 0012 2378     		ldrb	r3, [r4]	@ zero_extendqisi2
 751 0014 03F00F03 		and	r3, r3, #15
 752              	.LVL78:
 357:Middlewares/Third_Party/LwIP/src/core/ipv4/ip4_frag.c ****     /* invalid datagram */
 753              		.loc 1 357 3 is_stmt 1 view .LVU207
 357:Middlewares/Third_Party/LwIP/src/core/ipv4/ip4_frag.c ****     /* invalid datagram */
 754              		.loc 1 357 6 is_stmt 0 view .LVU208
 755 0018 B0EB830F 		cmp	r0, r3, lsl #2
 756 001c 03D2     		bcs	.L89
 359:Middlewares/Third_Party/LwIP/src/core/ipv4/ip4_frag.c ****   }
 757              		.loc 1 359 12 view .LVU209
 758 001e 4FF0FF30 		mov	r0, #-1
 759              	.LVL79:
 760              	.L56:
 494:Middlewares/Third_Party/LwIP/src/core/ipv4/ip4_frag.c **** 
 761              		.loc 1 494 1 view .LVU210
 762 0022 BDE8F883 		pop	{r3, r4, r5, r6, r7, r8, r9, pc}
 763              	.LVL80:
 764              	.L89:
 494:Middlewares/Third_Party/LwIP/src/core/ipv4/ip4_frag.c **** 
 765              		.loc 1 494 1 view .LVU211
 766 0026 9A00     		lsls	r2, r3, #2
 361:Middlewares/Third_Party/LwIP/src/core/ipv4/ip4_frag.c ****   offset = IPH_OFFSET_BYTES(fraghdr);
 767              		.loc 1 361 3 is_stmt 1 view .LVU212
 361:Middlewares/Third_Party/LwIP/src/core/ipv4/ip4_frag.c ****   offset = IPH_OFFSET_BYTES(fraghdr);
 768              		.loc 1 361 7 is_stmt 0 view .LVU213
 769 0028 801A     		subs	r0, r0, r2
 770              	.LVL81:
 361:Middlewares/Third_Party/LwIP/src/core/ipv4/ip4_frag.c ****   offset = IPH_OFFSET_BYTES(fraghdr);
 771              		.loc 1 361 7 view .LVU214
 772 002a 87B2     		uxth	r7, r0
 773              	.LVL82:
 362:Middlewares/Third_Party/LwIP/src/core/ipv4/ip4_frag.c **** 
 774              		.loc 1 362 3 is_stmt 1 view .LVU215
 362:Middlewares/Third_Party/LwIP/src/core/ipv4/ip4_frag.c **** 
ARM GAS  /var/folders/bg/n1lwdyp56391g865_v8nrmhm0000gn/T//ccZDTuvB.s 			page 31


 775              		.loc 1 362 12 is_stmt 0 view .LVU216
 776 002c E088     		ldrh	r0, [r4, #6]	@ unaligned
 777 002e FFF7FEFF 		bl	lwip_htons
 778              	.LVL83:
 362:Middlewares/Third_Party/LwIP/src/core/ipv4/ip4_frag.c **** 
 779              		.loc 1 362 12 view .LVU217
 780 0032 C0F30C0C 		ubfx	ip, r0, #0, #13
 362:Middlewares/Third_Party/LwIP/src/core/ipv4/ip4_frag.c **** 
 781              		.loc 1 362 10 view .LVU218
 782 0036 4FEACC0C 		lsl	ip, ip, #3
 783              	.LVL84:
 367:Middlewares/Third_Party/LwIP/src/core/ipv4/ip4_frag.c ****               sizeof(struct ip_reass_helper) <= IP_HLEN);
 784              		.loc 1 367 3 is_stmt 1 view .LVU219
 367:Middlewares/Third_Party/LwIP/src/core/ipv4/ip4_frag.c ****               sizeof(struct ip_reass_helper) <= IP_HLEN);
 785              		.loc 1 367 3 view .LVU220
 367:Middlewares/Third_Party/LwIP/src/core/ipv4/ip4_frag.c ****               sizeof(struct ip_reass_helper) <= IP_HLEN);
 786              		.loc 1 367 3 view .LVU221
 367:Middlewares/Third_Party/LwIP/src/core/ipv4/ip4_frag.c ****               sizeof(struct ip_reass_helper) <= IP_HLEN);
 787              		.loc 1 367 3 view .LVU222
 369:Middlewares/Third_Party/LwIP/src/core/ipv4/ip4_frag.c ****   iprh->next_pbuf = NULL;
 788              		.loc 1 369 3 view .LVU223
 369:Middlewares/Third_Party/LwIP/src/core/ipv4/ip4_frag.c ****   iprh->next_pbuf = NULL;
 789              		.loc 1 369 8 is_stmt 0 view .LVU224
 790 003a 6E68     		ldr	r6, [r5, #4]
 791              	.LVL85:
 370:Middlewares/Third_Party/LwIP/src/core/ipv4/ip4_frag.c ****   iprh->start = offset;
 792              		.loc 1 370 3 is_stmt 1 view .LVU225
 370:Middlewares/Third_Party/LwIP/src/core/ipv4/ip4_frag.c ****   iprh->start = offset;
 793              		.loc 1 370 19 is_stmt 0 view .LVU226
 794 003c 0023     		movs	r3, #0
 795 003e 3370     		strb	r3, [r6]
 796 0040 7370     		strb	r3, [r6, #1]
 797 0042 B370     		strb	r3, [r6, #2]
 798 0044 F370     		strb	r3, [r6, #3]
 371:Middlewares/Third_Party/LwIP/src/core/ipv4/ip4_frag.c ****   iprh->end = (u16_t)(offset + len);
 799              		.loc 1 371 3 is_stmt 1 view .LVU227
 371:Middlewares/Third_Party/LwIP/src/core/ipv4/ip4_frag.c ****   iprh->end = (u16_t)(offset + len);
 800              		.loc 1 371 15 is_stmt 0 view .LVU228
 801 0046 A6F804C0 		strh	ip, [r6, #4]	@ unaligned
 372:Middlewares/Third_Party/LwIP/src/core/ipv4/ip4_frag.c ****   if (iprh->end < offset) {
 802              		.loc 1 372 3 is_stmt 1 view .LVU229
 372:Middlewares/Third_Party/LwIP/src/core/ipv4/ip4_frag.c ****   if (iprh->end < offset) {
 803              		.loc 1 372 15 is_stmt 0 view .LVU230
 804 004a 07EB0C00 		add	r0, r7, ip
 805 004e 1FFA80FE 		uxth	lr, r0
 372:Middlewares/Third_Party/LwIP/src/core/ipv4/ip4_frag.c ****   if (iprh->end < offset) {
 806              		.loc 1 372 13 view .LVU231
 807 0052 F080     		strh	r0, [r6, #6]	@ unaligned
 373:Middlewares/Third_Party/LwIP/src/core/ipv4/ip4_frag.c ****     /* u16_t overflow, cannot handle this */
 808              		.loc 1 373 3 is_stmt 1 view .LVU232
 373:Middlewares/Third_Party/LwIP/src/core/ipv4/ip4_frag.c ****     /* u16_t overflow, cannot handle this */
 809              		.loc 1 373 6 is_stmt 0 view .LVU233
 810 0054 E645     		cmp	lr, ip
 811 0056 C0F08580 		bcc	.L75
 380:Middlewares/Third_Party/LwIP/src/core/ipv4/ip4_frag.c ****     iprh_tmp = (struct ip_reass_helper *)q->payload;
 812              		.loc 1 380 3 is_stmt 1 view .LVU234
 380:Middlewares/Third_Party/LwIP/src/core/ipv4/ip4_frag.c ****     iprh_tmp = (struct ip_reass_helper *)q->payload;
ARM GAS  /var/folders/bg/n1lwdyp56391g865_v8nrmhm0000gn/T//ccZDTuvB.s 			page 32


 813              		.loc 1 380 10 is_stmt 0 view .LVU235
 814 005a D8F80410 		ldr	r1, [r8, #4]
 815              	.LVL86:
 351:Middlewares/Third_Party/LwIP/src/core/ipv4/ip4_frag.c **** 
 816              		.loc 1 351 7 view .LVU236
 817 005e 0127     		movs	r7, #1
 818              	.LVL87:
 346:Middlewares/Third_Party/LwIP/src/core/ipv4/ip4_frag.c ****   struct pbuf *q;
 819              		.loc 1 346 45 view .LVU237
 820 0060 1C46     		mov	r4, r3
 821              	.LVL88:
 380:Middlewares/Third_Party/LwIP/src/core/ipv4/ip4_frag.c ****     iprh_tmp = (struct ip_reass_helper *)q->payload;
 822              		.loc 1 380 3 view .LVU238
 823 0062 1FE0     		b	.L58
 824              	.LVL89:
 825              	.L91:
 384:Middlewares/Third_Party/LwIP/src/core/ipv4/ip4_frag.c ****       if (iprh_prev != NULL) {
 826              		.loc 1 384 7 is_stmt 1 view .LVU239
 384:Middlewares/Third_Party/LwIP/src/core/ipv4/ip4_frag.c ****       if (iprh_prev != NULL) {
 827              		.loc 1 384 23 is_stmt 0 view .LVU240
 828 0064 3160     		str	r1, [r6]	@ unaligned
 385:Middlewares/Third_Party/LwIP/src/core/ipv4/ip4_frag.c ****         /* not the fragment with the lowest offset */
 829              		.loc 1 385 7 is_stmt 1 view .LVU241
 385:Middlewares/Third_Party/LwIP/src/core/ipv4/ip4_frag.c ****         /* not the fragment with the lowest offset */
 830              		.loc 1 385 10 is_stmt 0 view .LVU242
 831 0066 ACB1     		cbz	r4, .L60
 388:Middlewares/Third_Party/LwIP/src/core/ipv4/ip4_frag.c ****           /* fragment overlaps with previous or following, throw away */
 832              		.loc 1 388 9 is_stmt 1 view .LVU243
 388:Middlewares/Third_Party/LwIP/src/core/ipv4/ip4_frag.c ****           /* fragment overlaps with previous or following, throw away */
 833              		.loc 1 388 37 is_stmt 0 view .LVU244
 834 0068 E288     		ldrh	r2, [r4, #6]	@ unaligned
 388:Middlewares/Third_Party/LwIP/src/core/ipv4/ip4_frag.c ****           /* fragment overlaps with previous or following, throw away */
 835              		.loc 1 388 12 view .LVU245
 836 006a 6245     		cmp	r2, ip
 837 006c 7DD8     		bhi	.L76
 388:Middlewares/Third_Party/LwIP/src/core/ipv4/ip4_frag.c ****           /* fragment overlaps with previous or following, throw away */
 838              		.loc 1 388 68 discriminator 1 view .LVU246
 839 006e 9B88     		ldrh	r3, [r3, #4]	@ unaligned
 840              	.LVL90:
 388:Middlewares/Third_Party/LwIP/src/core/ipv4/ip4_frag.c ****           /* fragment overlaps with previous or following, throw away */
 841              		.loc 1 388 44 discriminator 1 view .LVU247
 842 0070 9E45     		cmp	lr, r3
 843 0072 7DD8     		bhi	.L77
 393:Middlewares/Third_Party/LwIP/src/core/ipv4/ip4_frag.c ****         if (iprh_prev->end != iprh->start) {
 844              		.loc 1 393 9 is_stmt 1 view .LVU248
 393:Middlewares/Third_Party/LwIP/src/core/ipv4/ip4_frag.c ****         if (iprh_prev->end != iprh->start) {
 845              		.loc 1 393 30 is_stmt 0 view .LVU249
 846 0074 2560     		str	r5, [r4]	@ unaligned
 394:Middlewares/Third_Party/LwIP/src/core/ipv4/ip4_frag.c ****           /* There is a fragment missing between the current
 847              		.loc 1 394 9 is_stmt 1 view .LVU250
 394:Middlewares/Third_Party/LwIP/src/core/ipv4/ip4_frag.c ****           /* There is a fragment missing between the current
 848              		.loc 1 394 35 is_stmt 0 view .LVU251
 849 0076 B388     		ldrh	r3, [r6, #4]	@ unaligned
 394:Middlewares/Third_Party/LwIP/src/core/ipv4/ip4_frag.c ****           /* There is a fragment missing between the current
 850              		.loc 1 394 12 view .LVU252
 851 0078 9A42     		cmp	r2, r3
 852 007a 00D0     		beq	.L61
ARM GAS  /var/folders/bg/n1lwdyp56391g865_v8nrmhm0000gn/T//ccZDTuvB.s 			page 33


 397:Middlewares/Third_Party/LwIP/src/core/ipv4/ip4_frag.c ****         }
 853              		.loc 1 397 17 view .LVU253
 854 007c 0027     		movs	r7, #0
 855              	.LVL91:
 856              	.L61:
 433:Middlewares/Third_Party/LwIP/src/core/ipv4/ip4_frag.c ****     if (iprh_prev != NULL) {
 857              		.loc 1 433 3 is_stmt 1 view .LVU254
 433:Middlewares/Third_Party/LwIP/src/core/ipv4/ip4_frag.c ****     if (iprh_prev != NULL) {
 858              		.loc 1 433 6 is_stmt 0 view .LVU255
 859 007e 19B3     		cbz	r1, .L90
 860              	.LVL92:
 861              	.L64:
 456:Middlewares/Third_Party/LwIP/src/core/ipv4/ip4_frag.c ****     /* and had no holes so far */
 862              		.loc 1 456 3 is_stmt 1 view .LVU256
 456:Middlewares/Third_Party/LwIP/src/core/ipv4/ip4_frag.c ****     /* and had no holes so far */
 863              		.loc 1 456 6 is_stmt 0 view .LVU257
 864 0080 B9F1000F 		cmp	r9, #0
 865 0084 41D1     		bne	.L68
 456:Middlewares/Third_Party/LwIP/src/core/ipv4/ip4_frag.c ****     /* and had no holes so far */
 866              		.loc 1 456 23 discriminator 1 view .LVU258
 867 0086 98F81E30 		ldrb	r3, [r8, #30]	@ zero_extendqisi2
 456:Middlewares/Third_Party/LwIP/src/core/ipv4/ip4_frag.c ****     /* and had no holes so far */
 868              		.loc 1 456 15 discriminator 1 view .LVU259
 869 008a 13F0010F 		tst	r3, #1
 870 008e 3CD1     		bne	.L68
 493:Middlewares/Third_Party/LwIP/src/core/ipv4/ip4_frag.c **** }
 871              		.loc 1 493 10 view .LVU260
 872 0090 4846     		mov	r0, r9
 873 0092 C6E7     		b	.L56
 874              	.LVL93:
 875              	.L60:
 401:Middlewares/Third_Party/LwIP/src/core/ipv4/ip4_frag.c ****           /* fragment overlaps with following, throw away */
 876              		.loc 1 401 9 is_stmt 1 view .LVU261
 401:Middlewares/Third_Party/LwIP/src/core/ipv4/ip4_frag.c ****           /* fragment overlaps with following, throw away */
 877              		.loc 1 401 33 is_stmt 0 view .LVU262
 878 0094 9B88     		ldrh	r3, [r3, #4]	@ unaligned
 879              	.LVL94:
 401:Middlewares/Third_Party/LwIP/src/core/ipv4/ip4_frag.c ****           /* fragment overlaps with following, throw away */
 880              		.loc 1 401 12 view .LVU263
 881 0096 9E45     		cmp	lr, r3
 882 0098 6DD8     		bhi	.L79
 407:Middlewares/Third_Party/LwIP/src/core/ipv4/ip4_frag.c ****       }
 883              		.loc 1 407 9 is_stmt 1 view .LVU264
 407:Middlewares/Third_Party/LwIP/src/core/ipv4/ip4_frag.c ****       }
 884              		.loc 1 407 16 is_stmt 0 view .LVU265
 885 009a C8F80450 		str	r5, [r8, #4]
 886 009e EEE7     		b	.L61
 887              	.LVL95:
 888              	.L62:
 428:Middlewares/Third_Party/LwIP/src/core/ipv4/ip4_frag.c ****     iprh_prev = iprh_tmp;
 889              		.loc 1 428 5 is_stmt 1 view .LVU266
 428:Middlewares/Third_Party/LwIP/src/core/ipv4/ip4_frag.c ****     iprh_prev = iprh_tmp;
 890              		.loc 1 428 7 is_stmt 0 view .LVU267
 891 00a0 1968     		ldr	r1, [r3]	@ unaligned
 892              	.LVL96:
 429:Middlewares/Third_Party/LwIP/src/core/ipv4/ip4_frag.c ****   }
 893              		.loc 1 429 5 is_stmt 1 view .LVU268
ARM GAS  /var/folders/bg/n1lwdyp56391g865_v8nrmhm0000gn/T//ccZDTuvB.s 			page 34


 429:Middlewares/Third_Party/LwIP/src/core/ipv4/ip4_frag.c ****   }
 894              		.loc 1 429 15 is_stmt 0 view .LVU269
 895 00a2 1C46     		mov	r4, r3
 896              	.LVL97:
 897              	.L58:
 380:Middlewares/Third_Party/LwIP/src/core/ipv4/ip4_frag.c ****     iprh_tmp = (struct ip_reass_helper *)q->payload;
 898              		.loc 1 380 20 is_stmt 1 discriminator 1 view .LVU270
 380:Middlewares/Third_Party/LwIP/src/core/ipv4/ip4_frag.c ****     iprh_tmp = (struct ip_reass_helper *)q->payload;
 899              		.loc 1 380 3 is_stmt 0 discriminator 1 view .LVU271
 900 00a4 0029     		cmp	r1, #0
 901 00a6 EAD0     		beq	.L61
 381:Middlewares/Third_Party/LwIP/src/core/ipv4/ip4_frag.c ****     if (iprh->start < iprh_tmp->start) {
 902              		.loc 1 381 5 is_stmt 1 view .LVU272
 381:Middlewares/Third_Party/LwIP/src/core/ipv4/ip4_frag.c ****     if (iprh->start < iprh_tmp->start) {
 903              		.loc 1 381 14 is_stmt 0 view .LVU273
 904 00a8 4B68     		ldr	r3, [r1, #4]
 905              	.LVL98:
 382:Middlewares/Third_Party/LwIP/src/core/ipv4/ip4_frag.c ****       /* the new pbuf should be inserted before this */
 906              		.loc 1 382 5 is_stmt 1 view .LVU274
 382:Middlewares/Third_Party/LwIP/src/core/ipv4/ip4_frag.c ****       /* the new pbuf should be inserted before this */
 907              		.loc 1 382 31 is_stmt 0 view .LVU275
 908 00aa 9A88     		ldrh	r2, [r3, #4]	@ unaligned
 382:Middlewares/Third_Party/LwIP/src/core/ipv4/ip4_frag.c ****       /* the new pbuf should be inserted before this */
 909              		.loc 1 382 8 view .LVU276
 910 00ac 6245     		cmp	r2, ip
 911 00ae D9D8     		bhi	.L91
 410:Middlewares/Third_Party/LwIP/src/core/ipv4/ip4_frag.c ****       /* received the same datagram twice: no need to keep the datagram */
 912              		.loc 1 410 12 is_stmt 1 view .LVU277
 410:Middlewares/Third_Party/LwIP/src/core/ipv4/ip4_frag.c ****       /* received the same datagram twice: no need to keep the datagram */
 913              		.loc 1 410 15 is_stmt 0 view .LVU278
 914 00b0 6245     		cmp	r2, ip
 915 00b2 63D0     		beq	.L80
 414:Middlewares/Third_Party/LwIP/src/core/ipv4/ip4_frag.c ****       /* overlap: no need to keep the new datagram */
 916              		.loc 1 414 12 is_stmt 1 view .LVU279
 414:Middlewares/Third_Party/LwIP/src/core/ipv4/ip4_frag.c ****       /* overlap: no need to keep the new datagram */
 917              		.loc 1 414 38 is_stmt 0 view .LVU280
 918 00b4 D988     		ldrh	r1, [r3, #6]	@ unaligned
 919              	.LVL99:
 414:Middlewares/Third_Party/LwIP/src/core/ipv4/ip4_frag.c ****       /* overlap: no need to keep the new datagram */
 920              		.loc 1 414 15 view .LVU281
 921 00b6 6145     		cmp	r1, ip
 922 00b8 63D8     		bhi	.L81
 420:Middlewares/Third_Party/LwIP/src/core/ipv4/ip4_frag.c ****         if (iprh_prev->end != iprh_tmp->start) {
 923              		.loc 1 420 7 is_stmt 1 view .LVU282
 420:Middlewares/Third_Party/LwIP/src/core/ipv4/ip4_frag.c ****         if (iprh_prev->end != iprh_tmp->start) {
 924              		.loc 1 420 10 is_stmt 0 view .LVU283
 925 00ba 002C     		cmp	r4, #0
 926 00bc F0D0     		beq	.L62
 421:Middlewares/Third_Party/LwIP/src/core/ipv4/ip4_frag.c ****           /* There is a fragment missing between the current
 927              		.loc 1 421 9 is_stmt 1 view .LVU284
 421:Middlewares/Third_Party/LwIP/src/core/ipv4/ip4_frag.c ****           /* There is a fragment missing between the current
 928              		.loc 1 421 22 is_stmt 0 view .LVU285
 929 00be E188     		ldrh	r1, [r4, #6]	@ unaligned
 421:Middlewares/Third_Party/LwIP/src/core/ipv4/ip4_frag.c ****           /* There is a fragment missing between the current
 930              		.loc 1 421 12 view .LVU286
 931 00c0 8A42     		cmp	r2, r1
 932 00c2 EDD0     		beq	.L62
ARM GAS  /var/folders/bg/n1lwdyp56391g865_v8nrmhm0000gn/T//ccZDTuvB.s 			page 35


 424:Middlewares/Third_Party/LwIP/src/core/ipv4/ip4_frag.c ****         }
 933              		.loc 1 424 17 view .LVU287
 934 00c4 0027     		movs	r7, #0
 935              	.LVL100:
 424:Middlewares/Third_Party/LwIP/src/core/ipv4/ip4_frag.c ****         }
 936              		.loc 1 424 17 view .LVU288
 937 00c6 EBE7     		b	.L62
 938              	.LVL101:
 939              	.L90:
 434:Middlewares/Third_Party/LwIP/src/core/ipv4/ip4_frag.c ****       /* this is (for now), the fragment with the highest offset:
 940              		.loc 1 434 5 is_stmt 1 view .LVU289
 434:Middlewares/Third_Party/LwIP/src/core/ipv4/ip4_frag.c ****       /* this is (for now), the fragment with the highest offset:
 941              		.loc 1 434 8 is_stmt 0 view .LVU290
 942 00c8 94B1     		cbz	r4, .L65
 438:Middlewares/Third_Party/LwIP/src/core/ipv4/ip4_frag.c **** #endif /* IP_REASS_CHECK_OVERLAP */
 943              		.loc 1 438 7 is_stmt 1 view .LVU291
 438:Middlewares/Third_Party/LwIP/src/core/ipv4/ip4_frag.c **** #endif /* IP_REASS_CHECK_OVERLAP */
 944              		.loc 1 438 7 view .LVU292
 945 00ca E288     		ldrh	r2, [r4, #6]	@ unaligned
 946 00cc B388     		ldrh	r3, [r6, #4]	@ unaligned
 947 00ce 9A42     		cmp	r2, r3
 948 00d0 06D8     		bhi	.L92
 949              	.LVL102:
 950              	.L66:
 438:Middlewares/Third_Party/LwIP/src/core/ipv4/ip4_frag.c **** #endif /* IP_REASS_CHECK_OVERLAP */
 951              		.loc 1 438 7 discriminator 3 view .LVU293
 438:Middlewares/Third_Party/LwIP/src/core/ipv4/ip4_frag.c **** #endif /* IP_REASS_CHECK_OVERLAP */
 952              		.loc 1 438 7 discriminator 3 view .LVU294
 440:Middlewares/Third_Party/LwIP/src/core/ipv4/ip4_frag.c ****       if (iprh_prev->end != iprh->start) {
 953              		.loc 1 440 7 discriminator 3 view .LVU295
 440:Middlewares/Third_Party/LwIP/src/core/ipv4/ip4_frag.c ****       if (iprh_prev->end != iprh->start) {
 954              		.loc 1 440 28 is_stmt 0 discriminator 3 view .LVU296
 955 00d2 2560     		str	r5, [r4]	@ unaligned
 441:Middlewares/Third_Party/LwIP/src/core/ipv4/ip4_frag.c ****         valid = 0;
 956              		.loc 1 441 7 is_stmt 1 discriminator 3 view .LVU297
 441:Middlewares/Third_Party/LwIP/src/core/ipv4/ip4_frag.c ****         valid = 0;
 957              		.loc 1 441 20 is_stmt 0 discriminator 3 view .LVU298
 958 00d4 E288     		ldrh	r2, [r4, #6]	@ unaligned
 441:Middlewares/Third_Party/LwIP/src/core/ipv4/ip4_frag.c ****         valid = 0;
 959              		.loc 1 441 33 discriminator 3 view .LVU299
 960 00d6 B388     		ldrh	r3, [r6, #4]	@ unaligned
 441:Middlewares/Third_Party/LwIP/src/core/ipv4/ip4_frag.c ****         valid = 0;
 961              		.loc 1 441 10 discriminator 3 view .LVU300
 962 00d8 9A42     		cmp	r2, r3
 963 00da D1D0     		beq	.L64
 442:Middlewares/Third_Party/LwIP/src/core/ipv4/ip4_frag.c ****       }
 964              		.loc 1 442 15 view .LVU301
 965 00dc 0027     		movs	r7, #0
 966              	.LVL103:
 442:Middlewares/Third_Party/LwIP/src/core/ipv4/ip4_frag.c ****       }
 967              		.loc 1 442 15 view .LVU302
 968 00de CFE7     		b	.L64
 969              	.LVL104:
 970              	.L92:
 438:Middlewares/Third_Party/LwIP/src/core/ipv4/ip4_frag.c **** #endif /* IP_REASS_CHECK_OVERLAP */
 971              		.loc 1 438 7 is_stmt 1 discriminator 1 view .LVU303
 438:Middlewares/Third_Party/LwIP/src/core/ipv4/ip4_frag.c **** #endif /* IP_REASS_CHECK_OVERLAP */
ARM GAS  /var/folders/bg/n1lwdyp56391g865_v8nrmhm0000gn/T//ccZDTuvB.s 			page 36


 972              		.loc 1 438 7 discriminator 1 view .LVU304
 973 00e0 294B     		ldr	r3, .L94
 974 00e2 4FF4DB72 		mov	r2, #438
 975 00e6 2949     		ldr	r1, .L94+4
 976              	.LVL105:
 438:Middlewares/Third_Party/LwIP/src/core/ipv4/ip4_frag.c **** #endif /* IP_REASS_CHECK_OVERLAP */
 977              		.loc 1 438 7 is_stmt 0 discriminator 1 view .LVU305
 978 00e8 2948     		ldr	r0, .L94+8
 979 00ea FFF7FEFF 		bl	printf
 980              	.LVL106:
 438:Middlewares/Third_Party/LwIP/src/core/ipv4/ip4_frag.c **** #endif /* IP_REASS_CHECK_OVERLAP */
 981              		.loc 1 438 7 discriminator 1 view .LVU306
 982 00ee F0E7     		b	.L66
 983              	.LVL107:
 984              	.L65:
 446:Middlewares/Third_Party/LwIP/src/core/ipv4/ip4_frag.c ****                   ipr->p == NULL);
 985              		.loc 1 446 7 is_stmt 1 view .LVU307
 446:Middlewares/Third_Party/LwIP/src/core/ipv4/ip4_frag.c ****                   ipr->p == NULL);
 986              		.loc 1 446 7 view .LVU308
 987 00f0 D8F80430 		ldr	r3, [r8, #4]
 988 00f4 33B1     		cbz	r3, .L67
 446:Middlewares/Third_Party/LwIP/src/core/ipv4/ip4_frag.c ****                   ipr->p == NULL);
 989              		.loc 1 446 7 discriminator 1 view .LVU309
 446:Middlewares/Third_Party/LwIP/src/core/ipv4/ip4_frag.c ****                   ipr->p == NULL);
 990              		.loc 1 446 7 discriminator 1 view .LVU310
 991 00f6 244B     		ldr	r3, .L94
 992 00f8 4FF4DF72 		mov	r2, #446
 993 00fc 2549     		ldr	r1, .L94+12
 994              	.LVL108:
 446:Middlewares/Third_Party/LwIP/src/core/ipv4/ip4_frag.c ****                   ipr->p == NULL);
 995              		.loc 1 446 7 is_stmt 0 discriminator 1 view .LVU311
 996 00fe 2448     		ldr	r0, .L94+8
 997 0100 FFF7FEFF 		bl	printf
 998              	.LVL109:
 999              	.L67:
 446:Middlewares/Third_Party/LwIP/src/core/ipv4/ip4_frag.c ****                   ipr->p == NULL);
 1000              		.loc 1 446 7 is_stmt 1 discriminator 3 view .LVU312
 446:Middlewares/Third_Party/LwIP/src/core/ipv4/ip4_frag.c ****                   ipr->p == NULL);
 1001              		.loc 1 446 7 discriminator 3 view .LVU313
 450:Middlewares/Third_Party/LwIP/src/core/ipv4/ip4_frag.c ****     }
 1002              		.loc 1 450 7 discriminator 3 view .LVU314
 450:Middlewares/Third_Party/LwIP/src/core/ipv4/ip4_frag.c ****     }
 1003              		.loc 1 450 14 is_stmt 0 discriminator 3 view .LVU315
 1004 0104 C8F80450 		str	r5, [r8, #4]
 1005 0108 BAE7     		b	.L64
 1006              	.L68:
 458:Middlewares/Third_Party/LwIP/src/core/ipv4/ip4_frag.c ****       /* then check if the rest of the fragments is here */
 1007              		.loc 1 458 5 is_stmt 1 view .LVU316
 458:Middlewares/Third_Party/LwIP/src/core/ipv4/ip4_frag.c ****       /* then check if the rest of the fragments is here */
 1008              		.loc 1 458 8 is_stmt 0 view .LVU317
 1009 010a 4FB3     		cbz	r7, .L69
 461:Middlewares/Third_Party/LwIP/src/core/ipv4/ip4_frag.c ****         valid = 0;
 1010              		.loc 1 461 7 is_stmt 1 view .LVU318
 461:Middlewares/Third_Party/LwIP/src/core/ipv4/ip4_frag.c ****         valid = 0;
 1011              		.loc 1 461 15 is_stmt 0 view .LVU319
 1012 010c D8F80430 		ldr	r3, [r8, #4]
 461:Middlewares/Third_Party/LwIP/src/core/ipv4/ip4_frag.c ****         valid = 0;
ARM GAS  /var/folders/bg/n1lwdyp56391g865_v8nrmhm0000gn/T//ccZDTuvB.s 			page 37


 1013              		.loc 1 461 10 view .LVU320
 1014 0110 1BB3     		cbz	r3, .L85
 461:Middlewares/Third_Party/LwIP/src/core/ipv4/ip4_frag.c ****         valid = 0;
 1015              		.loc 1 461 65 discriminator 1 view .LVU321
 1016 0112 5868     		ldr	r0, [r3, #4]
 461:Middlewares/Third_Party/LwIP/src/core/ipv4/ip4_frag.c ****         valid = 0;
 1017              		.loc 1 461 75 discriminator 1 view .LVU322
 1018 0114 8388     		ldrh	r3, [r0, #4]	@ unaligned
 461:Middlewares/Third_Party/LwIP/src/core/ipv4/ip4_frag.c ****         valid = 0;
 1019              		.loc 1 461 28 discriminator 1 view .LVU323
 1020 0116 13BB     		cbnz	r3, .L86
 465:Middlewares/Third_Party/LwIP/src/core/ipv4/ip4_frag.c ****         q = iprh->next_pbuf;
 1021              		.loc 1 465 9 is_stmt 1 view .LVU324
 1022              	.LVL110:
 466:Middlewares/Third_Party/LwIP/src/core/ipv4/ip4_frag.c ****         while (q != NULL) {
 1023              		.loc 1 466 9 view .LVU325
 466:Middlewares/Third_Party/LwIP/src/core/ipv4/ip4_frag.c ****         while (q != NULL) {
 1024              		.loc 1 466 11 is_stmt 0 view .LVU326
 1025 0118 3268     		ldr	r2, [r6]	@ unaligned
 1026              	.LVL111:
 467:Middlewares/Third_Party/LwIP/src/core/ipv4/ip4_frag.c ****           iprh = (struct ip_reass_helper *)q->payload;
 1027              		.loc 1 467 9 is_stmt 1 view .LVU327
 1028              	.L70:
 467:Middlewares/Third_Party/LwIP/src/core/ipv4/ip4_frag.c ****           iprh = (struct ip_reass_helper *)q->payload;
 1029              		.loc 1 467 15 view .LVU328
 1030 011a 4AB1     		cbz	r2, .L71
 468:Middlewares/Third_Party/LwIP/src/core/ipv4/ip4_frag.c ****           if (iprh_prev->end != iprh->start) {
 1031              		.loc 1 468 11 view .LVU329
 468:Middlewares/Third_Party/LwIP/src/core/ipv4/ip4_frag.c ****           if (iprh_prev->end != iprh->start) {
 1032              		.loc 1 468 16 is_stmt 0 view .LVU330
 1033 011c 5368     		ldr	r3, [r2, #4]
 1034              	.LVL112:
 469:Middlewares/Third_Party/LwIP/src/core/ipv4/ip4_frag.c ****             valid = 0;
 1035              		.loc 1 469 11 is_stmt 1 view .LVU331
 469:Middlewares/Third_Party/LwIP/src/core/ipv4/ip4_frag.c ****             valid = 0;
 1036              		.loc 1 469 24 is_stmt 0 view .LVU332
 1037 011e F188     		ldrh	r1, [r6, #6]	@ unaligned
 469:Middlewares/Third_Party/LwIP/src/core/ipv4/ip4_frag.c ****             valid = 0;
 1038              		.loc 1 469 37 view .LVU333
 1039 0120 9A88     		ldrh	r2, [r3, #4]	@ unaligned
 1040              	.LVL113:
 469:Middlewares/Third_Party/LwIP/src/core/ipv4/ip4_frag.c ****             valid = 0;
 1041              		.loc 1 469 14 view .LVU334
 1042 0122 9142     		cmp	r1, r2
 1043 0124 02D1     		bne	.L87
 473:Middlewares/Third_Party/LwIP/src/core/ipv4/ip4_frag.c ****           q = iprh->next_pbuf;
 1044              		.loc 1 473 11 is_stmt 1 view .LVU335
 1045              	.LVL114:
 474:Middlewares/Third_Party/LwIP/src/core/ipv4/ip4_frag.c ****         }
 1046              		.loc 1 474 11 view .LVU336
 474:Middlewares/Third_Party/LwIP/src/core/ipv4/ip4_frag.c ****         }
 1047              		.loc 1 474 13 is_stmt 0 view .LVU337
 1048 0126 1A68     		ldr	r2, [r3]	@ unaligned
 1049              	.LVL115:
 468:Middlewares/Third_Party/LwIP/src/core/ipv4/ip4_frag.c ****           if (iprh_prev->end != iprh->start) {
 1050              		.loc 1 468 16 view .LVU338
 1051 0128 1E46     		mov	r6, r3
ARM GAS  /var/folders/bg/n1lwdyp56391g865_v8nrmhm0000gn/T//ccZDTuvB.s 			page 38


 1052 012a F6E7     		b	.L70
 1053              	.LVL116:
 1054              	.L87:
 468:Middlewares/Third_Party/LwIP/src/core/ipv4/ip4_frag.c ****           if (iprh_prev->end != iprh->start) {
 1055              		.loc 1 468 16 view .LVU339
 1056 012c 1E46     		mov	r6, r3
 1057              	.LVL117:
 470:Middlewares/Third_Party/LwIP/src/core/ipv4/ip4_frag.c ****             break;
 1058              		.loc 1 470 19 view .LVU340
 1059 012e 0027     		movs	r7, #0
 1060              	.LVL118:
 1061              	.L71:
 478:Middlewares/Third_Party/LwIP/src/core/ipv4/ip4_frag.c ****           LWIP_ASSERT("sanity check", ipr->p != NULL);
 1062              		.loc 1 478 9 is_stmt 1 view .LVU341
 478:Middlewares/Third_Party/LwIP/src/core/ipv4/ip4_frag.c ****           LWIP_ASSERT("sanity check", ipr->p != NULL);
 1063              		.loc 1 478 12 is_stmt 0 view .LVU342
 1064 0130 B7B1     		cbz	r7, .L69
 479:Middlewares/Third_Party/LwIP/src/core/ipv4/ip4_frag.c ****           LWIP_ASSERT("sanity check",
 1065              		.loc 1 479 11 is_stmt 1 discriminator 3 view .LVU343
 479:Middlewares/Third_Party/LwIP/src/core/ipv4/ip4_frag.c ****           LWIP_ASSERT("sanity check",
 1066              		.loc 1 479 11 discriminator 3 view .LVU344
 479:Middlewares/Third_Party/LwIP/src/core/ipv4/ip4_frag.c ****           LWIP_ASSERT("sanity check",
 1067              		.loc 1 479 11 discriminator 3 view .LVU345
 479:Middlewares/Third_Party/LwIP/src/core/ipv4/ip4_frag.c ****           LWIP_ASSERT("sanity check",
 1068              		.loc 1 479 11 discriminator 3 view .LVU346
 480:Middlewares/Third_Party/LwIP/src/core/ipv4/ip4_frag.c ****                       ((struct ip_reass_helper *)ipr->p->payload) != iprh);
 1069              		.loc 1 480 11 discriminator 3 view .LVU347
 480:Middlewares/Third_Party/LwIP/src/core/ipv4/ip4_frag.c ****                       ((struct ip_reass_helper *)ipr->p->payload) != iprh);
 1070              		.loc 1 480 11 discriminator 3 view .LVU348
 1071 0132 B042     		cmp	r0, r6
 1072 0134 09D0     		beq	.L93
 1073              	.L73:
 480:Middlewares/Third_Party/LwIP/src/core/ipv4/ip4_frag.c ****                       ((struct ip_reass_helper *)ipr->p->payload) != iprh);
 1074              		.loc 1 480 11 discriminator 3 view .LVU349
 480:Middlewares/Third_Party/LwIP/src/core/ipv4/ip4_frag.c ****                       ((struct ip_reass_helper *)ipr->p->payload) != iprh);
 1075              		.loc 1 480 11 discriminator 3 view .LVU350
 482:Middlewares/Third_Party/LwIP/src/core/ipv4/ip4_frag.c ****                       iprh->next_pbuf == NULL);
 1076              		.loc 1 482 11 discriminator 3 view .LVU351
 482:Middlewares/Third_Party/LwIP/src/core/ipv4/ip4_frag.c ****                       iprh->next_pbuf == NULL);
 1077              		.loc 1 482 11 discriminator 3 view .LVU352
 1078 0136 3368     		ldr	r3, [r6]	@ unaligned
 1079 0138 93B1     		cbz	r3, .L69
 482:Middlewares/Third_Party/LwIP/src/core/ipv4/ip4_frag.c ****                       iprh->next_pbuf == NULL);
 1080              		.loc 1 482 11 discriminator 1 view .LVU353
 482:Middlewares/Third_Party/LwIP/src/core/ipv4/ip4_frag.c ****                       iprh->next_pbuf == NULL);
 1081              		.loc 1 482 11 discriminator 1 view .LVU354
 1082 013a 134B     		ldr	r3, .L94
 1083 013c 4FF4F172 		mov	r2, #482
 1084 0140 1549     		ldr	r1, .L94+16
 1085 0142 1348     		ldr	r0, .L94+8
 1086 0144 FFF7FEFF 		bl	printf
 1087              	.LVL119:
 1088 0148 0AE0     		b	.L69
 1089              	.L93:
 480:Middlewares/Third_Party/LwIP/src/core/ipv4/ip4_frag.c ****                       ((struct ip_reass_helper *)ipr->p->payload) != iprh);
 1090              		.loc 1 480 11 discriminator 1 view .LVU355
 480:Middlewares/Third_Party/LwIP/src/core/ipv4/ip4_frag.c ****                       ((struct ip_reass_helper *)ipr->p->payload) != iprh);
ARM GAS  /var/folders/bg/n1lwdyp56391g865_v8nrmhm0000gn/T//ccZDTuvB.s 			page 39


 1091              		.loc 1 480 11 discriminator 1 view .LVU356
 1092 014a 0F4B     		ldr	r3, .L94
 1093 014c 4FF4F072 		mov	r2, #480
 1094 0150 1249     		ldr	r1, .L94+20
 1095 0152 0F48     		ldr	r0, .L94+8
 1096 0154 FFF7FEFF 		bl	printf
 1097              	.LVL120:
 1098 0158 EDE7     		b	.L73
 1099              	.LVL121:
 1100              	.L85:
 462:Middlewares/Third_Party/LwIP/src/core/ipv4/ip4_frag.c ****       } else {
 1101              		.loc 1 462 15 is_stmt 0 view .LVU357
 1102 015a 0027     		movs	r7, #0
 1103              	.LVL122:
 462:Middlewares/Third_Party/LwIP/src/core/ipv4/ip4_frag.c ****       } else {
 1104              		.loc 1 462 15 view .LVU358
 1105 015c 00E0     		b	.L69
 1106              	.LVL123:
 1107              	.L86:
 462:Middlewares/Third_Party/LwIP/src/core/ipv4/ip4_frag.c ****       } else {
 1108              		.loc 1 462 15 view .LVU359
 1109 015e 0027     		movs	r7, #0
 1110              	.LVL124:
 1111              	.L69:
 482:Middlewares/Third_Party/LwIP/src/core/ipv4/ip4_frag.c ****                       iprh->next_pbuf == NULL);
 1112              		.loc 1 482 11 is_stmt 1 discriminator 3 view .LVU360
 482:Middlewares/Third_Party/LwIP/src/core/ipv4/ip4_frag.c ****                       iprh->next_pbuf == NULL);
 1113              		.loc 1 482 11 discriminator 3 view .LVU361
 490:Middlewares/Third_Party/LwIP/src/core/ipv4/ip4_frag.c ****   }
 1114              		.loc 1 490 5 discriminator 3 view .LVU362
 490:Middlewares/Third_Party/LwIP/src/core/ipv4/ip4_frag.c ****   }
 1115              		.loc 1 490 56 is_stmt 0 discriminator 3 view .LVU363
 1116 0160 3846     		mov	r0, r7
 1117 0162 5EE7     		b	.L56
 1118              	.LVL125:
 1119              	.L75:
 375:Middlewares/Third_Party/LwIP/src/core/ipv4/ip4_frag.c ****   }
 1120              		.loc 1 375 12 view .LVU364
 1121 0164 4FF0FF30 		mov	r0, #-1
 1122 0168 5BE7     		b	.L56
 1123              	.LVL126:
 1124              	.L76:
 390:Middlewares/Third_Party/LwIP/src/core/ipv4/ip4_frag.c ****         }
 1125              		.loc 1 390 18 view .LVU365
 1126 016a 4FF0FF30 		mov	r0, #-1
 1127 016e 58E7     		b	.L56
 1128              	.LVL127:
 1129              	.L77:
 390:Middlewares/Third_Party/LwIP/src/core/ipv4/ip4_frag.c ****         }
 1130              		.loc 1 390 18 view .LVU366
 1131 0170 4FF0FF30 		mov	r0, #-1
 1132 0174 55E7     		b	.L56
 1133              	.L79:
 403:Middlewares/Third_Party/LwIP/src/core/ipv4/ip4_frag.c ****         }
 1134              		.loc 1 403 18 view .LVU367
 1135 0176 4FF0FF30 		mov	r0, #-1
 1136 017a 52E7     		b	.L56
ARM GAS  /var/folders/bg/n1lwdyp56391g865_v8nrmhm0000gn/T//ccZDTuvB.s 			page 40


 1137              	.LVL128:
 1138              	.L80:
 412:Middlewares/Third_Party/LwIP/src/core/ipv4/ip4_frag.c **** #if IP_REASS_CHECK_OVERLAP
 1139              		.loc 1 412 14 view .LVU368
 1140 017c 4FF0FF30 		mov	r0, #-1
 1141 0180 4FE7     		b	.L56
 1142              	.LVL129:
 1143              	.L81:
 416:Middlewares/Third_Party/LwIP/src/core/ipv4/ip4_frag.c **** #endif /* IP_REASS_CHECK_OVERLAP */
 1144              		.loc 1 416 14 view .LVU369
 1145 0182 4FF0FF30 		mov	r0, #-1
 1146 0186 4CE7     		b	.L56
 1147              	.L95:
 1148              		.align	2
 1149              	.L94:
 1150 0188 00000000 		.word	.LC0
 1151 018c 00000000 		.word	.LC9
 1152 0190 54000000 		.word	.LC2
 1153 0194 20000000 		.word	.LC10
 1154 0198 68000000 		.word	.LC12
 1155 019c 58000000 		.word	.LC11
 1156              		.cfi_endproc
 1157              	.LFE172:
 1159              		.section	.text.ip_frag_alloc_pbuf_custom_ref,"ax",%progbits
 1160              		.align	1
 1161              		.syntax unified
 1162              		.thumb
 1163              		.thumb_func
 1164              		.fpu fpv5-d16
 1166              	ip_frag_alloc_pbuf_custom_ref:
 1167              	.LFB174:
 700:Middlewares/Third_Party/LwIP/src/core/ipv4/ip4_frag.c ****   return (struct pbuf_custom_ref *)memp_malloc(MEMP_FRAG_PBUF);
 1168              		.loc 1 700 1 is_stmt 1 view -0
 1169              		.cfi_startproc
 1170              		@ args = 0, pretend = 0, frame = 0
 1171              		@ frame_needed = 0, uses_anonymous_args = 0
 1172 0000 08B5     		push	{r3, lr}
 1173              	.LCFI6:
 1174              		.cfi_def_cfa_offset 8
 1175              		.cfi_offset 3, -8
 1176              		.cfi_offset 14, -4
 701:Middlewares/Third_Party/LwIP/src/core/ipv4/ip4_frag.c **** }
 1177              		.loc 1 701 3 view .LVU371
 701:Middlewares/Third_Party/LwIP/src/core/ipv4/ip4_frag.c **** }
 1178              		.loc 1 701 36 is_stmt 0 view .LVU372
 1179 0002 0520     		movs	r0, #5
 1180 0004 FFF7FEFF 		bl	memp_malloc
 1181              	.LVL130:
 702:Middlewares/Third_Party/LwIP/src/core/ipv4/ip4_frag.c **** 
 1182              		.loc 1 702 1 view .LVU373
 1183 0008 08BD     		pop	{r3, pc}
 1184              		.cfi_endproc
 1185              	.LFE174:
 1187              		.section	.text.ip_reass_enqueue_new_datagram,"ax",%progbits
 1188              		.align	1
 1189              		.syntax unified
 1190              		.thumb
ARM GAS  /var/folders/bg/n1lwdyp56391g865_v8nrmhm0000gn/T//ccZDTuvB.s 			page 41


 1191              		.thumb_func
 1192              		.fpu fpv5-d16
 1194              	ip_reass_enqueue_new_datagram:
 1195              	.LVL131:
 1196              	.LFB170:
 279:Middlewares/Third_Party/LwIP/src/core/ipv4/ip4_frag.c ****   struct ip_reassdata *ipr;
 1197              		.loc 1 279 1 is_stmt 1 view -0
 1198              		.cfi_startproc
 1199              		@ args = 0, pretend = 0, frame = 0
 1200              		@ frame_needed = 0, uses_anonymous_args = 0
 279:Middlewares/Third_Party/LwIP/src/core/ipv4/ip4_frag.c ****   struct ip_reassdata *ipr;
 1201              		.loc 1 279 1 is_stmt 0 view .LVU375
 1202 0000 70B5     		push	{r4, r5, r6, lr}
 1203              	.LCFI7:
 1204              		.cfi_def_cfa_offset 16
 1205              		.cfi_offset 4, -16
 1206              		.cfi_offset 5, -12
 1207              		.cfi_offset 6, -8
 1208              		.cfi_offset 14, -4
 1209 0002 0546     		mov	r5, r0
 1210 0004 0E46     		mov	r6, r1
 280:Middlewares/Third_Party/LwIP/src/core/ipv4/ip4_frag.c **** #if ! IP_REASS_FREE_OLDEST
 1211              		.loc 1 280 3 is_stmt 1 view .LVU376
 286:Middlewares/Third_Party/LwIP/src/core/ipv4/ip4_frag.c ****   if (ipr == NULL) {
 1212              		.loc 1 286 3 view .LVU377
 286:Middlewares/Third_Party/LwIP/src/core/ipv4/ip4_frag.c ****   if (ipr == NULL) {
 1213              		.loc 1 286 32 is_stmt 0 view .LVU378
 1214 0006 0420     		movs	r0, #4
 1215              	.LVL132:
 286:Middlewares/Third_Party/LwIP/src/core/ipv4/ip4_frag.c ****   if (ipr == NULL) {
 1216              		.loc 1 286 32 view .LVU379
 1217 0008 FFF7FEFF 		bl	memp_malloc
 1218              	.LVL133:
 287:Middlewares/Third_Party/LwIP/src/core/ipv4/ip4_frag.c **** #if IP_REASS_FREE_OLDEST
 1219              		.loc 1 287 3 is_stmt 1 view .LVU380
 287:Middlewares/Third_Party/LwIP/src/core/ipv4/ip4_frag.c **** #if IP_REASS_FREE_OLDEST
 1220              		.loc 1 287 6 is_stmt 0 view .LVU381
 1221 000c 0446     		mov	r4, r0
 1222 000e B0B1     		cbz	r0, .L103
 1223              	.LVL134:
 1224              	.L99:
 300:Middlewares/Third_Party/LwIP/src/core/ipv4/ip4_frag.c ****   ipr->timer = IP_REASS_MAXAGE;
 1225              		.loc 1 300 3 is_stmt 1 view .LVU382
 1226 0010 2022     		movs	r2, #32
 1227 0012 0021     		movs	r1, #0
 1228 0014 2046     		mov	r0, r4
 1229 0016 FFF7FEFF 		bl	memset
 1230              	.LVL135:
 301:Middlewares/Third_Party/LwIP/src/core/ipv4/ip4_frag.c **** 
 1231              		.loc 1 301 3 view .LVU383
 301:Middlewares/Third_Party/LwIP/src/core/ipv4/ip4_frag.c **** 
 1232              		.loc 1 301 14 is_stmt 0 view .LVU384
 1233 001a 0F23     		movs	r3, #15
 1234 001c E377     		strb	r3, [r4, #31]
 304:Middlewares/Third_Party/LwIP/src/core/ipv4/ip4_frag.c ****   reassdatagrams = ipr;
 1235              		.loc 1 304 3 is_stmt 1 view .LVU385
 304:Middlewares/Third_Party/LwIP/src/core/ipv4/ip4_frag.c ****   reassdatagrams = ipr;
ARM GAS  /var/folders/bg/n1lwdyp56391g865_v8nrmhm0000gn/T//ccZDTuvB.s 			page 42


 1236              		.loc 1 304 13 is_stmt 0 view .LVU386
 1237 001e 0F4B     		ldr	r3, .L105
 1238 0020 1A68     		ldr	r2, [r3]
 1239 0022 2260     		str	r2, [r4]
 305:Middlewares/Third_Party/LwIP/src/core/ipv4/ip4_frag.c ****   /* copy the ip header for later tests and input */
 1240              		.loc 1 305 3 is_stmt 1 view .LVU387
 305:Middlewares/Third_Party/LwIP/src/core/ipv4/ip4_frag.c ****   /* copy the ip header for later tests and input */
 1241              		.loc 1 305 18 is_stmt 0 view .LVU388
 1242 0024 1C60     		str	r4, [r3]
 308:Middlewares/Third_Party/LwIP/src/core/ipv4/ip4_frag.c ****   return ipr;
 1243              		.loc 1 308 3 is_stmt 1 view .LVU389
 1244 0026 2B68     		ldr	r3, [r5]	@ unaligned
 1245 0028 6868     		ldr	r0, [r5, #4]	@ unaligned
 1246 002a A968     		ldr	r1, [r5, #8]	@ unaligned
 1247 002c EA68     		ldr	r2, [r5, #12]	@ unaligned
 1248 002e A360     		str	r3, [r4, #8]	@ unaligned
 1249 0030 E060     		str	r0, [r4, #12]	@ unaligned
 1250 0032 2161     		str	r1, [r4, #16]	@ unaligned
 1251 0034 6261     		str	r2, [r4, #20]	@ unaligned
 1252 0036 2B69     		ldr	r3, [r5, #16]	@ unaligned
 1253 0038 A361     		str	r3, [r4, #24]	@ unaligned
 309:Middlewares/Third_Party/LwIP/src/core/ipv4/ip4_frag.c **** }
 1254              		.loc 1 309 3 view .LVU390
 1255              	.L98:
 310:Middlewares/Third_Party/LwIP/src/core/ipv4/ip4_frag.c **** 
 1256              		.loc 1 310 1 is_stmt 0 view .LVU391
 1257 003a 2046     		mov	r0, r4
 1258 003c 70BD     		pop	{r4, r5, r6, pc}
 1259              	.LVL136:
 1260              	.L103:
 289:Middlewares/Third_Party/LwIP/src/core/ipv4/ip4_frag.c ****       ipr = (struct ip_reassdata *)memp_malloc(MEMP_REASSDATA);
 1261              		.loc 1 289 5 is_stmt 1 view .LVU392
 289:Middlewares/Third_Party/LwIP/src/core/ipv4/ip4_frag.c ****       ipr = (struct ip_reassdata *)memp_malloc(MEMP_REASSDATA);
 1262              		.loc 1 289 9 is_stmt 0 view .LVU393
 1263 003e 3146     		mov	r1, r6
 1264 0040 2846     		mov	r0, r5
 1265              	.LVL137:
 289:Middlewares/Third_Party/LwIP/src/core/ipv4/ip4_frag.c ****       ipr = (struct ip_reassdata *)memp_malloc(MEMP_REASSDATA);
 1266              		.loc 1 289 9 view .LVU394
 1267 0042 FFF7FEFF 		bl	ip_reass_remove_oldest_datagram
 1268              	.LVL138:
 289:Middlewares/Third_Party/LwIP/src/core/ipv4/ip4_frag.c ****       ipr = (struct ip_reassdata *)memp_malloc(MEMP_REASSDATA);
 1269              		.loc 1 289 8 view .LVU395
 1270 0046 B042     		cmp	r0, r6
 1271 0048 02DA     		bge	.L104
 1272              	.L100:
 292:Middlewares/Third_Party/LwIP/src/core/ipv4/ip4_frag.c **** #endif /* IP_REASS_FREE_OLDEST */
 1273              		.loc 1 292 5 is_stmt 1 view .LVU396
 292:Middlewares/Third_Party/LwIP/src/core/ipv4/ip4_frag.c **** #endif /* IP_REASS_FREE_OLDEST */
 1274              		.loc 1 292 8 is_stmt 0 view .LVU397
 1275 004a 002C     		cmp	r4, #0
 1276 004c E0D1     		bne	.L99
 292:Middlewares/Third_Party/LwIP/src/core/ipv4/ip4_frag.c **** #endif /* IP_REASS_FREE_OLDEST */
 1277              		.loc 1 292 8 view .LVU398
 1278 004e F4E7     		b	.L98
 1279              	.L104:
 290:Middlewares/Third_Party/LwIP/src/core/ipv4/ip4_frag.c ****     }
ARM GAS  /var/folders/bg/n1lwdyp56391g865_v8nrmhm0000gn/T//ccZDTuvB.s 			page 43


 1280              		.loc 1 290 7 is_stmt 1 view .LVU399
 290:Middlewares/Third_Party/LwIP/src/core/ipv4/ip4_frag.c ****     }
 1281              		.loc 1 290 36 is_stmt 0 view .LVU400
 1282 0050 0420     		movs	r0, #4
 1283 0052 FFF7FEFF 		bl	memp_malloc
 1284              	.LVL139:
 1285 0056 0446     		mov	r4, r0
 1286              	.LVL140:
 290:Middlewares/Third_Party/LwIP/src/core/ipv4/ip4_frag.c ****     }
 1287              		.loc 1 290 36 view .LVU401
 1288 0058 F7E7     		b	.L100
 1289              	.L106:
 1290 005a 00BF     		.align	2
 1291              	.L105:
 1292 005c 00000000 		.word	.LANCHOR0
 1293              		.cfi_endproc
 1294              	.LFE170:
 1296              		.section	.text.ip_reass_tmr,"ax",%progbits
 1297              		.align	1
 1298              		.global	ip_reass_tmr
 1299              		.syntax unified
 1300              		.thumb
 1301              		.thumb_func
 1302              		.fpu fpv5-d16
 1304              	ip_reass_tmr:
 1305              	.LFB167:
 129:Middlewares/Third_Party/LwIP/src/core/ipv4/ip4_frag.c ****   struct ip_reassdata *r, *prev = NULL;
 1306              		.loc 1 129 1 is_stmt 1 view -0
 1307              		.cfi_startproc
 1308              		@ args = 0, pretend = 0, frame = 0
 1309              		@ frame_needed = 0, uses_anonymous_args = 0
 1310 0000 38B5     		push	{r3, r4, r5, lr}
 1311              	.LCFI8:
 1312              		.cfi_def_cfa_offset 16
 1313              		.cfi_offset 3, -16
 1314              		.cfi_offset 4, -12
 1315              		.cfi_offset 5, -8
 1316              		.cfi_offset 14, -4
 130:Middlewares/Third_Party/LwIP/src/core/ipv4/ip4_frag.c **** 
 1317              		.loc 1 130 3 view .LVU403
 1318              	.LVL141:
 132:Middlewares/Third_Party/LwIP/src/core/ipv4/ip4_frag.c ****   while (r != NULL) {
 1319              		.loc 1 132 3 view .LVU404
 132:Middlewares/Third_Party/LwIP/src/core/ipv4/ip4_frag.c ****   while (r != NULL) {
 1320              		.loc 1 132 5 is_stmt 0 view .LVU405
 1321 0002 094B     		ldr	r3, .L115
 1322 0004 1868     		ldr	r0, [r3]
 1323              	.LVL142:
 133:Middlewares/Third_Party/LwIP/src/core/ipv4/ip4_frag.c ****     /* Decrement the timer. Once it reaches 0,
 1324              		.loc 1 133 3 is_stmt 1 view .LVU406
 130:Middlewares/Third_Party/LwIP/src/core/ipv4/ip4_frag.c **** 
 1325              		.loc 1 130 28 is_stmt 0 view .LVU407
 1326 0006 0024     		movs	r4, #0
 133:Middlewares/Third_Party/LwIP/src/core/ipv4/ip4_frag.c ****     /* Decrement the timer. Once it reaches 0,
 1327              		.loc 1 133 9 view .LVU408
 1328 0008 03E0     		b	.L108
 1329              	.LVL143:
ARM GAS  /var/folders/bg/n1lwdyp56391g865_v8nrmhm0000gn/T//ccZDTuvB.s 			page 44


 1330              	.L114:
 137:Middlewares/Third_Party/LwIP/src/core/ipv4/ip4_frag.c ****       LWIP_DEBUGF(IP_REASS_DEBUG, ("ip_reass_tmr: timer dec %"U16_F"\n", (u16_t)r->timer));
 1331              		.loc 1 137 7 is_stmt 1 view .LVU409
 137:Middlewares/Third_Party/LwIP/src/core/ipv4/ip4_frag.c ****       LWIP_DEBUGF(IP_REASS_DEBUG, ("ip_reass_tmr: timer dec %"U16_F"\n", (u16_t)r->timer));
 1332              		.loc 1 137 15 is_stmt 0 view .LVU410
 1333 000a 013B     		subs	r3, r3, #1
 1334 000c C377     		strb	r3, [r0, #31]
 138:Middlewares/Third_Party/LwIP/src/core/ipv4/ip4_frag.c ****       prev = r;
 1335              		.loc 1 138 91 is_stmt 1 view .LVU411
 139:Middlewares/Third_Party/LwIP/src/core/ipv4/ip4_frag.c ****       r = r->next;
 1336              		.loc 1 139 7 view .LVU412
 1337              	.LVL144:
 140:Middlewares/Third_Party/LwIP/src/core/ipv4/ip4_frag.c ****     } else {
 1338              		.loc 1 140 7 view .LVU413
 139:Middlewares/Third_Party/LwIP/src/core/ipv4/ip4_frag.c ****       r = r->next;
 1339              		.loc 1 139 12 is_stmt 0 view .LVU414
 1340 000e 0446     		mov	r4, r0
 140:Middlewares/Third_Party/LwIP/src/core/ipv4/ip4_frag.c ****     } else {
 1341              		.loc 1 140 9 view .LVU415
 1342 0010 0068     		ldr	r0, [r0]
 1343              	.LVL145:
 1344              	.L108:
 133:Middlewares/Third_Party/LwIP/src/core/ipv4/ip4_frag.c ****     /* Decrement the timer. Once it reaches 0,
 1345              		.loc 1 133 9 is_stmt 1 view .LVU416
 1346 0012 40B1     		cbz	r0, .L113
 136:Middlewares/Third_Party/LwIP/src/core/ipv4/ip4_frag.c ****       r->timer--;
 1347              		.loc 1 136 5 view .LVU417
 136:Middlewares/Third_Party/LwIP/src/core/ipv4/ip4_frag.c ****       r->timer--;
 1348              		.loc 1 136 10 is_stmt 0 view .LVU418
 1349 0014 C37F     		ldrb	r3, [r0, #31]	@ zero_extendqisi2
 136:Middlewares/Third_Party/LwIP/src/core/ipv4/ip4_frag.c ****       r->timer--;
 1350              		.loc 1 136 8 view .LVU419
 1351 0016 002B     		cmp	r3, #0
 1352 0018 F7D1     		bne	.L114
 1353              	.LBB4:
 143:Middlewares/Third_Party/LwIP/src/core/ipv4/ip4_frag.c ****       LWIP_DEBUGF(IP_REASS_DEBUG, ("ip_reass_tmr: timer timed out\n"));
 1354              		.loc 1 143 7 is_stmt 1 view .LVU420
 144:Middlewares/Third_Party/LwIP/src/core/ipv4/ip4_frag.c ****       tmp = r;
 1355              		.loc 1 144 71 view .LVU421
 145:Middlewares/Third_Party/LwIP/src/core/ipv4/ip4_frag.c ****       /* get the next pointer before freeing */
 1356              		.loc 1 145 7 view .LVU422
 1357              	.LVL146:
 147:Middlewares/Third_Party/LwIP/src/core/ipv4/ip4_frag.c ****       /* free the helper struct and all enqueued pbufs */
 1358              		.loc 1 147 7 view .LVU423
 147:Middlewares/Third_Party/LwIP/src/core/ipv4/ip4_frag.c ****       /* free the helper struct and all enqueued pbufs */
 1359              		.loc 1 147 9 is_stmt 0 view .LVU424
 1360 001a 0568     		ldr	r5, [r0]
 1361              	.LVL147:
 149:Middlewares/Third_Party/LwIP/src/core/ipv4/ip4_frag.c ****     }
 1362              		.loc 1 149 7 is_stmt 1 view .LVU425
 1363 001c 2146     		mov	r1, r4
 1364 001e FFF7FEFF 		bl	ip_reass_free_complete_datagram
 1365              	.LVL148:
 147:Middlewares/Third_Party/LwIP/src/core/ipv4/ip4_frag.c ****       /* free the helper struct and all enqueued pbufs */
 1366              		.loc 1 147 9 is_stmt 0 view .LVU426
 1367 0022 2846     		mov	r0, r5
 1368 0024 F5E7     		b	.L108
ARM GAS  /var/folders/bg/n1lwdyp56391g865_v8nrmhm0000gn/T//ccZDTuvB.s 			page 45


 1369              	.LVL149:
 1370              	.L113:
 147:Middlewares/Third_Party/LwIP/src/core/ipv4/ip4_frag.c ****       /* free the helper struct and all enqueued pbufs */
 1371              		.loc 1 147 9 view .LVU427
 1372              	.LBE4:
 152:Middlewares/Third_Party/LwIP/src/core/ipv4/ip4_frag.c **** 
 1373              		.loc 1 152 1 view .LVU428
 1374 0026 38BD     		pop	{r3, r4, r5, pc}
 1375              	.LVL150:
 1376              	.L116:
 152:Middlewares/Third_Party/LwIP/src/core/ipv4/ip4_frag.c **** 
 1377              		.loc 1 152 1 view .LVU429
 1378              		.align	2
 1379              	.L115:
 1380 0028 00000000 		.word	.LANCHOR0
 1381              		.cfi_endproc
 1382              	.LFE167:
 1384              		.section	.rodata.ip4_reass.str1.4,"aMS",%progbits,1
 1385              		.align	2
 1386              	.LC13:
 1387 0000 69705F72 		.ascii	"ip_reass_pbufcount >= clen\000"
 1387      65617373 
 1387      5F706275 
 1387      66636F75 
 1387      6E74203E 
 1388 001b 00       		.align	2
 1389              	.LC14:
 1390 001c 69707220 		.ascii	"ipr != NULL\000"
 1390      213D204E 
 1390      554C4C00 
 1391              		.align	2
 1392              	.LC15:
 1393 0028 6E6F7420 		.ascii	"not firstalthough just enqueued\000"
 1393      66697273 
 1393      74616C74 
 1393      686F7567 
 1393      68206A75 
 1394              		.section	.text.ip4_reass,"ax",%progbits
 1395              		.align	1
 1396              		.global	ip4_reass
 1397              		.syntax unified
 1398              		.thumb
 1399              		.thumb_func
 1400              		.fpu fpv5-d16
 1402              	ip4_reass:
 1403              	.LVL151:
 1404              	.LFB173:
 504:Middlewares/Third_Party/LwIP/src/core/ipv4/ip4_frag.c ****   struct pbuf *r;
 1405              		.loc 1 504 1 is_stmt 1 view -0
 1406              		.cfi_startproc
 1407              		@ args = 0, pretend = 0, frame = 0
 1408              		@ frame_needed = 0, uses_anonymous_args = 0
 504:Middlewares/Third_Party/LwIP/src/core/ipv4/ip4_frag.c ****   struct pbuf *r;
 1409              		.loc 1 504 1 is_stmt 0 view .LVU431
 1410 0000 2DE9F843 		push	{r3, r4, r5, r6, r7, r8, r9, lr}
 1411              	.LCFI9:
 1412              		.cfi_def_cfa_offset 32
ARM GAS  /var/folders/bg/n1lwdyp56391g865_v8nrmhm0000gn/T//ccZDTuvB.s 			page 46


 1413              		.cfi_offset 3, -32
 1414              		.cfi_offset 4, -28
 1415              		.cfi_offset 5, -24
 1416              		.cfi_offset 6, -20
 1417              		.cfi_offset 7, -16
 1418              		.cfi_offset 8, -12
 1419              		.cfi_offset 9, -8
 1420              		.cfi_offset 14, -4
 1421 0004 0646     		mov	r6, r0
 505:Middlewares/Third_Party/LwIP/src/core/ipv4/ip4_frag.c ****   struct ip_hdr *fraghdr;
 1422              		.loc 1 505 3 is_stmt 1 view .LVU432
 506:Middlewares/Third_Party/LwIP/src/core/ipv4/ip4_frag.c ****   struct ip_reassdata *ipr;
 1423              		.loc 1 506 3 view .LVU433
 507:Middlewares/Third_Party/LwIP/src/core/ipv4/ip4_frag.c ****   struct ip_reass_helper *iprh;
 1424              		.loc 1 507 3 view .LVU434
 508:Middlewares/Third_Party/LwIP/src/core/ipv4/ip4_frag.c ****   u16_t offset, len, clen;
 1425              		.loc 1 508 3 view .LVU435
 509:Middlewares/Third_Party/LwIP/src/core/ipv4/ip4_frag.c ****   u8_t hlen;
 1426              		.loc 1 509 3 view .LVU436
 510:Middlewares/Third_Party/LwIP/src/core/ipv4/ip4_frag.c ****   int valid;
 1427              		.loc 1 510 3 view .LVU437
 511:Middlewares/Third_Party/LwIP/src/core/ipv4/ip4_frag.c ****   int is_last;
 1428              		.loc 1 511 3 view .LVU438
 512:Middlewares/Third_Party/LwIP/src/core/ipv4/ip4_frag.c **** 
 1429              		.loc 1 512 3 view .LVU439
 514:Middlewares/Third_Party/LwIP/src/core/ipv4/ip4_frag.c ****   MIB2_STATS_INC(mib2.ipreasmreqds);
 1430              		.loc 1 514 33 view .LVU440
 515:Middlewares/Third_Party/LwIP/src/core/ipv4/ip4_frag.c **** 
 1431              		.loc 1 515 36 view .LVU441
 517:Middlewares/Third_Party/LwIP/src/core/ipv4/ip4_frag.c **** 
 1432              		.loc 1 517 3 view .LVU442
 517:Middlewares/Third_Party/LwIP/src/core/ipv4/ip4_frag.c **** 
 1433              		.loc 1 517 11 is_stmt 0 view .LVU443
 1434 0006 4568     		ldr	r5, [r0, #4]
 1435              	.LVL152:
 519:Middlewares/Third_Party/LwIP/src/core/ipv4/ip4_frag.c ****     LWIP_DEBUGF(IP_REASS_DEBUG, ("ip4_reass: IP options currently not supported!\n"));
 1436              		.loc 1 519 3 is_stmt 1 view .LVU444
 519:Middlewares/Third_Party/LwIP/src/core/ipv4/ip4_frag.c ****     LWIP_DEBUGF(IP_REASS_DEBUG, ("ip4_reass: IP options currently not supported!\n"));
 1437              		.loc 1 519 7 is_stmt 0 view .LVU445
 1438 0008 2B78     		ldrb	r3, [r5]	@ zero_extendqisi2
 1439 000a 03F00F03 		and	r3, r3, #15
 519:Middlewares/Third_Party/LwIP/src/core/ipv4/ip4_frag.c ****     LWIP_DEBUGF(IP_REASS_DEBUG, ("ip4_reass: IP options currently not supported!\n"));
 1440              		.loc 1 519 6 view .LVU446
 1441 000e 052B     		cmp	r3, #5
 1442 0010 40F0D080 		bne	.L118
 525:Middlewares/Third_Party/LwIP/src/core/ipv4/ip4_frag.c ****   len = lwip_ntohs(IPH_LEN(fraghdr));
 1443              		.loc 1 525 3 is_stmt 1 view .LVU447
 525:Middlewares/Third_Party/LwIP/src/core/ipv4/ip4_frag.c ****   len = lwip_ntohs(IPH_LEN(fraghdr));
 1444              		.loc 1 525 12 is_stmt 0 view .LVU448
 1445 0014 E888     		ldrh	r0, [r5, #6]	@ unaligned
 1446              	.LVL153:
 525:Middlewares/Third_Party/LwIP/src/core/ipv4/ip4_frag.c ****   len = lwip_ntohs(IPH_LEN(fraghdr));
 1447              		.loc 1 525 12 view .LVU449
 1448 0016 FFF7FEFF 		bl	lwip_htons
 1449              	.LVL154:
 1450 001a C0F30C08 		ubfx	r8, r0, #0, #13
 525:Middlewares/Third_Party/LwIP/src/core/ipv4/ip4_frag.c ****   len = lwip_ntohs(IPH_LEN(fraghdr));
ARM GAS  /var/folders/bg/n1lwdyp56391g865_v8nrmhm0000gn/T//ccZDTuvB.s 			page 47


 1451              		.loc 1 525 10 view .LVU450
 1452 001e 4FEAC808 		lsl	r8, r8, #3
 1453              	.LVL155:
 526:Middlewares/Third_Party/LwIP/src/core/ipv4/ip4_frag.c ****   hlen = IPH_HL_BYTES(fraghdr);
 1454              		.loc 1 526 3 is_stmt 1 view .LVU451
 526:Middlewares/Third_Party/LwIP/src/core/ipv4/ip4_frag.c ****   hlen = IPH_HL_BYTES(fraghdr);
 1455              		.loc 1 526 9 is_stmt 0 view .LVU452
 1456 0022 6888     		ldrh	r0, [r5, #2]	@ unaligned
 1457 0024 FFF7FEFF 		bl	lwip_htons
 1458              	.LVL156:
 527:Middlewares/Third_Party/LwIP/src/core/ipv4/ip4_frag.c ****   if (hlen > len) {
 1459              		.loc 1 527 3 is_stmt 1 view .LVU453
 527:Middlewares/Third_Party/LwIP/src/core/ipv4/ip4_frag.c ****   if (hlen > len) {
 1460              		.loc 1 527 10 is_stmt 0 view .LVU454
 1461 0028 2B78     		ldrb	r3, [r5]	@ zero_extendqisi2
 1462 002a 03F00F03 		and	r3, r3, #15
 1463              	.LVL157:
 528:Middlewares/Third_Party/LwIP/src/core/ipv4/ip4_frag.c ****     /* invalid datagram */
 1464              		.loc 1 528 3 is_stmt 1 view .LVU455
 528:Middlewares/Third_Party/LwIP/src/core/ipv4/ip4_frag.c ****     /* invalid datagram */
 1465              		.loc 1 528 12 is_stmt 0 view .LVU456
 1466 002e 9F00     		lsls	r7, r3, #2
 528:Middlewares/Third_Party/LwIP/src/core/ipv4/ip4_frag.c ****     /* invalid datagram */
 1467              		.loc 1 528 6 view .LVU457
 1468 0030 B0EB830F 		cmp	r0, r3, lsl #2
 1469 0034 C0F0BE80 		bcc	.L118
 532:Middlewares/Third_Party/LwIP/src/core/ipv4/ip4_frag.c **** 
 1470              		.loc 1 532 3 is_stmt 1 view .LVU458
 532:Middlewares/Third_Party/LwIP/src/core/ipv4/ip4_frag.c **** 
 1471              		.loc 1 532 7 is_stmt 0 view .LVU459
 1472 0038 C01B     		subs	r0, r0, r7
 1473              	.LVL158:
 532:Middlewares/Third_Party/LwIP/src/core/ipv4/ip4_frag.c **** 
 1474              		.loc 1 532 7 view .LVU460
 1475 003a 87B2     		uxth	r7, r0
 1476              	.LVL159:
 535:Middlewares/Third_Party/LwIP/src/core/ipv4/ip4_frag.c ****   if ((ip_reass_pbufcount + clen) > IP_REASS_MAX_PBUFS) {
 1477              		.loc 1 535 3 is_stmt 1 view .LVU461
 535:Middlewares/Third_Party/LwIP/src/core/ipv4/ip4_frag.c ****   if ((ip_reass_pbufcount + clen) > IP_REASS_MAX_PBUFS) {
 1478              		.loc 1 535 10 is_stmt 0 view .LVU462
 1479 003c 3046     		mov	r0, r6
 1480 003e FFF7FEFF 		bl	pbuf_clen
 1481              	.LVL160:
 535:Middlewares/Third_Party/LwIP/src/core/ipv4/ip4_frag.c ****   if ((ip_reass_pbufcount + clen) > IP_REASS_MAX_PBUFS) {
 1482              		.loc 1 535 10 view .LVU463
 1483 0042 8146     		mov	r9, r0
 1484              	.LVL161:
 536:Middlewares/Third_Party/LwIP/src/core/ipv4/ip4_frag.c **** #if IP_REASS_FREE_OLDEST
 1485              		.loc 1 536 3 is_stmt 1 view .LVU464
 536:Middlewares/Third_Party/LwIP/src/core/ipv4/ip4_frag.c **** #if IP_REASS_FREE_OLDEST
 1486              		.loc 1 536 27 is_stmt 0 view .LVU465
 1487 0044 6B4B     		ldr	r3, .L149
 1488 0046 1B88     		ldrh	r3, [r3]
 1489 0048 0344     		add	r3, r3, r0
 536:Middlewares/Third_Party/LwIP/src/core/ipv4/ip4_frag.c **** #if IP_REASS_FREE_OLDEST
 1490              		.loc 1 536 6 view .LVU466
 1491 004a 0A2B     		cmp	r3, #10
ARM GAS  /var/folders/bg/n1lwdyp56391g865_v8nrmhm0000gn/T//ccZDTuvB.s 			page 48


 1492 004c 02DC     		bgt	.L141
 1493              	.LVL162:
 1494              	.L119:
 554:Middlewares/Third_Party/LwIP/src/core/ipv4/ip4_frag.c ****     /* Check if the incoming fragment matches the one currently present
 1495              		.loc 1 554 3 is_stmt 1 view .LVU467
 554:Middlewares/Third_Party/LwIP/src/core/ipv4/ip4_frag.c ****     /* Check if the incoming fragment matches the one currently present
 1496              		.loc 1 554 12 is_stmt 0 view .LVU468
 1497 004e 6A4B     		ldr	r3, .L149+4
 1498 0050 1C68     		ldr	r4, [r3]
 1499              	.LVL163:
 554:Middlewares/Third_Party/LwIP/src/core/ipv4/ip4_frag.c ****     /* Check if the incoming fragment matches the one currently present
 1500              		.loc 1 554 3 view .LVU469
 1501 0052 0DE0     		b	.L120
 1502              	.LVL164:
 1503              	.L141:
 538:Middlewares/Third_Party/LwIP/src/core/ipv4/ip4_frag.c ****         ((ip_reass_pbufcount + clen) > IP_REASS_MAX_PBUFS))
 1504              		.loc 1 538 5 is_stmt 1 view .LVU470
 538:Middlewares/Third_Party/LwIP/src/core/ipv4/ip4_frag.c ****         ((ip_reass_pbufcount + clen) > IP_REASS_MAX_PBUFS))
 1505              		.loc 1 538 10 is_stmt 0 view .LVU471
 1506 0054 0146     		mov	r1, r0
 1507 0056 2846     		mov	r0, r5
 1508              	.LVL165:
 538:Middlewares/Third_Party/LwIP/src/core/ipv4/ip4_frag.c ****         ((ip_reass_pbufcount + clen) > IP_REASS_MAX_PBUFS))
 1509              		.loc 1 538 10 view .LVU472
 1510 0058 FFF7FEFF 		bl	ip_reass_remove_oldest_datagram
 1511              	.LVL166:
 538:Middlewares/Third_Party/LwIP/src/core/ipv4/ip4_frag.c ****         ((ip_reass_pbufcount + clen) > IP_REASS_MAX_PBUFS))
 1512              		.loc 1 538 8 view .LVU473
 1513 005c 0028     		cmp	r0, #0
 1514 005e 00F0A980 		beq	.L118
 539:Middlewares/Third_Party/LwIP/src/core/ipv4/ip4_frag.c **** #endif /* IP_REASS_FREE_OLDEST */
 1515              		.loc 1 539 30 discriminator 1 view .LVU474
 1516 0062 644B     		ldr	r3, .L149
 1517 0064 1B88     		ldrh	r3, [r3]
 1518 0066 4B44     		add	r3, r3, r9
 538:Middlewares/Third_Party/LwIP/src/core/ipv4/ip4_frag.c ****         ((ip_reass_pbufcount + clen) > IP_REASS_MAX_PBUFS))
 1519              		.loc 1 538 57 discriminator 1 view .LVU475
 1520 0068 0A2B     		cmp	r3, #10
 1521 006a F0DD     		ble	.L119
 1522 006c A2E0     		b	.L118
 1523              	.LVL167:
 1524              	.L121:
 554:Middlewares/Third_Party/LwIP/src/core/ipv4/ip4_frag.c ****     /* Check if the incoming fragment matches the one currently present
 1525              		.loc 1 554 43 is_stmt 1 discriminator 2 view .LVU476
 554:Middlewares/Third_Party/LwIP/src/core/ipv4/ip4_frag.c ****     /* Check if the incoming fragment matches the one currently present
 1526              		.loc 1 554 47 is_stmt 0 discriminator 2 view .LVU477
 1527 006e 2468     		ldr	r4, [r4]
 1528              	.LVL168:
 1529              	.L120:
 554:Middlewares/Third_Party/LwIP/src/core/ipv4/ip4_frag.c ****     /* Check if the incoming fragment matches the one currently present
 1530              		.loc 1 554 30 is_stmt 1 discriminator 1 view .LVU478
 554:Middlewares/Third_Party/LwIP/src/core/ipv4/ip4_frag.c ****     /* Check if the incoming fragment matches the one currently present
 1531              		.loc 1 554 3 is_stmt 0 discriminator 1 view .LVU479
 1532 0070 5CB1     		cbz	r4, .L122
 558:Middlewares/Third_Party/LwIP/src/core/ipv4/ip4_frag.c ****       LWIP_DEBUGF(IP_REASS_DEBUG, ("ip4_reass: matching previous fragment ID=%"X16_F"\n",
 1533              		.loc 1 558 5 is_stmt 1 view .LVU480
 558:Middlewares/Third_Party/LwIP/src/core/ipv4/ip4_frag.c ****       LWIP_DEBUGF(IP_REASS_DEBUG, ("ip4_reass: matching previous fragment ID=%"X16_F"\n",
ARM GAS  /var/folders/bg/n1lwdyp56391g865_v8nrmhm0000gn/T//ccZDTuvB.s 			page 49


 1534              		.loc 1 558 9 is_stmt 0 view .LVU481
 1535 0072 6269     		ldr	r2, [r4, #20]
 1536 0074 EB68     		ldr	r3, [r5, #12]	@ unaligned
 558:Middlewares/Third_Party/LwIP/src/core/ipv4/ip4_frag.c ****       LWIP_DEBUGF(IP_REASS_DEBUG, ("ip4_reass: matching previous fragment ID=%"X16_F"\n",
 1537              		.loc 1 558 8 view .LVU482
 1538 0076 9A42     		cmp	r2, r3
 1539 0078 F9D1     		bne	.L121
 558:Middlewares/Third_Party/LwIP/src/core/ipv4/ip4_frag.c ****       LWIP_DEBUGF(IP_REASS_DEBUG, ("ip4_reass: matching previous fragment ID=%"X16_F"\n",
 1540              		.loc 1 558 9 discriminator 1 view .LVU483
 1541 007a A269     		ldr	r2, [r4, #24]
 1542 007c 2B69     		ldr	r3, [r5, #16]	@ unaligned
 1543 007e 9A42     		cmp	r2, r3
 1544 0080 F5D1     		bne	.L121
 558:Middlewares/Third_Party/LwIP/src/core/ipv4/ip4_frag.c ****       LWIP_DEBUGF(IP_REASS_DEBUG, ("ip4_reass: matching previous fragment ID=%"X16_F"\n",
 1545              		.loc 1 558 9 discriminator 2 view .LVU484
 1546 0082 A289     		ldrh	r2, [r4, #12]
 1547 0084 AB88     		ldrh	r3, [r5, #4]	@ unaligned
 1548 0086 9A42     		cmp	r2, r3
 1549 0088 F1D1     		bne	.L121
 1550              	.L122:
 566:Middlewares/Third_Party/LwIP/src/core/ipv4/ip4_frag.c ****     /* Enqueue a new datagram into the datagram queue */
 1551              		.loc 1 566 3 is_stmt 1 view .LVU485
 566:Middlewares/Third_Party/LwIP/src/core/ipv4/ip4_frag.c ****     /* Enqueue a new datagram into the datagram queue */
 1552              		.loc 1 566 6 is_stmt 0 view .LVU486
 1553 008a 6CB3     		cbz	r4, .L142
 574:Middlewares/Third_Party/LwIP/src/core/ipv4/ip4_frag.c ****         ((lwip_ntohs(IPH_OFFSET(&ipr->iphdr)) & IP_OFFMASK) != 0)) {
 1554              		.loc 1 574 5 is_stmt 1 view .LVU487
 574:Middlewares/Third_Party/LwIP/src/core/ipv4/ip4_frag.c ****         ((lwip_ntohs(IPH_OFFSET(&ipr->iphdr)) & IP_OFFMASK) != 0)) {
 1555              		.loc 1 574 11 is_stmt 0 view .LVU488
 1556 008c E888     		ldrh	r0, [r5, #6]	@ unaligned
 1557 008e FFF7FEFF 		bl	lwip_htons
 1558              	.LVL169:
 574:Middlewares/Third_Party/LwIP/src/core/ipv4/ip4_frag.c ****         ((lwip_ntohs(IPH_OFFSET(&ipr->iphdr)) & IP_OFFMASK) != 0)) {
 1559              		.loc 1 574 8 view .LVU489
 1560 0092 C0F30C00 		ubfx	r0, r0, #0, #13
 1561 0096 78B3     		cbz	r0, .L143
 1562              	.L125:
 588:Middlewares/Third_Party/LwIP/src/core/ipv4/ip4_frag.c ****   if (is_last) {
 1563              		.loc 1 588 3 is_stmt 1 view .LVU490
 588:Middlewares/Third_Party/LwIP/src/core/ipv4/ip4_frag.c ****   if (is_last) {
 1564              		.loc 1 588 14 is_stmt 0 view .LVU491
 1565 0098 ED88     		ldrh	r5, [r5, #6]	@ unaligned
 1566              	.LVL170:
 588:Middlewares/Third_Party/LwIP/src/core/ipv4/ip4_frag.c ****   if (is_last) {
 1567              		.loc 1 588 14 view .LVU492
 1568 009a 05F02005 		and	r5, r5, #32
 588:Middlewares/Third_Party/LwIP/src/core/ipv4/ip4_frag.c ****   if (is_last) {
 1569              		.loc 1 588 53 view .LVU493
 1570 009e 002D     		cmp	r5, #0
 1571 00a0 0CBF     		ite	eq
 1572 00a2 0122     		moveq	r2, #1
 1573 00a4 0022     		movne	r2, #0
 1574              	.LVL171:
 589:Middlewares/Third_Party/LwIP/src/core/ipv4/ip4_frag.c ****     u16_t datagram_len = (u16_t)(offset + len);
 1575              		.loc 1 589 3 is_stmt 1 view .LVU494
 589:Middlewares/Third_Party/LwIP/src/core/ipv4/ip4_frag.c ****     u16_t datagram_len = (u16_t)(offset + len);
 1576              		.loc 1 589 6 is_stmt 0 view .LVU495
ARM GAS  /var/folders/bg/n1lwdyp56391g865_v8nrmhm0000gn/T//ccZDTuvB.s 			page 50


 1577 00a6 08D1     		bne	.L126
 1578              	.LBB5:
 590:Middlewares/Third_Party/LwIP/src/core/ipv4/ip4_frag.c ****     if ((datagram_len < offset) || (datagram_len > (0xFFFF - IP_HLEN))) {
 1579              		.loc 1 590 5 is_stmt 1 view .LVU496
 590:Middlewares/Third_Party/LwIP/src/core/ipv4/ip4_frag.c ****     if ((datagram_len < offset) || (datagram_len > (0xFFFF - IP_HLEN))) {
 1580              		.loc 1 590 11 is_stmt 0 view .LVU497
 1581 00a8 08EB0703 		add	r3, r8, r7
 1582 00ac 9BB2     		uxth	r3, r3
 1583              	.LVL172:
 591:Middlewares/Third_Party/LwIP/src/core/ipv4/ip4_frag.c ****       /* u16_t overflow, cannot handle this */
 1584              		.loc 1 591 5 is_stmt 1 view .LVU498
 591:Middlewares/Third_Party/LwIP/src/core/ipv4/ip4_frag.c ****       /* u16_t overflow, cannot handle this */
 1585              		.loc 1 591 8 is_stmt 0 view .LVU499
 1586 00ae 4FF6EB71 		movw	r1, #65515
 1587 00b2 8B42     		cmp	r3, r1
 1588 00b4 98BF     		it	ls
 1589 00b6 9845     		cmpls	r8, r3
 1590 00b8 79D8     		bhi	.L127
 1591              	.LVL173:
 1592              	.L126:
 591:Middlewares/Third_Party/LwIP/src/core/ipv4/ip4_frag.c ****       /* u16_t overflow, cannot handle this */
 1593              		.loc 1 591 8 view .LVU500
 1594              	.LBE5:
 598:Middlewares/Third_Party/LwIP/src/core/ipv4/ip4_frag.c ****   if (valid == IP_REASS_VALIDATE_PBUF_DROPPED) {
 1595              		.loc 1 598 3 is_stmt 1 view .LVU501
 598:Middlewares/Third_Party/LwIP/src/core/ipv4/ip4_frag.c ****   if (valid == IP_REASS_VALIDATE_PBUF_DROPPED) {
 1596              		.loc 1 598 11 is_stmt 0 view .LVU502
 1597 00ba 3146     		mov	r1, r6
 1598 00bc 2046     		mov	r0, r4
 1599 00be FFF7FEFF 		bl	ip_reass_chain_frag_into_datagram_and_validate
 1600              	.LVL174:
 599:Middlewares/Third_Party/LwIP/src/core/ipv4/ip4_frag.c ****     goto nullreturn_ipr;
 1601              		.loc 1 599 3 is_stmt 1 view .LVU503
 599:Middlewares/Third_Party/LwIP/src/core/ipv4/ip4_frag.c ****     goto nullreturn_ipr;
 1602              		.loc 1 599 6 is_stmt 0 view .LVU504
 1603 00c2 B0F1FF3F 		cmp	r0, #-1
 1604 00c6 72D0     		beq	.L127
 607:Middlewares/Third_Party/LwIP/src/core/ipv4/ip4_frag.c ****   if (is_last) {
 1605              		.loc 1 607 3 is_stmt 1 view .LVU505
 607:Middlewares/Third_Party/LwIP/src/core/ipv4/ip4_frag.c ****   if (is_last) {
 1606              		.loc 1 607 24 is_stmt 0 view .LVU506
 1607 00c8 4A4B     		ldr	r3, .L149
 1608 00ca 1A88     		ldrh	r2, [r3]
 1609 00cc 9144     		add	r9, r9, r2
 607:Middlewares/Third_Party/LwIP/src/core/ipv4/ip4_frag.c ****   if (is_last) {
 1610              		.loc 1 607 22 view .LVU507
 1611 00ce A3F80090 		strh	r9, [r3]	@ movhi
 608:Middlewares/Third_Party/LwIP/src/core/ipv4/ip4_frag.c ****     u16_t datagram_len = (u16_t)(offset + len);
 1612              		.loc 1 608 3 is_stmt 1 view .LVU508
 608:Middlewares/Third_Party/LwIP/src/core/ipv4/ip4_frag.c ****     u16_t datagram_len = (u16_t)(offset + len);
 1613              		.loc 1 608 6 is_stmt 0 view .LVU509
 1614 00d2 2DB9     		cbnz	r5, .L128
 1615              	.LBB6:
 609:Middlewares/Third_Party/LwIP/src/core/ipv4/ip4_frag.c ****     ipr->datagram_len = datagram_len;
 1616              		.loc 1 609 5 is_stmt 1 view .LVU510
 609:Middlewares/Third_Party/LwIP/src/core/ipv4/ip4_frag.c ****     ipr->datagram_len = datagram_len;
 1617              		.loc 1 609 11 is_stmt 0 view .LVU511
ARM GAS  /var/folders/bg/n1lwdyp56391g865_v8nrmhm0000gn/T//ccZDTuvB.s 			page 51


 1618 00d4 4744     		add	r7, r7, r8
 1619              	.LVL175:
 610:Middlewares/Third_Party/LwIP/src/core/ipv4/ip4_frag.c ****     ipr->flags |= IP_REASS_FLAG_LASTFRAG;
 1620              		.loc 1 610 5 is_stmt 1 view .LVU512
 610:Middlewares/Third_Party/LwIP/src/core/ipv4/ip4_frag.c ****     ipr->flags |= IP_REASS_FLAG_LASTFRAG;
 1621              		.loc 1 610 23 is_stmt 0 view .LVU513
 1622 00d6 A783     		strh	r7, [r4, #28]	@ movhi
 611:Middlewares/Third_Party/LwIP/src/core/ipv4/ip4_frag.c ****     LWIP_DEBUGF(IP_REASS_DEBUG,
 1623              		.loc 1 611 5 is_stmt 1 view .LVU514
 611:Middlewares/Third_Party/LwIP/src/core/ipv4/ip4_frag.c ****     LWIP_DEBUGF(IP_REASS_DEBUG,
 1624              		.loc 1 611 16 is_stmt 0 view .LVU515
 1625 00d8 A37F     		ldrb	r3, [r4, #30]	@ zero_extendqisi2
 1626 00da 43F00103 		orr	r3, r3, #1
 1627 00de A377     		strb	r3, [r4, #30]
 1628              	.LVL176:
 1629              	.L128:
 614:Middlewares/Third_Party/LwIP/src/core/ipv4/ip4_frag.c ****   }
 1630              		.loc 1 614 37 is_stmt 1 view .LVU516
 1631              	.LBE6:
 617:Middlewares/Third_Party/LwIP/src/core/ipv4/ip4_frag.c ****     struct ip_reassdata *ipr_prev;
 1632              		.loc 1 617 3 view .LVU517
 617:Middlewares/Third_Party/LwIP/src/core/ipv4/ip4_frag.c ****     struct ip_reassdata *ipr_prev;
 1633              		.loc 1 617 6 is_stmt 0 view .LVU518
 1634 00e0 0128     		cmp	r0, #1
 1635 00e2 1BD0     		beq	.L144
 677:Middlewares/Third_Party/LwIP/src/core/ipv4/ip4_frag.c **** 
 1636              		.loc 1 677 10 view .LVU519
 1637 00e4 0026     		movs	r6, #0
 1638              	.LVL177:
 677:Middlewares/Third_Party/LwIP/src/core/ipv4/ip4_frag.c **** 
 1639              		.loc 1 677 10 view .LVU520
 1640 00e6 69E0     		b	.L117
 1641              	.LVL178:
 1642              	.L142:
 568:Middlewares/Third_Party/LwIP/src/core/ipv4/ip4_frag.c ****     /* Bail if unable to enqueue */
 1643              		.loc 1 568 5 is_stmt 1 view .LVU521
 568:Middlewares/Third_Party/LwIP/src/core/ipv4/ip4_frag.c ****     /* Bail if unable to enqueue */
 1644              		.loc 1 568 11 is_stmt 0 view .LVU522
 1645 00e8 4946     		mov	r1, r9
 1646 00ea 2846     		mov	r0, r5
 1647 00ec FFF7FEFF 		bl	ip_reass_enqueue_new_datagram
 1648              	.LVL179:
 570:Middlewares/Third_Party/LwIP/src/core/ipv4/ip4_frag.c ****       goto nullreturn;
 1649              		.loc 1 570 5 is_stmt 1 view .LVU523
 570:Middlewares/Third_Party/LwIP/src/core/ipv4/ip4_frag.c ****       goto nullreturn;
 1650              		.loc 1 570 8 is_stmt 0 view .LVU524
 1651 00f0 0446     		mov	r4, r0
 1652 00f2 0028     		cmp	r0, #0
 1653 00f4 D0D1     		bne	.L125
 1654 00f6 5DE0     		b	.L118
 1655              	.LVL180:
 1656              	.L143:
 575:Middlewares/Third_Party/LwIP/src/core/ipv4/ip4_frag.c ****       /* ipr->iphdr is not the header from the first fragment, but fraghdr is
 1657              		.loc 1 575 11 discriminator 1 view .LVU525
 1658 00f8 E089     		ldrh	r0, [r4, #14]
 1659 00fa FFF7FEFF 		bl	lwip_htons
 1660              	.LVL181:
ARM GAS  /var/folders/bg/n1lwdyp56391g865_v8nrmhm0000gn/T//ccZDTuvB.s 			page 52


 574:Middlewares/Third_Party/LwIP/src/core/ipv4/ip4_frag.c ****         ((lwip_ntohs(IPH_OFFSET(&ipr->iphdr)) & IP_OFFMASK) != 0)) {
 1661              		.loc 1 574 63 discriminator 1 view .LVU526
 1662 00fe C0F30C00 		ubfx	r0, r0, #0, #13
 1663 0102 0028     		cmp	r0, #0
 1664 0104 C8D0     		beq	.L125
 580:Middlewares/Third_Party/LwIP/src/core/ipv4/ip4_frag.c ****     }
 1665              		.loc 1 580 7 is_stmt 1 view .LVU527
 1666 0106 2B68     		ldr	r3, [r5]	@ unaligned
 1667 0108 6868     		ldr	r0, [r5, #4]	@ unaligned
 1668 010a A968     		ldr	r1, [r5, #8]	@ unaligned
 1669 010c EA68     		ldr	r2, [r5, #12]	@ unaligned
 1670 010e A360     		str	r3, [r4, #8]	@ unaligned
 1671 0110 E060     		str	r0, [r4, #12]	@ unaligned
 1672 0112 2161     		str	r1, [r4, #16]	@ unaligned
 1673 0114 6261     		str	r2, [r4, #20]	@ unaligned
 1674 0116 2B69     		ldr	r3, [r5, #16]	@ unaligned
 1675 0118 A361     		str	r3, [r4, #24]	@ unaligned
 1676 011a BDE7     		b	.L125
 1677              	.LVL182:
 1678              	.L144:
 1679              	.LBB7:
 618:Middlewares/Third_Party/LwIP/src/core/ipv4/ip4_frag.c ****     /* the totally last fragment (flag more fragments = 0) was received at least
 1680              		.loc 1 618 5 view .LVU528
 621:Middlewares/Third_Party/LwIP/src/core/ipv4/ip4_frag.c **** 
 1681              		.loc 1 621 5 view .LVU529
 621:Middlewares/Third_Party/LwIP/src/core/ipv4/ip4_frag.c **** 
 1682              		.loc 1 621 37 is_stmt 0 view .LVU530
 1683 011c A08B     		ldrh	r0, [r4, #28]
 1684              	.LVL183:
 621:Middlewares/Third_Party/LwIP/src/core/ipv4/ip4_frag.c **** 
 1685              		.loc 1 621 11 view .LVU531
 1686 011e 1430     		adds	r0, r0, #20
 1687              	.LVL184:
 624:Middlewares/Third_Party/LwIP/src/core/ipv4/ip4_frag.c **** 
 1688              		.loc 1 624 5 is_stmt 1 view .LVU532
 624:Middlewares/Third_Party/LwIP/src/core/ipv4/ip4_frag.c **** 
 1689              		.loc 1 624 39 is_stmt 0 view .LVU533
 1690 0120 6368     		ldr	r3, [r4, #4]
 624:Middlewares/Third_Party/LwIP/src/core/ipv4/ip4_frag.c **** 
 1691              		.loc 1 624 42 view .LVU534
 1692 0122 5E68     		ldr	r6, [r3, #4]
 1693              	.LVL185:
 624:Middlewares/Third_Party/LwIP/src/core/ipv4/ip4_frag.c **** 
 1694              		.loc 1 624 7 view .LVU535
 1695 0124 3568     		ldr	r5, [r6]	@ unaligned
 1696              	.LVL186:
 627:Middlewares/Third_Party/LwIP/src/core/ipv4/ip4_frag.c ****     SMEMCPY(fraghdr, &ipr->iphdr, IP_HLEN);
 1697              		.loc 1 627 5 is_stmt 1 view .LVU536
 628:Middlewares/Third_Party/LwIP/src/core/ipv4/ip4_frag.c ****     IPH_LEN_SET(fraghdr, lwip_htons(datagram_len));
 1698              		.loc 1 628 5 view .LVU537
 1699 0126 A368     		ldr	r3, [r4, #8]	@ unaligned
 1700 0128 E768     		ldr	r7, [r4, #12]	@ unaligned
 1701 012a 2169     		ldr	r1, [r4, #16]	@ unaligned
 1702 012c 6269     		ldr	r2, [r4, #20]	@ unaligned
 1703 012e 3360     		str	r3, [r6]	@ unaligned
 1704 0130 7760     		str	r7, [r6, #4]	@ unaligned
 1705 0132 B160     		str	r1, [r6, #8]	@ unaligned
ARM GAS  /var/folders/bg/n1lwdyp56391g865_v8nrmhm0000gn/T//ccZDTuvB.s 			page 53


 1706 0134 F260     		str	r2, [r6, #12]	@ unaligned
 1707 0136 A369     		ldr	r3, [r4, #24]	@ unaligned
 1708 0138 3361     		str	r3, [r6, #16]	@ unaligned
 629:Middlewares/Third_Party/LwIP/src/core/ipv4/ip4_frag.c ****     IPH_OFFSET_SET(fraghdr, 0);
 1709              		.loc 1 629 5 view .LVU538
 1710 013a 80B2     		uxth	r0, r0
 629:Middlewares/Third_Party/LwIP/src/core/ipv4/ip4_frag.c ****     IPH_OFFSET_SET(fraghdr, 0);
 1711              		.loc 1 629 5 is_stmt 0 view .LVU539
 1712 013c FFF7FEFF 		bl	lwip_htons
 1713              	.LVL187:
 629:Middlewares/Third_Party/LwIP/src/core/ipv4/ip4_frag.c ****     IPH_OFFSET_SET(fraghdr, 0);
 1714              		.loc 1 629 5 view .LVU540
 1715 0140 7080     		strh	r0, [r6, #2]	@ unaligned
 630:Middlewares/Third_Party/LwIP/src/core/ipv4/ip4_frag.c ****     IPH_CHKSUM_SET(fraghdr, 0);
 1716              		.loc 1 630 5 is_stmt 1 view .LVU541
 1717 0142 0023     		movs	r3, #0
 1718 0144 B371     		strb	r3, [r6, #6]
 1719 0146 F371     		strb	r3, [r6, #7]
 631:Middlewares/Third_Party/LwIP/src/core/ipv4/ip4_frag.c ****     /* @todo: do we need to set/calculate the correct checksum? */
 1720              		.loc 1 631 5 view .LVU542
 1721 0148 B372     		strb	r3, [r6, #10]
 1722 014a F372     		strb	r3, [r6, #11]
 639:Middlewares/Third_Party/LwIP/src/core/ipv4/ip4_frag.c **** 
 1723              		.loc 1 639 5 view .LVU543
 639:Middlewares/Third_Party/LwIP/src/core/ipv4/ip4_frag.c **** 
 1724              		.loc 1 639 7 is_stmt 0 view .LVU544
 1725 014c 6668     		ldr	r6, [r4, #4]
 1726              	.LVL188:
 642:Middlewares/Third_Party/LwIP/src/core/ipv4/ip4_frag.c ****       iprh = (struct ip_reass_helper *)r->payload;
 1727              		.loc 1 642 5 is_stmt 1 view .LVU545
 642:Middlewares/Third_Party/LwIP/src/core/ipv4/ip4_frag.c ****       iprh = (struct ip_reass_helper *)r->payload;
 1728              		.loc 1 642 11 is_stmt 0 view .LVU546
 1729 014e 09E0     		b	.L130
 1730              	.L131:
 643:Middlewares/Third_Party/LwIP/src/core/ipv4/ip4_frag.c **** 
 1731              		.loc 1 643 7 is_stmt 1 view .LVU547
 643:Middlewares/Third_Party/LwIP/src/core/ipv4/ip4_frag.c **** 
 1732              		.loc 1 643 12 is_stmt 0 view .LVU548
 1733 0150 6F68     		ldr	r7, [r5, #4]
 1734              	.LVL189:
 646:Middlewares/Third_Party/LwIP/src/core/ipv4/ip4_frag.c ****       pbuf_cat(p, r);
 1735              		.loc 1 646 7 is_stmt 1 view .LVU549
 1736 0152 1421     		movs	r1, #20
 1737 0154 2846     		mov	r0, r5
 1738 0156 FFF7FEFF 		bl	pbuf_remove_header
 1739              	.LVL190:
 647:Middlewares/Third_Party/LwIP/src/core/ipv4/ip4_frag.c ****       r = iprh->next_pbuf;
 1740              		.loc 1 647 7 view .LVU550
 1741 015a 2946     		mov	r1, r5
 1742 015c 3046     		mov	r0, r6
 1743 015e FFF7FEFF 		bl	pbuf_cat
 1744              	.LVL191:
 648:Middlewares/Third_Party/LwIP/src/core/ipv4/ip4_frag.c ****     }
 1745              		.loc 1 648 7 view .LVU551
 648:Middlewares/Third_Party/LwIP/src/core/ipv4/ip4_frag.c ****     }
 1746              		.loc 1 648 9 is_stmt 0 view .LVU552
 1747 0162 3D68     		ldr	r5, [r7]	@ unaligned
ARM GAS  /var/folders/bg/n1lwdyp56391g865_v8nrmhm0000gn/T//ccZDTuvB.s 			page 54


 1748              	.LVL192:
 1749              	.L130:
 642:Middlewares/Third_Party/LwIP/src/core/ipv4/ip4_frag.c ****       iprh = (struct ip_reass_helper *)r->payload;
 1750              		.loc 1 642 11 is_stmt 1 view .LVU553
 1751 0164 002D     		cmp	r5, #0
 1752 0166 F3D1     		bne	.L131
 652:Middlewares/Third_Party/LwIP/src/core/ipv4/ip4_frag.c ****       ipr_prev = NULL;
 1753              		.loc 1 652 5 view .LVU554
 652:Middlewares/Third_Party/LwIP/src/core/ipv4/ip4_frag.c ****       ipr_prev = NULL;
 1754              		.loc 1 652 13 is_stmt 0 view .LVU555
 1755 0168 234B     		ldr	r3, .L149+4
 1756 016a 1968     		ldr	r1, [r3]
 652:Middlewares/Third_Party/LwIP/src/core/ipv4/ip4_frag.c ****       ipr_prev = NULL;
 1757              		.loc 1 652 8 view .LVU556
 1758 016c A142     		cmp	r1, r4
 1759 016e 05D0     		beq	.L145
 1760              	.L133:
 1761              	.LVL193:
 655:Middlewares/Third_Party/LwIP/src/core/ipv4/ip4_frag.c ****         if (ipr_prev->next == ipr) {
 1762              		.loc 1 655 39 is_stmt 1 discriminator 1 view .LVU557
 655:Middlewares/Third_Party/LwIP/src/core/ipv4/ip4_frag.c ****         if (ipr_prev->next == ipr) {
 1763              		.loc 1 655 7 is_stmt 0 discriminator 1 view .LVU558
 1764 0170 29B1     		cbz	r1, .L132
 656:Middlewares/Third_Party/LwIP/src/core/ipv4/ip4_frag.c ****           break;
 1765              		.loc 1 656 9 is_stmt 1 view .LVU559
 656:Middlewares/Third_Party/LwIP/src/core/ipv4/ip4_frag.c ****           break;
 1766              		.loc 1 656 21 is_stmt 0 view .LVU560
 1767 0172 0B68     		ldr	r3, [r1]
 656:Middlewares/Third_Party/LwIP/src/core/ipv4/ip4_frag.c ****           break;
 1768              		.loc 1 656 12 view .LVU561
 1769 0174 A342     		cmp	r3, r4
 1770 0176 02D0     		beq	.L132
 655:Middlewares/Third_Party/LwIP/src/core/ipv4/ip4_frag.c ****         if (ipr_prev->next == ipr) {
 1771              		.loc 1 655 66 view .LVU562
 1772 0178 1946     		mov	r1, r3
 1773              	.LVL194:
 655:Middlewares/Third_Party/LwIP/src/core/ipv4/ip4_frag.c ****         if (ipr_prev->next == ipr) {
 1774              		.loc 1 655 66 view .LVU563
 1775 017a F9E7     		b	.L133
 1776              	.L145:
 653:Middlewares/Third_Party/LwIP/src/core/ipv4/ip4_frag.c ****     } else {
 1777              		.loc 1 653 16 view .LVU564
 1778 017c 2946     		mov	r1, r5
 1779              	.L132:
 1780              	.LVL195:
 663:Middlewares/Third_Party/LwIP/src/core/ipv4/ip4_frag.c **** 
 1781              		.loc 1 663 5 is_stmt 1 view .LVU565
 1782 017e 2046     		mov	r0, r4
 1783 0180 FFF7FEFF 		bl	ip_reass_dequeue_datagram
 1784              	.LVL196:
 666:Middlewares/Third_Party/LwIP/src/core/ipv4/ip4_frag.c ****     LWIP_ASSERT("ip_reass_pbufcount >= clen", ip_reass_pbufcount >= clen);
 1785              		.loc 1 666 5 view .LVU566
 666:Middlewares/Third_Party/LwIP/src/core/ipv4/ip4_frag.c ****     LWIP_ASSERT("ip_reass_pbufcount >= clen", ip_reass_pbufcount >= clen);
 1786              		.loc 1 666 12 is_stmt 0 view .LVU567
 1787 0184 3046     		mov	r0, r6
 1788 0186 FFF7FEFF 		bl	pbuf_clen
 1789              	.LVL197:
ARM GAS  /var/folders/bg/n1lwdyp56391g865_v8nrmhm0000gn/T//ccZDTuvB.s 			page 55


 1790 018a 0446     		mov	r4, r0
 1791              	.LVL198:
 667:Middlewares/Third_Party/LwIP/src/core/ipv4/ip4_frag.c ****     ip_reass_pbufcount = (u16_t)(ip_reass_pbufcount - clen);
 1792              		.loc 1 667 5 is_stmt 1 view .LVU568
 667:Middlewares/Third_Party/LwIP/src/core/ipv4/ip4_frag.c ****     ip_reass_pbufcount = (u16_t)(ip_reass_pbufcount - clen);
 1793              		.loc 1 667 5 view .LVU569
 1794 018c 194B     		ldr	r3, .L149
 1795 018e 1B88     		ldrh	r3, [r3]
 1796 0190 8342     		cmp	r3, r0
 1797 0192 04D3     		bcc	.L146
 1798              	.LVL199:
 1799              	.L135:
 667:Middlewares/Third_Party/LwIP/src/core/ipv4/ip4_frag.c ****     ip_reass_pbufcount = (u16_t)(ip_reass_pbufcount - clen);
 1800              		.loc 1 667 5 discriminator 3 view .LVU570
 667:Middlewares/Third_Party/LwIP/src/core/ipv4/ip4_frag.c ****     ip_reass_pbufcount = (u16_t)(ip_reass_pbufcount - clen);
 1801              		.loc 1 667 5 discriminator 3 view .LVU571
 668:Middlewares/Third_Party/LwIP/src/core/ipv4/ip4_frag.c **** 
 1802              		.loc 1 668 5 discriminator 3 view .LVU572
 668:Middlewares/Third_Party/LwIP/src/core/ipv4/ip4_frag.c **** 
 1803              		.loc 1 668 26 is_stmt 0 discriminator 3 view .LVU573
 1804 0194 174A     		ldr	r2, .L149
 1805 0196 1388     		ldrh	r3, [r2]
 1806 0198 1C1B     		subs	r4, r3, r4
 668:Middlewares/Third_Party/LwIP/src/core/ipv4/ip4_frag.c **** 
 1807              		.loc 1 668 24 discriminator 3 view .LVU574
 1808 019a 1480     		strh	r4, [r2]	@ movhi
 670:Middlewares/Third_Party/LwIP/src/core/ipv4/ip4_frag.c **** 
 1809              		.loc 1 670 36 is_stmt 1 discriminator 3 view .LVU575
 673:Middlewares/Third_Party/LwIP/src/core/ipv4/ip4_frag.c ****   }
 1810              		.loc 1 673 5 discriminator 3 view .LVU576
 673:Middlewares/Third_Party/LwIP/src/core/ipv4/ip4_frag.c ****   }
 1811              		.loc 1 673 12 is_stmt 0 discriminator 3 view .LVU577
 1812 019c 0EE0     		b	.L117
 1813              	.LVL200:
 1814              	.L146:
 667:Middlewares/Third_Party/LwIP/src/core/ipv4/ip4_frag.c ****     ip_reass_pbufcount = (u16_t)(ip_reass_pbufcount - clen);
 1815              		.loc 1 667 5 is_stmt 1 discriminator 1 view .LVU578
 667:Middlewares/Third_Party/LwIP/src/core/ipv4/ip4_frag.c ****     ip_reass_pbufcount = (u16_t)(ip_reass_pbufcount - clen);
 1816              		.loc 1 667 5 discriminator 1 view .LVU579
 1817 019e 174B     		ldr	r3, .L149+8
 1818 01a0 40F29B22 		movw	r2, #667
 1819 01a4 1649     		ldr	r1, .L149+12
 1820 01a6 1748     		ldr	r0, .L149+16
 1821              	.LVL201:
 667:Middlewares/Third_Party/LwIP/src/core/ipv4/ip4_frag.c ****     ip_reass_pbufcount = (u16_t)(ip_reass_pbufcount - clen);
 1822              		.loc 1 667 5 is_stmt 0 discriminator 1 view .LVU580
 1823 01a8 FFF7FEFF 		bl	printf
 1824              	.LVL202:
 1825 01ac F2E7     		b	.L135
 1826              	.LVL203:
 1827              	.L127:
 667:Middlewares/Third_Party/LwIP/src/core/ipv4/ip4_frag.c ****     ip_reass_pbufcount = (u16_t)(ip_reass_pbufcount - clen);
 1828              		.loc 1 667 5 discriminator 1 view .LVU581
 1829              	.LBE7:
 680:Middlewares/Third_Party/LwIP/src/core/ipv4/ip4_frag.c ****   if (ipr->p == NULL) {
 1830              		.loc 1 680 3 is_stmt 1 view .LVU582
 680:Middlewares/Third_Party/LwIP/src/core/ipv4/ip4_frag.c ****   if (ipr->p == NULL) {
ARM GAS  /var/folders/bg/n1lwdyp56391g865_v8nrmhm0000gn/T//ccZDTuvB.s 			page 56


 1831              		.loc 1 680 3 view .LVU583
 1832 01ae 44B1     		cbz	r4, .L147
 1833              	.L136:
 680:Middlewares/Third_Party/LwIP/src/core/ipv4/ip4_frag.c ****   if (ipr->p == NULL) {
 1834              		.loc 1 680 3 discriminator 3 view .LVU584
 680:Middlewares/Third_Party/LwIP/src/core/ipv4/ip4_frag.c ****   if (ipr->p == NULL) {
 1835              		.loc 1 680 3 discriminator 3 view .LVU585
 681:Middlewares/Third_Party/LwIP/src/core/ipv4/ip4_frag.c ****     /* dropped pbuf after creating a new datagram entry: remove the entry, too */
 1836              		.loc 1 681 3 discriminator 3 view .LVU586
 681:Middlewares/Third_Party/LwIP/src/core/ipv4/ip4_frag.c ****     /* dropped pbuf after creating a new datagram entry: remove the entry, too */
 1837              		.loc 1 681 10 is_stmt 0 discriminator 3 view .LVU587
 1838 01b0 6368     		ldr	r3, [r4, #4]
 681:Middlewares/Third_Party/LwIP/src/core/ipv4/ip4_frag.c ****     /* dropped pbuf after creating a new datagram entry: remove the entry, too */
 1839              		.loc 1 681 6 discriminator 3 view .LVU588
 1840 01b2 73B1     		cbz	r3, .L148
 1841              	.LVL204:
 1842              	.L118:
 688:Middlewares/Third_Party/LwIP/src/core/ipv4/ip4_frag.c ****   IPFRAG_STATS_INC(ip_frag.drop);
 1843              		.loc 1 688 59 is_stmt 1 view .LVU589
 689:Middlewares/Third_Party/LwIP/src/core/ipv4/ip4_frag.c ****   pbuf_free(p);
 1844              		.loc 1 689 33 view .LVU590
 690:Middlewares/Third_Party/LwIP/src/core/ipv4/ip4_frag.c ****   return NULL;
 1845              		.loc 1 690 3 view .LVU591
 1846 01b4 3046     		mov	r0, r6
 1847 01b6 FFF7FEFF 		bl	pbuf_free
 1848              	.LVL205:
 691:Middlewares/Third_Party/LwIP/src/core/ipv4/ip4_frag.c **** }
 1849              		.loc 1 691 3 view .LVU592
 691:Middlewares/Third_Party/LwIP/src/core/ipv4/ip4_frag.c **** }
 1850              		.loc 1 691 10 is_stmt 0 view .LVU593
 1851 01ba 0026     		movs	r6, #0
 1852              	.LVL206:
 1853              	.L117:
 692:Middlewares/Third_Party/LwIP/src/core/ipv4/ip4_frag.c **** #endif /* IP_REASSEMBLY */
 1854              		.loc 1 692 1 view .LVU594
 1855 01bc 3046     		mov	r0, r6
 1856 01be BDE8F883 		pop	{r3, r4, r5, r6, r7, r8, r9, pc}
 1857              	.LVL207:
 1858              	.L147:
 680:Middlewares/Third_Party/LwIP/src/core/ipv4/ip4_frag.c ****   if (ipr->p == NULL) {
 1859              		.loc 1 680 3 is_stmt 1 discriminator 1 view .LVU595
 680:Middlewares/Third_Party/LwIP/src/core/ipv4/ip4_frag.c ****   if (ipr->p == NULL) {
 1860              		.loc 1 680 3 discriminator 1 view .LVU596
 1861 01c2 0E4B     		ldr	r3, .L149+8
 1862 01c4 4FF42A72 		mov	r2, #680
 1863 01c8 0F49     		ldr	r1, .L149+20
 1864 01ca 0E48     		ldr	r0, .L149+16
 1865 01cc FFF7FEFF 		bl	printf
 1866              	.LVL208:
 1867 01d0 EEE7     		b	.L136
 1868              	.L148:
 683:Middlewares/Third_Party/LwIP/src/core/ipv4/ip4_frag.c ****     ip_reass_dequeue_datagram(ipr, NULL);
 1869              		.loc 1 683 5 view .LVU597
 683:Middlewares/Third_Party/LwIP/src/core/ipv4/ip4_frag.c ****     ip_reass_dequeue_datagram(ipr, NULL);
 1870              		.loc 1 683 5 view .LVU598
 1871 01d2 094B     		ldr	r3, .L149+4
 1872 01d4 1B68     		ldr	r3, [r3]
ARM GAS  /var/folders/bg/n1lwdyp56391g865_v8nrmhm0000gn/T//ccZDTuvB.s 			page 57


 1873 01d6 A342     		cmp	r3, r4
 1874 01d8 06D0     		beq	.L137
 683:Middlewares/Third_Party/LwIP/src/core/ipv4/ip4_frag.c ****     ip_reass_dequeue_datagram(ipr, NULL);
 1875              		.loc 1 683 5 discriminator 1 view .LVU599
 683:Middlewares/Third_Party/LwIP/src/core/ipv4/ip4_frag.c ****     ip_reass_dequeue_datagram(ipr, NULL);
 1876              		.loc 1 683 5 discriminator 1 view .LVU600
 1877 01da 084B     		ldr	r3, .L149+8
 1878 01dc 40F2AB22 		movw	r2, #683
 1879 01e0 0A49     		ldr	r1, .L149+24
 1880 01e2 0848     		ldr	r0, .L149+16
 1881 01e4 FFF7FEFF 		bl	printf
 1882              	.LVL209:
 1883              	.L137:
 683:Middlewares/Third_Party/LwIP/src/core/ipv4/ip4_frag.c ****     ip_reass_dequeue_datagram(ipr, NULL);
 1884              		.loc 1 683 5 discriminator 3 view .LVU601
 683:Middlewares/Third_Party/LwIP/src/core/ipv4/ip4_frag.c ****     ip_reass_dequeue_datagram(ipr, NULL);
 1885              		.loc 1 683 5 discriminator 3 view .LVU602
 684:Middlewares/Third_Party/LwIP/src/core/ipv4/ip4_frag.c ****   }
 1886              		.loc 1 684 5 discriminator 3 view .LVU603
 1887 01e8 0021     		movs	r1, #0
 1888 01ea 2046     		mov	r0, r4
 1889 01ec FFF7FEFF 		bl	ip_reass_dequeue_datagram
 1890              	.LVL210:
 1891 01f0 E0E7     		b	.L118
 1892              	.L150:
 1893 01f2 00BF     		.align	2
 1894              	.L149:
 1895 01f4 00000000 		.word	.LANCHOR1
 1896 01f8 00000000 		.word	.LANCHOR0
 1897 01fc 00000000 		.word	.LC0
 1898 0200 00000000 		.word	.LC13
 1899 0204 54000000 		.word	.LC2
 1900 0208 1C000000 		.word	.LC14
 1901 020c 28000000 		.word	.LC15
 1902              		.cfi_endproc
 1903              	.LFE173:
 1905              		.section	.rodata.ip4_frag.str1.4,"aMS",%progbits,1
 1906              		.align	2
 1907              	.LC16:
 1908 0000 6970345F 		.ascii	"ip4_frag(): pbuf too short\000"
 1908      66726167 
 1908      28293A20 
 1908      70627566 
 1908      20746F6F 
 1909 001b 00       		.align	2
 1910              	.LC17:
 1911 001c 74686973 		.ascii	"this needs a pbuf in one piece!\000"
 1911      206E6565 
 1911      64732061 
 1911      20706275 
 1911      6620696E 
 1912              		.align	2
 1913              	.LC18:
 1914 003c 702D3E6C 		.ascii	"p->len >= poff\000"
 1914      656E203E 
 1914      3D20706F 
 1914      666600
ARM GAS  /var/folders/bg/n1lwdyp56391g865_v8nrmhm0000gn/T//ccZDTuvB.s 			page 58


 1915              		.section	.text.ip4_frag,"ax",%progbits
 1916              		.align	1
 1917              		.global	ip4_frag
 1918              		.syntax unified
 1919              		.thumb
 1920              		.thumb_func
 1921              		.fpu fpv5-d16
 1923              	ip4_frag:
 1924              	.LVL211:
 1925              	.LFB177:
 725:Middlewares/Third_Party/LwIP/src/core/ipv4/ip4_frag.c **** #endif /* !LWIP_NETIF_TX_SINGLE_PBUF */
 726:Middlewares/Third_Party/LwIP/src/core/ipv4/ip4_frag.c **** 
 727:Middlewares/Third_Party/LwIP/src/core/ipv4/ip4_frag.c **** /**
 728:Middlewares/Third_Party/LwIP/src/core/ipv4/ip4_frag.c ****  * Fragment an IP datagram if too large for the netif.
 729:Middlewares/Third_Party/LwIP/src/core/ipv4/ip4_frag.c ****  *
 730:Middlewares/Third_Party/LwIP/src/core/ipv4/ip4_frag.c ****  * Chop the datagram in MTU sized chunks and send them in order
 731:Middlewares/Third_Party/LwIP/src/core/ipv4/ip4_frag.c ****  * by pointing PBUF_REFs into p.
 732:Middlewares/Third_Party/LwIP/src/core/ipv4/ip4_frag.c ****  *
 733:Middlewares/Third_Party/LwIP/src/core/ipv4/ip4_frag.c ****  * @param p ip packet to send
 734:Middlewares/Third_Party/LwIP/src/core/ipv4/ip4_frag.c ****  * @param netif the netif on which to send
 735:Middlewares/Third_Party/LwIP/src/core/ipv4/ip4_frag.c ****  * @param dest destination ip address to which to send
 736:Middlewares/Third_Party/LwIP/src/core/ipv4/ip4_frag.c ****  *
 737:Middlewares/Third_Party/LwIP/src/core/ipv4/ip4_frag.c ****  * @return ERR_OK if sent successfully, err_t otherwise
 738:Middlewares/Third_Party/LwIP/src/core/ipv4/ip4_frag.c ****  */
 739:Middlewares/Third_Party/LwIP/src/core/ipv4/ip4_frag.c **** err_t
 740:Middlewares/Third_Party/LwIP/src/core/ipv4/ip4_frag.c **** ip4_frag(struct pbuf *p, struct netif *netif, const ip4_addr_t *dest)
 741:Middlewares/Third_Party/LwIP/src/core/ipv4/ip4_frag.c **** {
 1926              		.loc 1 741 1 view -0
 1927              		.cfi_startproc
 1928              		@ args = 0, pretend = 0, frame = 32
 1929              		@ frame_needed = 0, uses_anonymous_args = 0
 1930              		.loc 1 741 1 is_stmt 0 view .LVU605
 1931 0000 2DE9F04F 		push	{r4, r5, r6, r7, r8, r9, r10, fp, lr}
 1932              	.LCFI10:
 1933              		.cfi_def_cfa_offset 36
 1934              		.cfi_offset 4, -36
 1935              		.cfi_offset 5, -32
 1936              		.cfi_offset 6, -28
 1937              		.cfi_offset 7, -24
 1938              		.cfi_offset 8, -20
 1939              		.cfi_offset 9, -16
 1940              		.cfi_offset 10, -12
 1941              		.cfi_offset 11, -8
 1942              		.cfi_offset 14, -4
 1943 0004 8BB0     		sub	sp, sp, #44
 1944              	.LCFI11:
 1945              		.cfi_def_cfa_offset 80
 1946 0006 0646     		mov	r6, r0
 1947 0008 0691     		str	r1, [sp, #24]
 1948 000a 0892     		str	r2, [sp, #32]
 742:Middlewares/Third_Party/LwIP/src/core/ipv4/ip4_frag.c ****   struct pbuf *rambuf;
 1949              		.loc 1 742 3 is_stmt 1 view .LVU606
 743:Middlewares/Third_Party/LwIP/src/core/ipv4/ip4_frag.c **** #if !LWIP_NETIF_TX_SINGLE_PBUF
 744:Middlewares/Third_Party/LwIP/src/core/ipv4/ip4_frag.c ****   struct pbuf *newpbuf;
 1950              		.loc 1 744 3 view .LVU607
 745:Middlewares/Third_Party/LwIP/src/core/ipv4/ip4_frag.c ****   u16_t newpbuflen = 0;
 1951              		.loc 1 745 3 view .LVU608
ARM GAS  /var/folders/bg/n1lwdyp56391g865_v8nrmhm0000gn/T//ccZDTuvB.s 			page 59


 1952              	.LVL212:
 746:Middlewares/Third_Party/LwIP/src/core/ipv4/ip4_frag.c ****   u16_t left_to_copy;
 1953              		.loc 1 746 3 view .LVU609
 747:Middlewares/Third_Party/LwIP/src/core/ipv4/ip4_frag.c **** #endif
 748:Middlewares/Third_Party/LwIP/src/core/ipv4/ip4_frag.c ****   struct ip_hdr *original_iphdr;
 1954              		.loc 1 748 3 view .LVU610
 749:Middlewares/Third_Party/LwIP/src/core/ipv4/ip4_frag.c ****   struct ip_hdr *iphdr;
 1955              		.loc 1 749 3 view .LVU611
 750:Middlewares/Third_Party/LwIP/src/core/ipv4/ip4_frag.c ****   const u16_t nfb = (u16_t)((netif->mtu - IP_HLEN) / 8);
 1956              		.loc 1 750 3 view .LVU612
 1957              		.loc 1 750 35 is_stmt 0 view .LVU613
 1958 000c 8B8C     		ldrh	r3, [r1, #36]
 1959              		.loc 1 750 52 view .LVU614
 1960 000e 143B     		subs	r3, r3, #20
 1961 0010 4DD4     		bmi	.L169
 1962              	.L152:
 1963              		.loc 1 750 15 view .LVU615
 1964 0012 C3F3CF03 		ubfx	r3, r3, #3, #16
 1965 0016 0493     		str	r3, [sp, #16]
 1966              	.LVL213:
 751:Middlewares/Third_Party/LwIP/src/core/ipv4/ip4_frag.c ****   u16_t left, fragsize;
 1967              		.loc 1 751 3 is_stmt 1 view .LVU616
 752:Middlewares/Third_Party/LwIP/src/core/ipv4/ip4_frag.c ****   u16_t ofo;
 1968              		.loc 1 752 3 view .LVU617
 753:Middlewares/Third_Party/LwIP/src/core/ipv4/ip4_frag.c ****   int last;
 1969              		.loc 1 753 3 view .LVU618
 754:Middlewares/Third_Party/LwIP/src/core/ipv4/ip4_frag.c ****   u16_t poff = IP_HLEN;
 1970              		.loc 1 754 3 view .LVU619
 755:Middlewares/Third_Party/LwIP/src/core/ipv4/ip4_frag.c ****   u16_t tmp;
 1971              		.loc 1 755 3 view .LVU620
 756:Middlewares/Third_Party/LwIP/src/core/ipv4/ip4_frag.c ****   int mf_set;
 1972              		.loc 1 756 3 view .LVU621
 757:Middlewares/Third_Party/LwIP/src/core/ipv4/ip4_frag.c **** 
 758:Middlewares/Third_Party/LwIP/src/core/ipv4/ip4_frag.c ****   original_iphdr = (struct ip_hdr *)p->payload;
 1973              		.loc 1 758 3 view .LVU622
 1974              		.loc 1 758 18 is_stmt 0 view .LVU623
 1975 0018 D6F804B0 		ldr	fp, [r6, #4]
 1976              	.LVL214:
 759:Middlewares/Third_Party/LwIP/src/core/ipv4/ip4_frag.c ****   iphdr = original_iphdr;
 1977              		.loc 1 759 3 is_stmt 1 view .LVU624
 760:Middlewares/Third_Party/LwIP/src/core/ipv4/ip4_frag.c ****   if (IPH_HL_BYTES(iphdr) != IP_HLEN) {
 1978              		.loc 1 760 3 view .LVU625
 1979              		.loc 1 760 7 is_stmt 0 view .LVU626
 1980 001c 9BF80030 		ldrb	r3, [fp]	@ zero_extendqisi2
 1981 0020 03F00F03 		and	r3, r3, #15
 1982              		.loc 1 760 6 view .LVU627
 1983 0024 052B     		cmp	r3, #5
 1984 0026 40F0D580 		bne	.L166
 761:Middlewares/Third_Party/LwIP/src/core/ipv4/ip4_frag.c ****     /* ip4_frag() does not support IP options */
 762:Middlewares/Third_Party/LwIP/src/core/ipv4/ip4_frag.c ****     return ERR_VAL;
 763:Middlewares/Third_Party/LwIP/src/core/ipv4/ip4_frag.c ****   }
 764:Middlewares/Third_Party/LwIP/src/core/ipv4/ip4_frag.c ****   LWIP_ERROR("ip4_frag(): pbuf too short", p->len >= IP_HLEN, return ERR_VAL);
 1985              		.loc 1 764 3 is_stmt 1 view .LVU628
 1986              		.loc 1 764 3 view .LVU629
 1987 002a 7389     		ldrh	r3, [r6, #10]
 1988 002c 132B     		cmp	r3, #19
 1989 002e 40D9     		bls	.L170
ARM GAS  /var/folders/bg/n1lwdyp56391g865_v8nrmhm0000gn/T//ccZDTuvB.s 			page 60


 1990              		.loc 1 764 3 discriminator 2 view .LVU630
 765:Middlewares/Third_Party/LwIP/src/core/ipv4/ip4_frag.c **** 
 766:Middlewares/Third_Party/LwIP/src/core/ipv4/ip4_frag.c ****   /* Save original offset */
 767:Middlewares/Third_Party/LwIP/src/core/ipv4/ip4_frag.c ****   tmp = lwip_ntohs(IPH_OFFSET(iphdr));
 1991              		.loc 1 767 3 discriminator 2 view .LVU631
 1992              		.loc 1 767 9 is_stmt 0 discriminator 2 view .LVU632
 1993 0030 BBF80600 		ldrh	r0, [fp, #6]	@ unaligned
 1994              	.LVL215:
 1995              		.loc 1 767 9 discriminator 2 view .LVU633
 1996 0034 FFF7FEFF 		bl	lwip_htons
 1997              	.LVL216:
 768:Middlewares/Third_Party/LwIP/src/core/ipv4/ip4_frag.c ****   ofo = tmp & IP_OFFMASK;
 1998              		.loc 1 768 3 is_stmt 1 discriminator 2 view .LVU634
 1999              		.loc 1 768 7 is_stmt 0 discriminator 2 view .LVU635
 2000 0038 C0F30C03 		ubfx	r3, r0, #0, #13
 2001 003c 0593     		str	r3, [sp, #20]
 2002              	.LVL217:
 769:Middlewares/Third_Party/LwIP/src/core/ipv4/ip4_frag.c ****   /* already fragmented? if so, the last fragment we create must have MF, too */
 770:Middlewares/Third_Party/LwIP/src/core/ipv4/ip4_frag.c ****   mf_set = tmp & IP_MF;
 2003              		.loc 1 770 3 is_stmt 1 discriminator 2 view .LVU636
 2004 003e 00F40053 		and	r3, r0, #8192
 2005 0042 0993     		str	r3, [sp, #36]
 2006              	.LVL218:
 771:Middlewares/Third_Party/LwIP/src/core/ipv4/ip4_frag.c **** 
 772:Middlewares/Third_Party/LwIP/src/core/ipv4/ip4_frag.c ****   left = (u16_t)(p->tot_len - IP_HLEN);
 2007              		.loc 1 772 3 discriminator 2 view .LVU637
 2008              		.loc 1 772 19 is_stmt 0 discriminator 2 view .LVU638
 2009 0044 3389     		ldrh	r3, [r6, #8]
 2010              		.loc 1 772 8 discriminator 2 view .LVU639
 2011 0046 143B     		subs	r3, r3, #20
 2012 0048 9BB2     		uxth	r3, r3
 2013 004a 0293     		str	r3, [sp, #8]
 2014              	.LVL219:
 773:Middlewares/Third_Party/LwIP/src/core/ipv4/ip4_frag.c **** 
 774:Middlewares/Third_Party/LwIP/src/core/ipv4/ip4_frag.c ****   while (left) {
 2015              		.loc 1 774 3 is_stmt 1 discriminator 2 view .LVU640
 754:Middlewares/Third_Party/LwIP/src/core/ipv4/ip4_frag.c ****   u16_t tmp;
 2016              		.loc 1 754 9 is_stmt 0 discriminator 2 view .LVU641
 2017 004c 1427     		movs	r7, #20
 745:Middlewares/Third_Party/LwIP/src/core/ipv4/ip4_frag.c ****   u16_t left_to_copy;
 2018              		.loc 1 745 9 discriminator 2 view .LVU642
 2019 004e 0024     		movs	r4, #0
 2020              	.LVL220:
 2021              	.L155:
 2022              		.loc 1 774 9 is_stmt 1 view .LVU643
 2023 0050 029B     		ldr	r3, [sp, #8]
 2024 0052 002B     		cmp	r3, #0
 2025 0054 00F0BC80 		beq	.L171
 775:Middlewares/Third_Party/LwIP/src/core/ipv4/ip4_frag.c ****     /* Fill this fragment */
 776:Middlewares/Third_Party/LwIP/src/core/ipv4/ip4_frag.c ****     fragsize = LWIP_MIN(left, (u16_t)(nfb * 8));
 2026              		.loc 1 776 5 view .LVU644
 2027              		.loc 1 776 16 is_stmt 0 view .LVU645
 2028 0058 049B     		ldr	r3, [sp, #16]
 2029 005a DB00     		lsls	r3, r3, #3
 2030 005c 9BB2     		uxth	r3, r3
 2031              		.loc 1 776 14 view .LVU646
 2032 005e 029A     		ldr	r2, [sp, #8]
ARM GAS  /var/folders/bg/n1lwdyp56391g865_v8nrmhm0000gn/T//ccZDTuvB.s 			page 61


 2033 0060 9342     		cmp	r3, r2
 2034 0062 28BF     		it	cs
 2035 0064 1346     		movcs	r3, r2
 2036 0066 0393     		str	r3, [sp, #12]
 2037              	.LVL221:
 777:Middlewares/Third_Party/LwIP/src/core/ipv4/ip4_frag.c **** 
 778:Middlewares/Third_Party/LwIP/src/core/ipv4/ip4_frag.c **** #if LWIP_NETIF_TX_SINGLE_PBUF
 779:Middlewares/Third_Party/LwIP/src/core/ipv4/ip4_frag.c ****     rambuf = pbuf_alloc(PBUF_IP, fragsize, PBUF_RAM);
 780:Middlewares/Third_Party/LwIP/src/core/ipv4/ip4_frag.c ****     if (rambuf == NULL) {
 781:Middlewares/Third_Party/LwIP/src/core/ipv4/ip4_frag.c ****       goto memerr;
 782:Middlewares/Third_Party/LwIP/src/core/ipv4/ip4_frag.c ****     }
 783:Middlewares/Third_Party/LwIP/src/core/ipv4/ip4_frag.c ****     LWIP_ASSERT("this needs a pbuf in one piece!",
 784:Middlewares/Third_Party/LwIP/src/core/ipv4/ip4_frag.c ****                 (rambuf->len == rambuf->tot_len) && (rambuf->next == NULL));
 785:Middlewares/Third_Party/LwIP/src/core/ipv4/ip4_frag.c ****     poff += pbuf_copy_partial(p, rambuf->payload, fragsize, poff);
 786:Middlewares/Third_Party/LwIP/src/core/ipv4/ip4_frag.c ****     /* make room for the IP header */
 787:Middlewares/Third_Party/LwIP/src/core/ipv4/ip4_frag.c ****     if (pbuf_add_header(rambuf, IP_HLEN)) {
 788:Middlewares/Third_Party/LwIP/src/core/ipv4/ip4_frag.c ****       pbuf_free(rambuf);
 789:Middlewares/Third_Party/LwIP/src/core/ipv4/ip4_frag.c ****       goto memerr;
 790:Middlewares/Third_Party/LwIP/src/core/ipv4/ip4_frag.c ****     }
 791:Middlewares/Third_Party/LwIP/src/core/ipv4/ip4_frag.c ****     /* fill in the IP header */
 792:Middlewares/Third_Party/LwIP/src/core/ipv4/ip4_frag.c ****     SMEMCPY(rambuf->payload, original_iphdr, IP_HLEN);
 793:Middlewares/Third_Party/LwIP/src/core/ipv4/ip4_frag.c ****     iphdr = (struct ip_hdr *)rambuf->payload;
 794:Middlewares/Third_Party/LwIP/src/core/ipv4/ip4_frag.c **** #else /* LWIP_NETIF_TX_SINGLE_PBUF */
 795:Middlewares/Third_Party/LwIP/src/core/ipv4/ip4_frag.c ****     /* When not using a static buffer, create a chain of pbufs.
 796:Middlewares/Third_Party/LwIP/src/core/ipv4/ip4_frag.c ****      * The first will be a PBUF_RAM holding the link and IP header.
 797:Middlewares/Third_Party/LwIP/src/core/ipv4/ip4_frag.c ****      * The rest will be PBUF_REFs mirroring the pbuf chain to be fragged,
 798:Middlewares/Third_Party/LwIP/src/core/ipv4/ip4_frag.c ****      * but limited to the size of an mtu.
 799:Middlewares/Third_Party/LwIP/src/core/ipv4/ip4_frag.c ****      */
 800:Middlewares/Third_Party/LwIP/src/core/ipv4/ip4_frag.c ****     rambuf = pbuf_alloc(PBUF_LINK, IP_HLEN, PBUF_RAM);
 2038              		.loc 1 800 5 is_stmt 1 view .LVU647
 2039              		.loc 1 800 14 is_stmt 0 view .LVU648
 2040 0068 4FF42072 		mov	r2, #640
 2041 006c 1421     		movs	r1, #20
 2042 006e 0E20     		movs	r0, #14
 2043 0070 FFF7FEFF 		bl	pbuf_alloc
 2044              	.LVL222:
 801:Middlewares/Third_Party/LwIP/src/core/ipv4/ip4_frag.c ****     if (rambuf == NULL) {
 2045              		.loc 1 801 5 is_stmt 1 view .LVU649
 2046              		.loc 1 801 8 is_stmt 0 view .LVU650
 2047 0074 8246     		mov	r10, r0
 2048 0076 0028     		cmp	r0, #0
 2049 0078 00F0AF80 		beq	.L167
 802:Middlewares/Third_Party/LwIP/src/core/ipv4/ip4_frag.c ****       goto memerr;
 803:Middlewares/Third_Party/LwIP/src/core/ipv4/ip4_frag.c ****     }
 804:Middlewares/Third_Party/LwIP/src/core/ipv4/ip4_frag.c ****     LWIP_ASSERT("this needs a pbuf in one piece!",
 2050              		.loc 1 804 5 is_stmt 1 view .LVU651
 2051              		.loc 1 804 5 view .LVU652
 2052 007c 4389     		ldrh	r3, [r0, #10]
 2053 007e 132B     		cmp	r3, #19
 2054 0080 21D9     		bls	.L172
 2055              	.LVL223:
 2056              	.L156:
 2057              		.loc 1 804 5 discriminator 3 view .LVU653
 2058              		.loc 1 804 5 discriminator 3 view .LVU654
 805:Middlewares/Third_Party/LwIP/src/core/ipv4/ip4_frag.c ****                 (rambuf->len >= (IP_HLEN)));
 806:Middlewares/Third_Party/LwIP/src/core/ipv4/ip4_frag.c ****     SMEMCPY(rambuf->payload, original_iphdr, IP_HLEN);
 2059              		.loc 1 806 5 discriminator 3 view .LVU655
ARM GAS  /var/folders/bg/n1lwdyp56391g865_v8nrmhm0000gn/T//ccZDTuvB.s 			page 62


 2060 0082 DAF80430 		ldr	r3, [r10, #4]
 2061 0086 DBF80020 		ldr	r2, [fp]	@ unaligned
 2062 008a DBF80450 		ldr	r5, [fp, #4]	@ unaligned
 2063 008e DBF80800 		ldr	r0, [fp, #8]	@ unaligned
 2064 0092 DBF80C10 		ldr	r1, [fp, #12]	@ unaligned
 2065 0096 1A60     		str	r2, [r3]	@ unaligned
 2066 0098 5D60     		str	r5, [r3, #4]	@ unaligned
 2067 009a 9860     		str	r0, [r3, #8]	@ unaligned
 2068 009c D960     		str	r1, [r3, #12]	@ unaligned
 2069 009e DBF81020 		ldr	r2, [fp, #16]	@ unaligned
 2070 00a2 1A61     		str	r2, [r3, #16]	@ unaligned
 807:Middlewares/Third_Party/LwIP/src/core/ipv4/ip4_frag.c ****     iphdr = (struct ip_hdr *)rambuf->payload;
 2071              		.loc 1 807 5 discriminator 3 view .LVU656
 2072              		.loc 1 807 11 is_stmt 0 discriminator 3 view .LVU657
 2073 00a4 DAF80430 		ldr	r3, [r10, #4]
 2074 00a8 0793     		str	r3, [sp, #28]
 2075              	.LVL224:
 808:Middlewares/Third_Party/LwIP/src/core/ipv4/ip4_frag.c **** 
 809:Middlewares/Third_Party/LwIP/src/core/ipv4/ip4_frag.c ****     left_to_copy = fragsize;
 2076              		.loc 1 809 5 is_stmt 1 discriminator 3 view .LVU658
 810:Middlewares/Third_Party/LwIP/src/core/ipv4/ip4_frag.c ****     while (left_to_copy) {
 2077              		.loc 1 810 5 discriminator 3 view .LVU659
 809:Middlewares/Third_Party/LwIP/src/core/ipv4/ip4_frag.c ****     while (left_to_copy) {
 2078              		.loc 1 809 18 is_stmt 0 discriminator 3 view .LVU660
 2079 00aa 039D     		ldr	r5, [sp, #12]
 2080              		.loc 1 810 11 discriminator 3 view .LVU661
 2081 00ac 3CE0     		b	.L157
 2082              	.LVL225:
 2083              	.L169:
 750:Middlewares/Third_Party/LwIP/src/core/ipv4/ip4_frag.c ****   u16_t left, fragsize;
 2084              		.loc 1 750 52 view .LVU662
 2085 00ae 0733     		adds	r3, r3, #7
 2086 00b0 AFE7     		b	.L152
 2087              	.LVL226:
 2088              	.L170:
 764:Middlewares/Third_Party/LwIP/src/core/ipv4/ip4_frag.c **** 
 2089              		.loc 1 764 3 is_stmt 1 discriminator 1 view .LVU663
 764:Middlewares/Third_Party/LwIP/src/core/ipv4/ip4_frag.c **** 
 2090              		.loc 1 764 3 discriminator 1 view .LVU664
 2091 00b2 4B4B     		ldr	r3, .L177
 2092 00b4 4FF43F72 		mov	r2, #764
 2093              	.LVL227:
 764:Middlewares/Third_Party/LwIP/src/core/ipv4/ip4_frag.c **** 
 2094              		.loc 1 764 3 is_stmt 0 discriminator 1 view .LVU665
 2095 00b8 4A49     		ldr	r1, .L177+4
 2096              	.LVL228:
 764:Middlewares/Third_Party/LwIP/src/core/ipv4/ip4_frag.c **** 
 2097              		.loc 1 764 3 discriminator 1 view .LVU666
 2098 00ba 4B48     		ldr	r0, .L177+8
 2099              	.LVL229:
 764:Middlewares/Third_Party/LwIP/src/core/ipv4/ip4_frag.c **** 
 2100              		.loc 1 764 3 discriminator 1 view .LVU667
 2101 00bc FFF7FEFF 		bl	printf
 2102              	.LVL230:
 764:Middlewares/Third_Party/LwIP/src/core/ipv4/ip4_frag.c **** 
 2103              		.loc 1 764 3 is_stmt 1 discriminator 1 view .LVU668
 764:Middlewares/Third_Party/LwIP/src/core/ipv4/ip4_frag.c **** 
ARM GAS  /var/folders/bg/n1lwdyp56391g865_v8nrmhm0000gn/T//ccZDTuvB.s 			page 63


 2104              		.loc 1 764 3 discriminator 1 view .LVU669
 2105 00c0 6FF00500 		mvn	r0, #5
 2106 00c4 43E0     		b	.L153
 2107              	.LVL231:
 2108              	.L172:
 804:Middlewares/Third_Party/LwIP/src/core/ipv4/ip4_frag.c ****                 (rambuf->len >= (IP_HLEN)));
 2109              		.loc 1 804 5 discriminator 1 view .LVU670
 804:Middlewares/Third_Party/LwIP/src/core/ipv4/ip4_frag.c ****                 (rambuf->len >= (IP_HLEN)));
 2110              		.loc 1 804 5 discriminator 1 view .LVU671
 2111 00c6 464B     		ldr	r3, .L177
 2112 00c8 4FF44972 		mov	r2, #804
 2113 00cc 4749     		ldr	r1, .L177+12
 2114 00ce 4648     		ldr	r0, .L177+8
 2115              	.LVL232:
 804:Middlewares/Third_Party/LwIP/src/core/ipv4/ip4_frag.c ****                 (rambuf->len >= (IP_HLEN)));
 2116              		.loc 1 804 5 is_stmt 0 discriminator 1 view .LVU672
 2117 00d0 FFF7FEFF 		bl	printf
 2118              	.LVL233:
 2119 00d4 D5E7     		b	.L156
 2120              	.LVL234:
 2121              	.L176:
 2122              	.LBB8:
 811:Middlewares/Third_Party/LwIP/src/core/ipv4/ip4_frag.c ****       struct pbuf_custom_ref *pcr;
 812:Middlewares/Third_Party/LwIP/src/core/ipv4/ip4_frag.c ****       u16_t plen = (u16_t)(p->len - poff);
 813:Middlewares/Third_Party/LwIP/src/core/ipv4/ip4_frag.c ****       LWIP_ASSERT("p->len >= poff", p->len >= poff);
 2123              		.loc 1 813 7 is_stmt 1 discriminator 1 view .LVU673
 2124              		.loc 1 813 7 discriminator 1 view .LVU674
 2125 00d6 424B     		ldr	r3, .L177
 2126 00d8 40F22D32 		movw	r2, #813
 2127 00dc 4449     		ldr	r1, .L177+16
 2128 00de 4248     		ldr	r0, .L177+8
 2129 00e0 FFF7FEFF 		bl	printf
 2130              	.LVL235:
 2131 00e4 26E0     		b	.L158
 2132              	.LVL236:
 2133              	.L159:
 814:Middlewares/Third_Party/LwIP/src/core/ipv4/ip4_frag.c ****       newpbuflen = LWIP_MIN(left_to_copy, plen);
 815:Middlewares/Third_Party/LwIP/src/core/ipv4/ip4_frag.c ****       /* Is this pbuf already empty? */
 816:Middlewares/Third_Party/LwIP/src/core/ipv4/ip4_frag.c ****       if (!newpbuflen) {
 817:Middlewares/Third_Party/LwIP/src/core/ipv4/ip4_frag.c ****         poff = 0;
 818:Middlewares/Third_Party/LwIP/src/core/ipv4/ip4_frag.c ****         p = p->next;
 819:Middlewares/Third_Party/LwIP/src/core/ipv4/ip4_frag.c ****         continue;
 820:Middlewares/Third_Party/LwIP/src/core/ipv4/ip4_frag.c ****       }
 821:Middlewares/Third_Party/LwIP/src/core/ipv4/ip4_frag.c ****       pcr = ip_frag_alloc_pbuf_custom_ref();
 2134              		.loc 1 821 7 view .LVU675
 2135              		.loc 1 821 13 is_stmt 0 view .LVU676
 2136 00e6 FFF7FEFF 		bl	ip_frag_alloc_pbuf_custom_ref
 2137              	.LVL237:
 822:Middlewares/Third_Party/LwIP/src/core/ipv4/ip4_frag.c ****       if (pcr == NULL) {
 2138              		.loc 1 822 7 is_stmt 1 view .LVU677
 2139              		.loc 1 822 10 is_stmt 0 view .LVU678
 2140 00ea 8046     		mov	r8, r0
 2141 00ec 50B3     		cbz	r0, .L173
 823:Middlewares/Third_Party/LwIP/src/core/ipv4/ip4_frag.c ****         pbuf_free(rambuf);
 824:Middlewares/Third_Party/LwIP/src/core/ipv4/ip4_frag.c ****         goto memerr;
 825:Middlewares/Third_Party/LwIP/src/core/ipv4/ip4_frag.c ****       }
 826:Middlewares/Third_Party/LwIP/src/core/ipv4/ip4_frag.c ****       /* Mirror this pbuf, although we might not need all of it. */
ARM GAS  /var/folders/bg/n1lwdyp56391g865_v8nrmhm0000gn/T//ccZDTuvB.s 			page 64


 827:Middlewares/Third_Party/LwIP/src/core/ipv4/ip4_frag.c ****       newpbuf = pbuf_alloced_custom(PBUF_RAW, newpbuflen, PBUF_REF, &pcr->pc,
 2142              		.loc 1 827 7 is_stmt 1 view .LVU679
 828:Middlewares/Third_Party/LwIP/src/core/ipv4/ip4_frag.c ****                                     (u8_t *)p->payload + poff, newpbuflen);
 2143              		.loc 1 828 46 is_stmt 0 view .LVU680
 2144 00ee 7368     		ldr	r3, [r6, #4]
 827:Middlewares/Third_Party/LwIP/src/core/ipv4/ip4_frag.c ****                                     (u8_t *)p->payload + poff, newpbuflen);
 2145              		.loc 1 827 17 view .LVU681
 2146 00f0 0194     		str	r4, [sp, #4]
 2147 00f2 3B44     		add	r3, r3, r7
 2148 00f4 0093     		str	r3, [sp]
 2149 00f6 0346     		mov	r3, r0
 2150 00f8 4122     		movs	r2, #65
 2151 00fa 2146     		mov	r1, r4
 2152 00fc 0020     		movs	r0, #0
 2153              	.LVL238:
 827:Middlewares/Third_Party/LwIP/src/core/ipv4/ip4_frag.c ****                                     (u8_t *)p->payload + poff, newpbuflen);
 2154              		.loc 1 827 17 view .LVU682
 2155 00fe FFF7FEFF 		bl	pbuf_alloced_custom
 2156              	.LVL239:
 829:Middlewares/Third_Party/LwIP/src/core/ipv4/ip4_frag.c ****       if (newpbuf == NULL) {
 2157              		.loc 1 829 7 is_stmt 1 view .LVU683
 2158              		.loc 1 829 10 is_stmt 0 view .LVU684
 2159 0102 8146     		mov	r9, r0
 2160 0104 30B3     		cbz	r0, .L174
 830:Middlewares/Third_Party/LwIP/src/core/ipv4/ip4_frag.c ****         ip_frag_free_pbuf_custom_ref(pcr);
 831:Middlewares/Third_Party/LwIP/src/core/ipv4/ip4_frag.c ****         pbuf_free(rambuf);
 832:Middlewares/Third_Party/LwIP/src/core/ipv4/ip4_frag.c ****         goto memerr;
 833:Middlewares/Third_Party/LwIP/src/core/ipv4/ip4_frag.c ****       }
 834:Middlewares/Third_Party/LwIP/src/core/ipv4/ip4_frag.c ****       pbuf_ref(p);
 2161              		.loc 1 834 7 is_stmt 1 view .LVU685
 2162 0106 3046     		mov	r0, r6
 2163              	.LVL240:
 2164              		.loc 1 834 7 is_stmt 0 view .LVU686
 2165 0108 FFF7FEFF 		bl	pbuf_ref
 2166              	.LVL241:
 835:Middlewares/Third_Party/LwIP/src/core/ipv4/ip4_frag.c ****       pcr->original = p;
 2167              		.loc 1 835 7 is_stmt 1 view .LVU687
 2168              		.loc 1 835 21 is_stmt 0 view .LVU688
 2169 010c C8F81460 		str	r6, [r8, #20]
 836:Middlewares/Third_Party/LwIP/src/core/ipv4/ip4_frag.c ****       pcr->pc.custom_free_function = ipfrag_free_pbuf_custom;
 2170              		.loc 1 836 7 is_stmt 1 view .LVU689
 2171              		.loc 1 836 36 is_stmt 0 view .LVU690
 2172 0110 384B     		ldr	r3, .L177+20
 2173 0112 C8F81030 		str	r3, [r8, #16]
 837:Middlewares/Third_Party/LwIP/src/core/ipv4/ip4_frag.c **** 
 838:Middlewares/Third_Party/LwIP/src/core/ipv4/ip4_frag.c ****       /* Add it to end of rambuf's chain, but using pbuf_cat, not pbuf_chain
 839:Middlewares/Third_Party/LwIP/src/core/ipv4/ip4_frag.c ****        * so that it is removed when pbuf_dechain is later called on rambuf.
 840:Middlewares/Third_Party/LwIP/src/core/ipv4/ip4_frag.c ****        */
 841:Middlewares/Third_Party/LwIP/src/core/ipv4/ip4_frag.c ****       pbuf_cat(rambuf, newpbuf);
 2174              		.loc 1 841 7 is_stmt 1 view .LVU691
 2175 0116 4946     		mov	r1, r9
 2176 0118 5046     		mov	r0, r10
 2177 011a FFF7FEFF 		bl	pbuf_cat
 2178              	.LVL242:
 842:Middlewares/Third_Party/LwIP/src/core/ipv4/ip4_frag.c ****       left_to_copy = (u16_t)(left_to_copy - newpbuflen);
 2179              		.loc 1 842 7 view .LVU692
 2180              		.loc 1 842 20 is_stmt 0 view .LVU693
ARM GAS  /var/folders/bg/n1lwdyp56391g865_v8nrmhm0000gn/T//ccZDTuvB.s 			page 65


 2181 011e 2D1B     		subs	r5, r5, r4
 2182              	.LVL243:
 2183              		.loc 1 842 20 view .LVU694
 2184 0120 ADB2     		uxth	r5, r5
 2185              	.LVL244:
 843:Middlewares/Third_Party/LwIP/src/core/ipv4/ip4_frag.c ****       if (left_to_copy) {
 2186              		.loc 1 843 7 is_stmt 1 view .LVU695
 2187              		.loc 1 843 10 is_stmt 0 view .LVU696
 2188 0122 0DB1     		cbz	r5, .L157
 844:Middlewares/Third_Party/LwIP/src/core/ipv4/ip4_frag.c ****         poff = 0;
 2189              		.loc 1 844 9 is_stmt 1 view .LVU697
 2190              	.LVL245:
 845:Middlewares/Third_Party/LwIP/src/core/ipv4/ip4_frag.c ****         p = p->next;
 2191              		.loc 1 845 9 view .LVU698
 2192              		.loc 1 845 11 is_stmt 0 view .LVU699
 2193 0124 3668     		ldr	r6, [r6]
 2194              	.LVL246:
 844:Middlewares/Third_Party/LwIP/src/core/ipv4/ip4_frag.c ****         poff = 0;
 2195              		.loc 1 844 14 view .LVU700
 2196 0126 0027     		movs	r7, #0
 2197              	.LVL247:
 2198              	.L157:
 844:Middlewares/Third_Party/LwIP/src/core/ipv4/ip4_frag.c ****         poff = 0;
 2199              		.loc 1 844 14 view .LVU701
 2200              	.LBE8:
 810:Middlewares/Third_Party/LwIP/src/core/ipv4/ip4_frag.c ****       struct pbuf_custom_ref *pcr;
 2201              		.loc 1 810 11 is_stmt 1 view .LVU702
 2202 0128 EDB1     		cbz	r5, .L175
 2203              	.LBB9:
 811:Middlewares/Third_Party/LwIP/src/core/ipv4/ip4_frag.c ****       u16_t plen = (u16_t)(p->len - poff);
 2204              		.loc 1 811 7 view .LVU703
 812:Middlewares/Third_Party/LwIP/src/core/ipv4/ip4_frag.c ****       LWIP_ASSERT("p->len >= poff", p->len >= poff);
 2205              		.loc 1 812 7 view .LVU704
 812:Middlewares/Third_Party/LwIP/src/core/ipv4/ip4_frag.c ****       LWIP_ASSERT("p->len >= poff", p->len >= poff);
 2206              		.loc 1 812 29 is_stmt 0 view .LVU705
 2207 012a 7389     		ldrh	r3, [r6, #10]
 812:Middlewares/Third_Party/LwIP/src/core/ipv4/ip4_frag.c ****       LWIP_ASSERT("p->len >= poff", p->len >= poff);
 2208              		.loc 1 812 13 view .LVU706
 2209 012c DC1B     		subs	r4, r3, r7
 2210              	.LVL248:
 812:Middlewares/Third_Party/LwIP/src/core/ipv4/ip4_frag.c ****       LWIP_ASSERT("p->len >= poff", p->len >= poff);
 2211              		.loc 1 812 13 view .LVU707
 2212 012e A4B2     		uxth	r4, r4
 2213              	.LVL249:
 813:Middlewares/Third_Party/LwIP/src/core/ipv4/ip4_frag.c ****       newpbuflen = LWIP_MIN(left_to_copy, plen);
 2214              		.loc 1 813 7 is_stmt 1 view .LVU708
 813:Middlewares/Third_Party/LwIP/src/core/ipv4/ip4_frag.c ****       newpbuflen = LWIP_MIN(left_to_copy, plen);
 2215              		.loc 1 813 7 view .LVU709
 2216 0130 BB42     		cmp	r3, r7
 2217 0132 D0D3     		bcc	.L176
 2218              	.L158:
 813:Middlewares/Third_Party/LwIP/src/core/ipv4/ip4_frag.c ****       newpbuflen = LWIP_MIN(left_to_copy, plen);
 2219              		.loc 1 813 7 discriminator 3 view .LVU710
 813:Middlewares/Third_Party/LwIP/src/core/ipv4/ip4_frag.c ****       newpbuflen = LWIP_MIN(left_to_copy, plen);
 2220              		.loc 1 813 7 discriminator 3 view .LVU711
 814:Middlewares/Third_Party/LwIP/src/core/ipv4/ip4_frag.c ****       /* Is this pbuf already empty? */
 2221              		.loc 1 814 7 discriminator 3 view .LVU712
ARM GAS  /var/folders/bg/n1lwdyp56391g865_v8nrmhm0000gn/T//ccZDTuvB.s 			page 66


 814:Middlewares/Third_Party/LwIP/src/core/ipv4/ip4_frag.c ****       /* Is this pbuf already empty? */
 2222              		.loc 1 814 18 is_stmt 0 discriminator 3 view .LVU713
 2223 0134 AC42     		cmp	r4, r5
 2224 0136 28BF     		it	cs
 2225 0138 2C46     		movcs	r4, r5
 2226              	.LVL250:
 816:Middlewares/Third_Party/LwIP/src/core/ipv4/ip4_frag.c ****         poff = 0;
 2227              		.loc 1 816 7 is_stmt 1 discriminator 3 view .LVU714
 816:Middlewares/Third_Party/LwIP/src/core/ipv4/ip4_frag.c ****         poff = 0;
 2228              		.loc 1 816 10 is_stmt 0 discriminator 3 view .LVU715
 2229 013a 002C     		cmp	r4, #0
 2230 013c D3D1     		bne	.L159
 817:Middlewares/Third_Party/LwIP/src/core/ipv4/ip4_frag.c ****         p = p->next;
 2231              		.loc 1 817 9 is_stmt 1 view .LVU716
 2232              	.LVL251:
 818:Middlewares/Third_Party/LwIP/src/core/ipv4/ip4_frag.c ****         continue;
 2233              		.loc 1 818 9 view .LVU717
 818:Middlewares/Third_Party/LwIP/src/core/ipv4/ip4_frag.c ****         continue;
 2234              		.loc 1 818 11 is_stmt 0 view .LVU718
 2235 013e 3668     		ldr	r6, [r6]
 2236              	.LVL252:
 819:Middlewares/Third_Party/LwIP/src/core/ipv4/ip4_frag.c ****       }
 2237              		.loc 1 819 9 is_stmt 1 view .LVU719
 817:Middlewares/Third_Party/LwIP/src/core/ipv4/ip4_frag.c ****         p = p->next;
 2238              		.loc 1 817 14 is_stmt 0 view .LVU720
 2239 0140 2746     		mov	r7, r4
 819:Middlewares/Third_Party/LwIP/src/core/ipv4/ip4_frag.c ****       }
 2240              		.loc 1 819 9 view .LVU721
 2241 0142 F1E7     		b	.L157
 2242              	.LVL253:
 2243              	.L173:
 823:Middlewares/Third_Party/LwIP/src/core/ipv4/ip4_frag.c ****         goto memerr;
 2244              		.loc 1 823 9 is_stmt 1 view .LVU722
 2245 0144 5046     		mov	r0, r10
 2246              	.LVL254:
 823:Middlewares/Third_Party/LwIP/src/core/ipv4/ip4_frag.c ****         goto memerr;
 2247              		.loc 1 823 9 is_stmt 0 view .LVU723
 2248 0146 FFF7FEFF 		bl	pbuf_free
 2249              	.LVL255:
 824:Middlewares/Third_Party/LwIP/src/core/ipv4/ip4_frag.c ****       }
 2250              		.loc 1 824 9 is_stmt 1 view .LVU724
 2251              	.LBE9:
 846:Middlewares/Third_Party/LwIP/src/core/ipv4/ip4_frag.c ****       }
 847:Middlewares/Third_Party/LwIP/src/core/ipv4/ip4_frag.c ****     }
 848:Middlewares/Third_Party/LwIP/src/core/ipv4/ip4_frag.c ****     poff = (u16_t)(poff + newpbuflen);
 849:Middlewares/Third_Party/LwIP/src/core/ipv4/ip4_frag.c **** #endif /* LWIP_NETIF_TX_SINGLE_PBUF */
 850:Middlewares/Third_Party/LwIP/src/core/ipv4/ip4_frag.c **** 
 851:Middlewares/Third_Party/LwIP/src/core/ipv4/ip4_frag.c ****     /* Correct header */
 852:Middlewares/Third_Party/LwIP/src/core/ipv4/ip4_frag.c ****     last = (left <= netif->mtu - IP_HLEN);
 853:Middlewares/Third_Party/LwIP/src/core/ipv4/ip4_frag.c **** 
 854:Middlewares/Third_Party/LwIP/src/core/ipv4/ip4_frag.c ****     /* Set new offset and MF flag */
 855:Middlewares/Third_Party/LwIP/src/core/ipv4/ip4_frag.c ****     tmp = (IP_OFFMASK & (ofo));
 856:Middlewares/Third_Party/LwIP/src/core/ipv4/ip4_frag.c ****     if (!last || mf_set) {
 857:Middlewares/Third_Party/LwIP/src/core/ipv4/ip4_frag.c ****       /* the last fragment has MF set if the input frame had it */
 858:Middlewares/Third_Party/LwIP/src/core/ipv4/ip4_frag.c ****       tmp = tmp | IP_MF;
 859:Middlewares/Third_Party/LwIP/src/core/ipv4/ip4_frag.c ****     }
 860:Middlewares/Third_Party/LwIP/src/core/ipv4/ip4_frag.c ****     IPH_OFFSET_SET(iphdr, lwip_htons(tmp));
ARM GAS  /var/folders/bg/n1lwdyp56391g865_v8nrmhm0000gn/T//ccZDTuvB.s 			page 67


 861:Middlewares/Third_Party/LwIP/src/core/ipv4/ip4_frag.c ****     IPH_LEN_SET(iphdr, lwip_htons((u16_t)(fragsize + IP_HLEN)));
 862:Middlewares/Third_Party/LwIP/src/core/ipv4/ip4_frag.c ****     IPH_CHKSUM_SET(iphdr, 0);
 863:Middlewares/Third_Party/LwIP/src/core/ipv4/ip4_frag.c **** #if CHECKSUM_GEN_IP
 864:Middlewares/Third_Party/LwIP/src/core/ipv4/ip4_frag.c ****     IF__NETIF_CHECKSUM_ENABLED(netif, NETIF_CHECKSUM_GEN_IP) {
 865:Middlewares/Third_Party/LwIP/src/core/ipv4/ip4_frag.c ****       IPH_CHKSUM_SET(iphdr, inet_chksum(iphdr, IP_HLEN));
 866:Middlewares/Third_Party/LwIP/src/core/ipv4/ip4_frag.c ****     }
 867:Middlewares/Third_Party/LwIP/src/core/ipv4/ip4_frag.c **** #endif /* CHECKSUM_GEN_IP */
 868:Middlewares/Third_Party/LwIP/src/core/ipv4/ip4_frag.c **** 
 869:Middlewares/Third_Party/LwIP/src/core/ipv4/ip4_frag.c ****     /* No need for separate header pbuf - we allowed room for it in rambuf
 870:Middlewares/Third_Party/LwIP/src/core/ipv4/ip4_frag.c ****      * when allocated.
 871:Middlewares/Third_Party/LwIP/src/core/ipv4/ip4_frag.c ****      */
 872:Middlewares/Third_Party/LwIP/src/core/ipv4/ip4_frag.c ****     netif->output(netif, rambuf, dest);
 873:Middlewares/Third_Party/LwIP/src/core/ipv4/ip4_frag.c ****     IPFRAG_STATS_INC(ip_frag.xmit);
 874:Middlewares/Third_Party/LwIP/src/core/ipv4/ip4_frag.c **** 
 875:Middlewares/Third_Party/LwIP/src/core/ipv4/ip4_frag.c ****     /* Unfortunately we can't reuse rambuf - the hardware may still be
 876:Middlewares/Third_Party/LwIP/src/core/ipv4/ip4_frag.c ****      * using the buffer. Instead we free it (and the ensuing chain) and
 877:Middlewares/Third_Party/LwIP/src/core/ipv4/ip4_frag.c ****      * recreate it next time round the loop. If we're lucky the hardware
 878:Middlewares/Third_Party/LwIP/src/core/ipv4/ip4_frag.c ****      * will have already sent the packet, the free will really free, and
 879:Middlewares/Third_Party/LwIP/src/core/ipv4/ip4_frag.c ****      * there will be zero memory penalty.
 880:Middlewares/Third_Party/LwIP/src/core/ipv4/ip4_frag.c ****      */
 881:Middlewares/Third_Party/LwIP/src/core/ipv4/ip4_frag.c **** 
 882:Middlewares/Third_Party/LwIP/src/core/ipv4/ip4_frag.c ****     pbuf_free(rambuf);
 883:Middlewares/Third_Party/LwIP/src/core/ipv4/ip4_frag.c ****     left = (u16_t)(left - fragsize);
 884:Middlewares/Third_Party/LwIP/src/core/ipv4/ip4_frag.c ****     ofo = (u16_t)(ofo + nfb);
 885:Middlewares/Third_Party/LwIP/src/core/ipv4/ip4_frag.c ****   }
 886:Middlewares/Third_Party/LwIP/src/core/ipv4/ip4_frag.c ****   MIB2_STATS_INC(mib2.ipfragoks);
 887:Middlewares/Third_Party/LwIP/src/core/ipv4/ip4_frag.c ****   return ERR_OK;
 888:Middlewares/Third_Party/LwIP/src/core/ipv4/ip4_frag.c **** memerr:
 889:Middlewares/Third_Party/LwIP/src/core/ipv4/ip4_frag.c ****   MIB2_STATS_INC(mib2.ipfragfails);
 890:Middlewares/Third_Party/LwIP/src/core/ipv4/ip4_frag.c ****   return ERR_MEM;
 2252              		.loc 1 890 10 is_stmt 0 view .LVU725
 2253 014a 4FF0FF30 		mov	r0, #-1
 2254              	.LVL256:
 2255              	.L153:
 891:Middlewares/Third_Party/LwIP/src/core/ipv4/ip4_frag.c **** }
 2256              		.loc 1 891 1 view .LVU726
 2257 014e 0BB0     		add	sp, sp, #44
 2258              	.LCFI12:
 2259              		.cfi_remember_state
 2260              		.cfi_def_cfa_offset 36
 2261              		@ sp needed
 2262 0150 BDE8F08F 		pop	{r4, r5, r6, r7, r8, r9, r10, fp, pc}
 2263              	.LVL257:
 2264              	.L174:
 2265              	.LCFI13:
 2266              		.cfi_restore_state
 2267              	.LBB10:
 830:Middlewares/Third_Party/LwIP/src/core/ipv4/ip4_frag.c ****         pbuf_free(rambuf);
 2268              		.loc 1 830 9 is_stmt 1 view .LVU727
 2269 0154 4046     		mov	r0, r8
 2270              	.LVL258:
 830:Middlewares/Third_Party/LwIP/src/core/ipv4/ip4_frag.c ****         pbuf_free(rambuf);
 2271              		.loc 1 830 9 is_stmt 0 view .LVU728
 2272 0156 FFF7FEFF 		bl	ip_frag_free_pbuf_custom_ref
 2273              	.LVL259:
 831:Middlewares/Third_Party/LwIP/src/core/ipv4/ip4_frag.c ****         goto memerr;
 2274              		.loc 1 831 9 is_stmt 1 view .LVU729
ARM GAS  /var/folders/bg/n1lwdyp56391g865_v8nrmhm0000gn/T//ccZDTuvB.s 			page 68


 2275 015a 5046     		mov	r0, r10
 2276 015c FFF7FEFF 		bl	pbuf_free
 2277              	.LVL260:
 832:Middlewares/Third_Party/LwIP/src/core/ipv4/ip4_frag.c ****       }
 2278              		.loc 1 832 9 view .LVU730
 2279              	.LBE10:
 890:Middlewares/Third_Party/LwIP/src/core/ipv4/ip4_frag.c **** }
 2280              		.loc 1 890 10 is_stmt 0 view .LVU731
 2281 0160 4FF0FF30 		mov	r0, #-1
 2282              	.LBB11:
 832:Middlewares/Third_Party/LwIP/src/core/ipv4/ip4_frag.c ****       }
 2283              		.loc 1 832 9 view .LVU732
 2284 0164 F3E7     		b	.L153
 2285              	.LVL261:
 2286              	.L175:
 832:Middlewares/Third_Party/LwIP/src/core/ipv4/ip4_frag.c ****       }
 2287              		.loc 1 832 9 view .LVU733
 2288              	.LBE11:
 848:Middlewares/Third_Party/LwIP/src/core/ipv4/ip4_frag.c **** #endif /* LWIP_NETIF_TX_SINGLE_PBUF */
 2289              		.loc 1 848 5 is_stmt 1 view .LVU734
 848:Middlewares/Third_Party/LwIP/src/core/ipv4/ip4_frag.c **** #endif /* LWIP_NETIF_TX_SINGLE_PBUF */
 2290              		.loc 1 848 10 is_stmt 0 view .LVU735
 2291 0166 2744     		add	r7, r7, r4
 2292              	.LVL262:
 848:Middlewares/Third_Party/LwIP/src/core/ipv4/ip4_frag.c **** #endif /* LWIP_NETIF_TX_SINGLE_PBUF */
