ARM GAS  /var/folders/bg/n1lwdyp56391g865_v8nrmhm0000gn/T//cctaIZQZ.s 			page 1


   1              		.cpu cortex-m7
   2              		.eabi_attribute 28, 1
   3              		.eabi_attribute 20, 1
   4              		.eabi_attribute 21, 1
   5              		.eabi_attribute 23, 3
   6              		.eabi_attribute 24, 1
   7              		.eabi_attribute 25, 1
   8              		.eabi_attribute 26, 1
   9              		.eabi_attribute 30, 1
  10              		.eabi_attribute 34, 1
  11              		.eabi_attribute 18, 4
  12              		.file	"lan8742.c"
  13              		.text
  14              	.Ltext0:
  15              		.cfi_sections	.debug_frame
  16              		.section	.text.LAN8742_RegisterBusIO,"ax",%progbits
  17              		.align	1
  18              		.global	LAN8742_RegisterBusIO
  19              		.arch armv7e-m
  20              		.syntax unified
  21              		.thumb
  22              		.thumb_func
  23              		.fpu fpv5-d16
  25              	LAN8742_RegisterBusIO:
  26              	.LVL0:
  27              	.LFB0:
  28              		.file 1 "Drivers/BSP/Components/lan8742/lan8742.c"
   1:Drivers/BSP/Components/lan8742/lan8742.c **** /** 
   2:Drivers/BSP/Components/lan8742/lan8742.c ****   ******************************************************************************
   3:Drivers/BSP/Components/lan8742/lan8742.c ****   * @file    lan8742.c
   4:Drivers/BSP/Components/lan8742/lan8742.c ****   * @author  MCD Application Team
   5:Drivers/BSP/Components/lan8742/lan8742.c ****   * @brief   This file provides a set of functions needed to manage the LAN742
   6:Drivers/BSP/Components/lan8742/lan8742.c ****   *          PHY devices.
   7:Drivers/BSP/Components/lan8742/lan8742.c ****   ******************************************************************************
   8:Drivers/BSP/Components/lan8742/lan8742.c ****   * @attention
   9:Drivers/BSP/Components/lan8742/lan8742.c ****   *
  10:Drivers/BSP/Components/lan8742/lan8742.c ****   * <h2><center>&copy; Copyright (c) 2017 STMicroelectronics.
  11:Drivers/BSP/Components/lan8742/lan8742.c ****   * All rights reserved.</center></h2>
  12:Drivers/BSP/Components/lan8742/lan8742.c ****   *
  13:Drivers/BSP/Components/lan8742/lan8742.c ****   * This software component is licensed by ST under BSD 3-Clause license,
  14:Drivers/BSP/Components/lan8742/lan8742.c ****   * the "License"; You may not use this file except in compliance with the
  15:Drivers/BSP/Components/lan8742/lan8742.c ****   * License. You may obtain a copy of the License at:
  16:Drivers/BSP/Components/lan8742/lan8742.c ****   *                        opensource.org/licenses/BSD-3-Clause
  17:Drivers/BSP/Components/lan8742/lan8742.c ****   *
  18:Drivers/BSP/Components/lan8742/lan8742.c ****   ******************************************************************************
  19:Drivers/BSP/Components/lan8742/lan8742.c ****   */  
  20:Drivers/BSP/Components/lan8742/lan8742.c **** 
  21:Drivers/BSP/Components/lan8742/lan8742.c **** /* Includes ------------------------------------------------------------------*/
  22:Drivers/BSP/Components/lan8742/lan8742.c **** #include "lan8742.h"
  23:Drivers/BSP/Components/lan8742/lan8742.c **** 
  24:Drivers/BSP/Components/lan8742/lan8742.c **** /** @addtogroup BSP
  25:Drivers/BSP/Components/lan8742/lan8742.c ****   * @{
  26:Drivers/BSP/Components/lan8742/lan8742.c ****   */
  27:Drivers/BSP/Components/lan8742/lan8742.c **** 
  28:Drivers/BSP/Components/lan8742/lan8742.c **** /** @addtogroup Component
  29:Drivers/BSP/Components/lan8742/lan8742.c ****   * @{
  30:Drivers/BSP/Components/lan8742/lan8742.c ****   */ 
ARM GAS  /var/folders/bg/n1lwdyp56391g865_v8nrmhm0000gn/T//cctaIZQZ.s 			page 2


  31:Drivers/BSP/Components/lan8742/lan8742.c ****   
  32:Drivers/BSP/Components/lan8742/lan8742.c **** /** @defgroup LAN8742 LAN8742
  33:Drivers/BSP/Components/lan8742/lan8742.c ****   * @{
  34:Drivers/BSP/Components/lan8742/lan8742.c ****   */   
  35:Drivers/BSP/Components/lan8742/lan8742.c ****   
  36:Drivers/BSP/Components/lan8742/lan8742.c **** /* Private typedef -----------------------------------------------------------*/
  37:Drivers/BSP/Components/lan8742/lan8742.c **** /* Private define ------------------------------------------------------------*/
  38:Drivers/BSP/Components/lan8742/lan8742.c **** /** @defgroup LAN8742_Private_Defines LAN8742 Private Defines
  39:Drivers/BSP/Components/lan8742/lan8742.c ****   * @{
  40:Drivers/BSP/Components/lan8742/lan8742.c ****   */
  41:Drivers/BSP/Components/lan8742/lan8742.c **** #define LAN8742_SW_RESET_TO    ((uint32_t)500U)
  42:Drivers/BSP/Components/lan8742/lan8742.c **** #define LAN8742_INIT_TO        ((uint32_t)2000U)
  43:Drivers/BSP/Components/lan8742/lan8742.c **** #define LAN8742_MAX_DEV_ADDR   ((uint32_t)31U)
  44:Drivers/BSP/Components/lan8742/lan8742.c **** /**
  45:Drivers/BSP/Components/lan8742/lan8742.c ****   * @}
  46:Drivers/BSP/Components/lan8742/lan8742.c ****   */
  47:Drivers/BSP/Components/lan8742/lan8742.c ****  
  48:Drivers/BSP/Components/lan8742/lan8742.c **** /* Private macro -------------------------------------------------------------*/
  49:Drivers/BSP/Components/lan8742/lan8742.c **** /* Private variables ---------------------------------------------------------*/
  50:Drivers/BSP/Components/lan8742/lan8742.c **** /* Private function prototypes -----------------------------------------------*/
  51:Drivers/BSP/Components/lan8742/lan8742.c **** /* Private functions ---------------------------------------------------------*/
  52:Drivers/BSP/Components/lan8742/lan8742.c **** /** @defgroup LAN8742_Private_Functions LAN8742 Private Functions
  53:Drivers/BSP/Components/lan8742/lan8742.c ****   * @{
  54:Drivers/BSP/Components/lan8742/lan8742.c ****   */
  55:Drivers/BSP/Components/lan8742/lan8742.c ****     
  56:Drivers/BSP/Components/lan8742/lan8742.c **** /**
  57:Drivers/BSP/Components/lan8742/lan8742.c ****   * @brief  Register IO functions to component object
  58:Drivers/BSP/Components/lan8742/lan8742.c ****   * @param  pObj: device object  of LAN8742_Object_t. 
  59:Drivers/BSP/Components/lan8742/lan8742.c ****   * @param  ioctx: holds device IO functions.  
  60:Drivers/BSP/Components/lan8742/lan8742.c ****   * @retval LAN8742_STATUS_OK  if OK
  61:Drivers/BSP/Components/lan8742/lan8742.c ****   *         LAN8742_STATUS_ERROR if missing mandatory function
  62:Drivers/BSP/Components/lan8742/lan8742.c ****   */
  63:Drivers/BSP/Components/lan8742/lan8742.c **** int32_t  LAN8742_RegisterBusIO(lan8742_Object_t *pObj, lan8742_IOCtx_t *ioctx)
  64:Drivers/BSP/Components/lan8742/lan8742.c **** {
  29              		.loc 1 64 1 view -0
  30              		.cfi_startproc
  31              		@ args = 0, pretend = 0, frame = 0
  32              		@ frame_needed = 0, uses_anonymous_args = 0
  33              		@ link register save eliminated.
  65:Drivers/BSP/Components/lan8742/lan8742.c ****   if(!pObj || !ioctx->ReadReg || !ioctx->WriteReg || !ioctx->GetTick)
  34              		.loc 1 65 3 view .LVU1
  35              		.loc 1 65 5 is_stmt 0 view .LVU2
  36 0000 88B1     		cbz	r0, .L3
  37              		.loc 1 65 21 discriminator 1 view .LVU3
  38 0002 CA68     		ldr	r2, [r1, #12]
  39              		.loc 1 65 12 discriminator 1 view .LVU4
  40 0004 92B1     		cbz	r2, .L4
  41              		.loc 1 65 40 discriminator 2 view .LVU5
  42 0006 8A68     		ldr	r2, [r1, #8]
  43              		.loc 1 65 31 discriminator 2 view .LVU6
  44 0008 9AB1     		cbz	r2, .L5
  45              		.loc 1 65 60 discriminator 3 view .LVU7
  46 000a 0A69     		ldr	r2, [r1, #16]
  47              		.loc 1 65 51 discriminator 3 view .LVU8
  48 000c A2B1     		cbz	r2, .L6
  66:Drivers/BSP/Components/lan8742/lan8742.c ****   {
  67:Drivers/BSP/Components/lan8742/lan8742.c ****     return LAN8742_STATUS_ERROR;
ARM GAS  /var/folders/bg/n1lwdyp56391g865_v8nrmhm0000gn/T//cctaIZQZ.s 			page 3


  68:Drivers/BSP/Components/lan8742/lan8742.c ****   }
  69:Drivers/BSP/Components/lan8742/lan8742.c ****   
  70:Drivers/BSP/Components/lan8742/lan8742.c ****   pObj->IO.Init = ioctx->Init;
  49              		.loc 1 70 3 is_stmt 1 view .LVU9
  50              		.loc 1 70 24 is_stmt 0 view .LVU10
  51 000e 0A68     		ldr	r2, [r1]
  52              		.loc 1 70 17 view .LVU11
  53 0010 8260     		str	r2, [r0, #8]
  71:Drivers/BSP/Components/lan8742/lan8742.c ****   pObj->IO.DeInit = ioctx->DeInit;
  54              		.loc 1 71 3 is_stmt 1 view .LVU12
  55              		.loc 1 71 26 is_stmt 0 view .LVU13
  56 0012 4A68     		ldr	r2, [r1, #4]
  57              		.loc 1 71 19 view .LVU14
  58 0014 C260     		str	r2, [r0, #12]
  72:Drivers/BSP/Components/lan8742/lan8742.c ****   pObj->IO.ReadReg = ioctx->ReadReg;
  59              		.loc 1 72 3 is_stmt 1 view .LVU15
  60              		.loc 1 72 27 is_stmt 0 view .LVU16
  61 0016 CA68     		ldr	r2, [r1, #12]
  62              		.loc 1 72 20 view .LVU17
  63 0018 4261     		str	r2, [r0, #20]
  73:Drivers/BSP/Components/lan8742/lan8742.c ****   pObj->IO.WriteReg = ioctx->WriteReg;
  64              		.loc 1 73 3 is_stmt 1 view .LVU18
  65              		.loc 1 73 28 is_stmt 0 view .LVU19
  66 001a 8A68     		ldr	r2, [r1, #8]
  67              		.loc 1 73 21 view .LVU20
  68 001c 0261     		str	r2, [r0, #16]
  74:Drivers/BSP/Components/lan8742/lan8742.c ****   pObj->IO.GetTick = ioctx->GetTick;
  69              		.loc 1 74 3 is_stmt 1 view .LVU21
  70              		.loc 1 74 27 is_stmt 0 view .LVU22
  71 001e 0A69     		ldr	r2, [r1, #16]
  72              		.loc 1 74 20 view .LVU23
  73 0020 8261     		str	r2, [r0, #24]
  75:Drivers/BSP/Components/lan8742/lan8742.c ****   
  76:Drivers/BSP/Components/lan8742/lan8742.c ****   return LAN8742_STATUS_OK;
  74              		.loc 1 76 3 is_stmt 1 view .LVU24
  75              		.loc 1 76 10 is_stmt 0 view .LVU25
  76 0022 0020     		movs	r0, #0
  77              	.LVL1:
  78              		.loc 1 76 10 view .LVU26
  79 0024 7047     		bx	lr
  80              	.LVL2:
  81              	.L3:
  67:Drivers/BSP/Components/lan8742/lan8742.c ****   }
  82              		.loc 1 67 12 view .LVU27
  83 0026 4FF0FF30 		mov	r0, #-1
  84              	.LVL3:
  67:Drivers/BSP/Components/lan8742/lan8742.c ****   }
  85              		.loc 1 67 12 view .LVU28
  86 002a 7047     		bx	lr
  87              	.LVL4:
  88              	.L4:
  67:Drivers/BSP/Components/lan8742/lan8742.c ****   }
  89              		.loc 1 67 12 view .LVU29
  90 002c 4FF0FF30 		mov	r0, #-1
  91              	.LVL5:
  67:Drivers/BSP/Components/lan8742/lan8742.c ****   }
  92              		.loc 1 67 12 view .LVU30
ARM GAS  /var/folders/bg/n1lwdyp56391g865_v8nrmhm0000gn/T//cctaIZQZ.s 			page 4


  93 0030 7047     		bx	lr
  94              	.LVL6:
  95              	.L5:
  67:Drivers/BSP/Components/lan8742/lan8742.c ****   }
  96              		.loc 1 67 12 view .LVU31
  97 0032 4FF0FF30 		mov	r0, #-1
  98              	.LVL7:
  67:Drivers/BSP/Components/lan8742/lan8742.c ****   }
  99              		.loc 1 67 12 view .LVU32
 100 0036 7047     		bx	lr
 101              	.LVL8:
 102              	.L6:
  67:Drivers/BSP/Components/lan8742/lan8742.c ****   }
 103              		.loc 1 67 12 view .LVU33
 104 0038 4FF0FF30 		mov	r0, #-1
 105              	.LVL9:
  77:Drivers/BSP/Components/lan8742/lan8742.c **** }
 106              		.loc 1 77 1 view .LVU34
 107 003c 7047     		bx	lr
 108              		.cfi_endproc
 109              	.LFE0:
 111              		.section	.text.LAN8742_Init,"ax",%progbits
 112              		.align	1
 113              		.global	LAN8742_Init
 114              		.syntax unified
 115              		.thumb
 116              		.thumb_func
 117              		.fpu fpv5-d16
 119              	LAN8742_Init:
 120              	.LVL10:
 121              	.LFB1:
  78:Drivers/BSP/Components/lan8742/lan8742.c **** 
  79:Drivers/BSP/Components/lan8742/lan8742.c **** /**
  80:Drivers/BSP/Components/lan8742/lan8742.c ****   * @brief  Initialize the lan8742 and configure the needed hardware resources
  81:Drivers/BSP/Components/lan8742/lan8742.c ****   * @param  pObj: device object LAN8742_Object_t. 
  82:Drivers/BSP/Components/lan8742/lan8742.c ****   * @retval LAN8742_STATUS_OK  if OK
  83:Drivers/BSP/Components/lan8742/lan8742.c ****   *         LAN8742_STATUS_ADDRESS_ERROR if cannot find device address
  84:Drivers/BSP/Components/lan8742/lan8742.c ****   *         LAN8742_STATUS_READ_ERROR if connot read register
  85:Drivers/BSP/Components/lan8742/lan8742.c ****   *         LAN8742_STATUS_WRITE_ERROR if connot write to register
  86:Drivers/BSP/Components/lan8742/lan8742.c ****   *         LAN8742_STATUS_RESET_TIMEOUT if cannot perform a software reset
  87:Drivers/BSP/Components/lan8742/lan8742.c ****   */
  88:Drivers/BSP/Components/lan8742/lan8742.c ****  int32_t LAN8742_Init(lan8742_Object_t *pObj)
  89:Drivers/BSP/Components/lan8742/lan8742.c ****  {
 122              		.loc 1 89 2 is_stmt 1 view -0
 123              		.cfi_startproc
 124              		@ args = 0, pretend = 0, frame = 8
 125              		@ frame_needed = 0, uses_anonymous_args = 0
 126              		.loc 1 89 2 is_stmt 0 view .LVU36
 127 0000 70B5     		push	{r4, r5, r6, lr}
 128              	.LCFI0:
 129              		.cfi_def_cfa_offset 16
 130              		.cfi_offset 4, -16
 131              		.cfi_offset 5, -12
 132              		.cfi_offset 6, -8
 133              		.cfi_offset 14, -4
 134 0002 82B0     		sub	sp, sp, #8
 135              	.LCFI1:
ARM GAS  /var/folders/bg/n1lwdyp56391g865_v8nrmhm0000gn/T//cctaIZQZ.s 			page 5


 136              		.cfi_def_cfa_offset 24
 137 0004 0546     		mov	r5, r0
  90:Drivers/BSP/Components/lan8742/lan8742.c ****    uint32_t tickstart = 0, regvalue = 0, addr = 0;
 138              		.loc 1 90 4 is_stmt 1 view .LVU37
 139              	.LVL11:
 140              		.loc 1 90 28 is_stmt 0 view .LVU38
 141 0006 0023     		movs	r3, #0
 142 0008 0193     		str	r3, [sp, #4]
 143              	.LVL12:
  91:Drivers/BSP/Components/lan8742/lan8742.c ****    int32_t status = LAN8742_STATUS_OK;
 144              		.loc 1 91 4 is_stmt 1 view .LVU39
  92:Drivers/BSP/Components/lan8742/lan8742.c ****    
  93:Drivers/BSP/Components/lan8742/lan8742.c ****    if(pObj->Is_Initialized == 0)
 145              		.loc 1 93 4 view .LVU40
 146              		.loc 1 93 11 is_stmt 0 view .LVU41
 147 000a 4468     		ldr	r4, [r0, #4]
 148              		.loc 1 93 6 view .LVU42
 149 000c 002C     		cmp	r4, #0
 150 000e 49D1     		bne	.L19
  94:Drivers/BSP/Components/lan8742/lan8742.c ****    {
  95:Drivers/BSP/Components/lan8742/lan8742.c ****      if(pObj->IO.Init != 0)
 151              		.loc 1 95 6 is_stmt 1 view .LVU43
 152              		.loc 1 95 17 is_stmt 0 view .LVU44
 153 0010 8368     		ldr	r3, [r0, #8]
 154              		.loc 1 95 8 view .LVU45
 155 0012 03B1     		cbz	r3, .L9
  96:Drivers/BSP/Components/lan8742/lan8742.c ****      {
  97:Drivers/BSP/Components/lan8742/lan8742.c ****        /* GPIO and Clocks initialization */
  98:Drivers/BSP/Components/lan8742/lan8742.c ****        pObj->IO.Init();
 156              		.loc 1 98 8 is_stmt 1 view .LVU46
 157 0014 9847     		blx	r3
 158              	.LVL13:
 159              	.L9:
  99:Drivers/BSP/Components/lan8742/lan8742.c ****      }
 100:Drivers/BSP/Components/lan8742/lan8742.c ****    
 101:Drivers/BSP/Components/lan8742/lan8742.c ****      /* for later check */
 102:Drivers/BSP/Components/lan8742/lan8742.c ****      pObj->DevAddr = LAN8742_MAX_DEV_ADDR + 1;
 160              		.loc 1 102 6 view .LVU47
 161              		.loc 1 102 20 is_stmt 0 view .LVU48
 162 0016 2023     		movs	r3, #32
 163 0018 2B60     		str	r3, [r5]
 103:Drivers/BSP/Components/lan8742/lan8742.c ****    
 104:Drivers/BSP/Components/lan8742/lan8742.c ****      /* Get the device address from special mode register */  
 105:Drivers/BSP/Components/lan8742/lan8742.c ****      for(addr = 0; addr <= LAN8742_MAX_DEV_ADDR; addr ++)
 164              		.loc 1 105 6 is_stmt 1 view .LVU49
  91:Drivers/BSP/Components/lan8742/lan8742.c ****    
 165              		.loc 1 91 12 is_stmt 0 view .LVU50
 166 001a 0026     		movs	r6, #0
 167              		.loc 1 105 6 view .LVU51
 168 001c 02E0     		b	.L10
 169              	.LVL14:
 170              	.L20:
 106:Drivers/BSP/Components/lan8742/lan8742.c ****      {
 107:Drivers/BSP/Components/lan8742/lan8742.c ****        if(pObj->IO.ReadReg(addr, LAN8742_SMR, &regvalue) < 0)
 108:Drivers/BSP/Components/lan8742/lan8742.c ****        { 
 109:Drivers/BSP/Components/lan8742/lan8742.c ****          status = LAN8742_STATUS_READ_ERROR;
 171              		.loc 1 109 17 view .LVU52
ARM GAS  /var/folders/bg/n1lwdyp56391g865_v8nrmhm0000gn/T//cctaIZQZ.s 			page 6


 172 001e 6FF00406 		mvn	r6, #4
 173              	.LVL15:
 174              	.L11:
 105:Drivers/BSP/Components/lan8742/lan8742.c ****      {
 175              		.loc 1 105 50 is_stmt 1 discriminator 2 view .LVU53
 105:Drivers/BSP/Components/lan8742/lan8742.c ****      {
 176              		.loc 1 105 55 is_stmt 0 discriminator 2 view .LVU54
 177 0022 0134     		adds	r4, r4, #1
 178              	.LVL16:
 179              	.L10:
 105:Drivers/BSP/Components/lan8742/lan8742.c ****      {
 180              		.loc 1 105 20 is_stmt 1 discriminator 1 view .LVU55
 105:Drivers/BSP/Components/lan8742/lan8742.c ****      {
 181              		.loc 1 105 6 is_stmt 0 discriminator 1 view .LVU56
 182 0024 1F2C     		cmp	r4, #31
 183 0026 0DD8     		bhi	.L12
 107:Drivers/BSP/Components/lan8742/lan8742.c ****        { 
 184              		.loc 1 107 8 is_stmt 1 view .LVU57
 107:Drivers/BSP/Components/lan8742/lan8742.c ****        { 
 185              		.loc 1 107 19 is_stmt 0 view .LVU58
 186 0028 6B69     		ldr	r3, [r5, #20]
 107:Drivers/BSP/Components/lan8742/lan8742.c ****        { 
 187              		.loc 1 107 11 view .LVU59
 188 002a 01AA     		add	r2, sp, #4
 189 002c 1221     		movs	r1, #18
 190 002e 2046     		mov	r0, r4
 191 0030 9847     		blx	r3
 192              	.LVL17:
 107:Drivers/BSP/Components/lan8742/lan8742.c ****        { 
 193              		.loc 1 107 10 view .LVU60
 194 0032 0028     		cmp	r0, #0
 195 0034 F3DB     		blt	.L20
 110:Drivers/BSP/Components/lan8742/lan8742.c ****          /* Can't read from this device address 
 111:Drivers/BSP/Components/lan8742/lan8742.c ****             continue with next address */
 112:Drivers/BSP/Components/lan8742/lan8742.c ****          continue;
 113:Drivers/BSP/Components/lan8742/lan8742.c ****        }
 114:Drivers/BSP/Components/lan8742/lan8742.c ****      
 115:Drivers/BSP/Components/lan8742/lan8742.c ****        if((regvalue & LAN8742_SMR_PHY_ADDR) == addr)
 196              		.loc 1 115 8 is_stmt 1 view .LVU61
 197              		.loc 1 115 21 is_stmt 0 view .LVU62
 198 0036 019B     		ldr	r3, [sp, #4]
 199 0038 03F01F03 		and	r3, r3, #31
 200              		.loc 1 115 10 view .LVU63
 201 003c A342     		cmp	r3, r4
 202 003e F0D1     		bne	.L11
 116:Drivers/BSP/Components/lan8742/lan8742.c ****        {
 117:Drivers/BSP/Components/lan8742/lan8742.c ****          pObj->DevAddr = addr;
 203              		.loc 1 117 10 is_stmt 1 view .LVU64
 204              		.loc 1 117 24 is_stmt 0 view .LVU65
 205 0040 2C60     		str	r4, [r5]
 118:Drivers/BSP/Components/lan8742/lan8742.c ****          status = LAN8742_STATUS_OK;
 206              		.loc 1 118 10 is_stmt 1 view .LVU66
 207              	.LVL18:
 119:Drivers/BSP/Components/lan8742/lan8742.c ****          break;
 208              		.loc 1 119 10 view .LVU67
 118:Drivers/BSP/Components/lan8742/lan8742.c ****          status = LAN8742_STATUS_OK;
 209              		.loc 1 118 17 is_stmt 0 view .LVU68
ARM GAS  /var/folders/bg/n1lwdyp56391g865_v8nrmhm0000gn/T//cctaIZQZ.s 			page 7


 210 0042 0026     		movs	r6, #0
 211              	.LVL19:
 212              	.L12:
 120:Drivers/BSP/Components/lan8742/lan8742.c ****        }
 121:Drivers/BSP/Components/lan8742/lan8742.c ****      }
 122:Drivers/BSP/Components/lan8742/lan8742.c ****    
 123:Drivers/BSP/Components/lan8742/lan8742.c ****      if(pObj->DevAddr > LAN8742_MAX_DEV_ADDR)
 213              		.loc 1 123 6 is_stmt 1 view .LVU69
 214              		.loc 1 123 13 is_stmt 0 view .LVU70
 215 0044 2868     		ldr	r0, [r5]
 216              		.loc 1 123 8 view .LVU71
 217 0046 1F28     		cmp	r0, #31
 218 0048 25D8     		bhi	.L21
 124:Drivers/BSP/Components/lan8742/lan8742.c ****      {
 125:Drivers/BSP/Components/lan8742/lan8742.c ****        status = LAN8742_STATUS_ADDRESS_ERROR;
 126:Drivers/BSP/Components/lan8742/lan8742.c ****      }
 127:Drivers/BSP/Components/lan8742/lan8742.c ****      
 128:Drivers/BSP/Components/lan8742/lan8742.c ****      /* if device address is matched */
 129:Drivers/BSP/Components/lan8742/lan8742.c ****      if(status == LAN8742_STATUS_OK)
 219              		.loc 1 129 6 is_stmt 1 view .LVU72
 220              		.loc 1 129 8 is_stmt 0 view .LVU73
 221 004a 36BB     		cbnz	r6, .L14
 130:Drivers/BSP/Components/lan8742/lan8742.c ****      {
 131:Drivers/BSP/Components/lan8742/lan8742.c ****        /* set a software reset  */
 132:Drivers/BSP/Components/lan8742/lan8742.c ****        if(pObj->IO.WriteReg(pObj->DevAddr, LAN8742_BCR, LAN8742_BCR_SOFT_RESET) >= 0)
 222              		.loc 1 132 8 is_stmt 1 view .LVU74
 223              		.loc 1 132 19 is_stmt 0 view .LVU75
 224 004c 2B69     		ldr	r3, [r5, #16]
 225              		.loc 1 132 11 view .LVU76
 226 004e 4FF40042 		mov	r2, #32768
 227 0052 0021     		movs	r1, #0
 228 0054 9847     		blx	r3
 229              	.LVL20:
 230              		.loc 1 132 10 view .LVU77
 231 0056 0028     		cmp	r0, #0
 232 0058 33DB     		blt	.L22
 133:Drivers/BSP/Components/lan8742/lan8742.c ****        { 
 134:Drivers/BSP/Components/lan8742/lan8742.c ****          /* get software reset status */
 135:Drivers/BSP/Components/lan8742/lan8742.c ****          if(pObj->IO.ReadReg(pObj->DevAddr, LAN8742_BCR, &regvalue) >= 0)
 233              		.loc 1 135 10 is_stmt 1 view .LVU78
 234              		.loc 1 135 21 is_stmt 0 view .LVU79
 235 005a 6B69     		ldr	r3, [r5, #20]
 236              		.loc 1 135 13 view .LVU80
 237 005c 01AA     		add	r2, sp, #4
 238 005e 0021     		movs	r1, #0
 239 0060 2868     		ldr	r0, [r5]
 240 0062 9847     		blx	r3
 241              	.LVL21:
 242              		.loc 1 135 12 view .LVU81
 243 0064 0028     		cmp	r0, #0
 244 0066 2FDB     		blt	.L23
 136:Drivers/BSP/Components/lan8742/lan8742.c ****          { 
 137:Drivers/BSP/Components/lan8742/lan8742.c ****            tickstart = pObj->IO.GetTick();
 245              		.loc 1 137 12 is_stmt 1 view .LVU82
 246              		.loc 1 137 32 is_stmt 0 view .LVU83
 247 0068 AB69     		ldr	r3, [r5, #24]
 248              		.loc 1 137 24 view .LVU84
ARM GAS  /var/folders/bg/n1lwdyp56391g865_v8nrmhm0000gn/T//cctaIZQZ.s 			page 8


 249 006a 9847     		blx	r3
 250              	.LVL22:
 251 006c 0446     		mov	r4, r0
 252              	.LVL23:
 138:Drivers/BSP/Components/lan8742/lan8742.c ****            
 139:Drivers/BSP/Components/lan8742/lan8742.c ****            /* wait until software reset is done or timeout occured  */
 140:Drivers/BSP/Components/lan8742/lan8742.c ****            while(regvalue & LAN8742_BCR_SOFT_RESET)
 253              		.loc 1 140 12 is_stmt 1 view .LVU85
 254              	.L16:
 255              		.loc 1 140 17 view .LVU86
 256 006e 019B     		ldr	r3, [sp, #4]
 257 0070 13F4004F 		tst	r3, #32768
 258 0074 11D0     		beq	.L14
 141:Drivers/BSP/Components/lan8742/lan8742.c ****            {
 142:Drivers/BSP/Components/lan8742/lan8742.c ****              if((pObj->IO.GetTick() - tickstart) <= LAN8742_SW_RESET_TO)
 259              		.loc 1 142 14 view .LVU87
 260              		.loc 1 142 26 is_stmt 0 view .LVU88
 261 0076 AB69     		ldr	r3, [r5, #24]
 262              		.loc 1 142 18 view .LVU89
 263 0078 9847     		blx	r3
 264              	.LVL24:
 265              		.loc 1 142 37 view .LVU90
 266 007a 001B     		subs	r0, r0, r4
 267              		.loc 1 142 16 view .LVU91
 268 007c B0F5FA7F 		cmp	r0, #500
 269 0080 0DD8     		bhi	.L24
 143:Drivers/BSP/Components/lan8742/lan8742.c ****              {
 144:Drivers/BSP/Components/lan8742/lan8742.c ****                if(pObj->IO.ReadReg(pObj->DevAddr, LAN8742_BCR, &regvalue) < 0)
 270              		.loc 1 144 16 is_stmt 1 view .LVU92
 271              		.loc 1 144 27 is_stmt 0 view .LVU93
 272 0082 6B69     		ldr	r3, [r5, #20]
 273              		.loc 1 144 19 view .LVU94
 274 0084 01AA     		add	r2, sp, #4
 275 0086 0021     		movs	r1, #0
 276 0088 2868     		ldr	r0, [r5]
 277 008a 9847     		blx	r3
 278              	.LVL25:
 279              		.loc 1 144 18 view .LVU95
 280 008c 0028     		cmp	r0, #0
 281 008e EEDA     		bge	.L16
 145:Drivers/BSP/Components/lan8742/lan8742.c ****                { 
 146:Drivers/BSP/Components/lan8742/lan8742.c ****                  status = LAN8742_STATUS_READ_ERROR;
 282              		.loc 1 146 25 view .LVU96
 283 0090 6FF00406 		mvn	r6, #4
 284              	.LVL26:
 285              		.loc 1 146 25 view .LVU97
 286 0094 01E0     		b	.L14
 287              	.LVL27:
 288              	.L21:
 125:Drivers/BSP/Components/lan8742/lan8742.c ****      }
 289              		.loc 1 125 15 view .LVU98
 290 0096 6FF00206 		mvn	r6, #2
 291              	.LVL28:
 292              	.L14:
 147:Drivers/BSP/Components/lan8742/lan8742.c ****                  break;
 148:Drivers/BSP/Components/lan8742/lan8742.c ****                }
 149:Drivers/BSP/Components/lan8742/lan8742.c ****              }
ARM GAS  /var/folders/bg/n1lwdyp56391g865_v8nrmhm0000gn/T//cctaIZQZ.s 			page 9


 150:Drivers/BSP/Components/lan8742/lan8742.c ****              else
 151:Drivers/BSP/Components/lan8742/lan8742.c ****              {
 152:Drivers/BSP/Components/lan8742/lan8742.c ****                status = LAN8742_STATUS_RESET_TIMEOUT;
 153:Drivers/BSP/Components/lan8742/lan8742.c ****                break;
 154:Drivers/BSP/Components/lan8742/lan8742.c ****              }
 155:Drivers/BSP/Components/lan8742/lan8742.c ****            } 
 156:Drivers/BSP/Components/lan8742/lan8742.c ****          }
 157:Drivers/BSP/Components/lan8742/lan8742.c ****          else
 158:Drivers/BSP/Components/lan8742/lan8742.c ****          {
 159:Drivers/BSP/Components/lan8742/lan8742.c ****            status = LAN8742_STATUS_READ_ERROR;
 160:Drivers/BSP/Components/lan8742/lan8742.c ****          }
 161:Drivers/BSP/Components/lan8742/lan8742.c ****        }
 162:Drivers/BSP/Components/lan8742/lan8742.c ****        else
 163:Drivers/BSP/Components/lan8742/lan8742.c ****        {
 164:Drivers/BSP/Components/lan8742/lan8742.c ****          status = LAN8742_STATUS_WRITE_ERROR;
 165:Drivers/BSP/Components/lan8742/lan8742.c ****        }
 166:Drivers/BSP/Components/lan8742/lan8742.c ****      }
 167:Drivers/BSP/Components/lan8742/lan8742.c ****    }
 168:Drivers/BSP/Components/lan8742/lan8742.c ****       
 169:Drivers/BSP/Components/lan8742/lan8742.c ****    if(status == LAN8742_STATUS_OK)
 293              		.loc 1 169 4 is_stmt 1 view .LVU99
 294              		.loc 1 169 6 is_stmt 0 view .LVU100
 295 009a 7EB9     		cbnz	r6, .L7
 296 009c 03E0     		b	.L8
 297              	.LVL29:
 298              	.L24:
 152:Drivers/BSP/Components/lan8742/lan8742.c ****                break;
 299              		.loc 1 152 23 view .LVU101
 300 009e 6FF00106 		mvn	r6, #1
 301              	.LVL30:
 152:Drivers/BSP/Components/lan8742/lan8742.c ****                break;
 302              		.loc 1 152 23 view .LVU102
 303 00a2 FAE7     		b	.L14
 304              	.LVL31:
 305              	.L19:
  91:Drivers/BSP/Components/lan8742/lan8742.c ****    
 306              		.loc 1 91 12 view .LVU103
 307 00a4 0026     		movs	r6, #0
 308              	.LVL32:
 309              	.L8:
 170:Drivers/BSP/Components/lan8742/lan8742.c ****    {
 171:Drivers/BSP/Components/lan8742/lan8742.c ****      tickstart =  pObj->IO.GetTick();
 310              		.loc 1 171 6 is_stmt 1 view .LVU104
 311              		.loc 1 171 27 is_stmt 0 view .LVU105
 312 00a6 AB69     		ldr	r3, [r5, #24]
 313              		.loc 1 171 19 view .LVU106
 314 00a8 9847     		blx	r3
 315              	.LVL33:
 316 00aa 0446     		mov	r4, r0
 317              	.LVL34:
 172:Drivers/BSP/Components/lan8742/lan8742.c ****      
 173:Drivers/BSP/Components/lan8742/lan8742.c ****      /* Wait for 2s to perform initialization */
 174:Drivers/BSP/Components/lan8742/lan8742.c ****      while((pObj->IO.GetTick() - tickstart) <= LAN8742_INIT_TO)
 318              		.loc 1 174 6 is_stmt 1 view .LVU107
 319              	.L18:
 175:Drivers/BSP/Components/lan8742/lan8742.c ****      {
 176:Drivers/BSP/Components/lan8742/lan8742.c ****      }
ARM GAS  /var/folders/bg/n1lwdyp56391g865_v8nrmhm0000gn/T//cctaIZQZ.s 			page 10


 320              		.loc 1 176 6 discriminator 1 view .LVU108
 174:Drivers/BSP/Components/lan8742/lan8742.c ****      {
 321              		.loc 1 174 11 discriminator 1 view .LVU109
 174:Drivers/BSP/Components/lan8742/lan8742.c ****      {
 322              		.loc 1 174 21 is_stmt 0 discriminator 1 view .LVU110
 323 00ac AB69     		ldr	r3, [r5, #24]
 174:Drivers/BSP/Components/lan8742/lan8742.c ****      {
 324              		.loc 1 174 13 discriminator 1 view .LVU111
 325 00ae 9847     		blx	r3
 326              	.LVL35:
 174:Drivers/BSP/Components/lan8742/lan8742.c ****      {
 327              		.loc 1 174 32 discriminator 1 view .LVU112
 328 00b0 031B     		subs	r3, r0, r4
 174:Drivers/BSP/Components/lan8742/lan8742.c ****      {
 329              		.loc 1 174 11 discriminator 1 view .LVU113
 330 00b2 B3F5FA6F 		cmp	r3, #2000
 331 00b6 F9D9     		bls	.L18
 177:Drivers/BSP/Components/lan8742/lan8742.c ****      pObj->Is_Initialized = 1;
 332              		.loc 1 177 6 is_stmt 1 view .LVU114
 333              		.loc 1 177 27 is_stmt 0 view .LVU115
 334 00b8 0123     		movs	r3, #1
 335 00ba 6B60     		str	r3, [r5, #4]
 336              	.LVL36:
 337              	.L7:
 178:Drivers/BSP/Components/lan8742/lan8742.c ****    }
 179:Drivers/BSP/Components/lan8742/lan8742.c ****    
 180:Drivers/BSP/Components/lan8742/lan8742.c ****    return status;
 181:Drivers/BSP/Components/lan8742/lan8742.c ****  }
 338              		.loc 1 181 2 view .LVU116
 339 00bc 3046     		mov	r0, r6
 340 00be 02B0     		add	sp, sp, #8
 341              	.LCFI2:
 342              		.cfi_remember_state
 343              		.cfi_def_cfa_offset 16
 344              		@ sp needed
 345 00c0 70BD     		pop	{r4, r5, r6, pc}
 346              	.LVL37:
 347              	.L22:
 348              	.LCFI3:
 349              		.cfi_restore_state
 164:Drivers/BSP/Components/lan8742/lan8742.c ****        }
 350              		.loc 1 164 17 view .LVU117
 351 00c2 6FF00306 		mvn	r6, #3
 352              	.LVL38:
 164:Drivers/BSP/Components/lan8742/lan8742.c ****        }
 353              		.loc 1 164 17 view .LVU118
 354 00c6 F9E7     		b	.L7
 355              	.LVL39:
 356              	.L23:
 159:Drivers/BSP/Components/lan8742/lan8742.c ****          }
 357              		.loc 1 159 19 view .LVU119
 358 00c8 6FF00406 		mvn	r6, #4
 359              	.LVL40:
 180:Drivers/BSP/Components/lan8742/lan8742.c ****  }
 360              		.loc 1 180 4 is_stmt 1 view .LVU120
 180:Drivers/BSP/Components/lan8742/lan8742.c ****  }
 361              		.loc 1 180 11 is_stmt 0 view .LVU121
ARM GAS  /var/folders/bg/n1lwdyp56391g865_v8nrmhm0000gn/T//cctaIZQZ.s 			page 11


 362 00cc F6E7     		b	.L7
 363              		.cfi_endproc
 364              	.LFE1:
 366              		.section	.text.LAN8742_DeInit,"ax",%progbits
 367              		.align	1
 368              		.global	LAN8742_DeInit
 369              		.syntax unified
 370              		.thumb
 371              		.thumb_func
 372              		.fpu fpv5-d16
 374              	LAN8742_DeInit:
 375              	.LVL41:
 376              	.LFB2:
 182:Drivers/BSP/Components/lan8742/lan8742.c **** 
 183:Drivers/BSP/Components/lan8742/lan8742.c **** /**
 184:Drivers/BSP/Components/lan8742/lan8742.c ****   * @brief  De-Initialize the lan8742 and it's hardware resources
 185:Drivers/BSP/Components/lan8742/lan8742.c ****   * @param  pObj: device object LAN8742_Object_t. 
 186:Drivers/BSP/Components/lan8742/lan8742.c ****   * @retval None
 187:Drivers/BSP/Components/lan8742/lan8742.c ****   */
 188:Drivers/BSP/Components/lan8742/lan8742.c **** int32_t LAN8742_DeInit(lan8742_Object_t *pObj)
 189:Drivers/BSP/Components/lan8742/lan8742.c **** {
 377              		.loc 1 189 1 is_stmt 1 view -0
 378              		.cfi_startproc
 379              		@ args = 0, pretend = 0, frame = 0
 380              		@ frame_needed = 0, uses_anonymous_args = 0
 190:Drivers/BSP/Components/lan8742/lan8742.c ****   if(pObj->Is_Initialized)
 381              		.loc 1 190 3 view .LVU123
 382              		.loc 1 190 10 is_stmt 0 view .LVU124
 383 0000 4368     		ldr	r3, [r0, #4]
 384              		.loc 1 190 5 view .LVU125
 385 0002 4BB1     		cbz	r3, .L30
 189:Drivers/BSP/Components/lan8742/lan8742.c ****   if(pObj->Is_Initialized)
 386              		.loc 1 189 1 view .LVU126
 387 0004 10B5     		push	{r4, lr}
 388              	.LCFI4:
 389              		.cfi_def_cfa_offset 8
 390              		.cfi_offset 4, -8
 391              		.cfi_offset 14, -4
 392 0006 0446     		mov	r4, r0
 191:Drivers/BSP/Components/lan8742/lan8742.c ****   {
 192:Drivers/BSP/Components/lan8742/lan8742.c ****     if(pObj->IO.DeInit != 0)
 393              		.loc 1 192 5 is_stmt 1 view .LVU127
 394              		.loc 1 192 16 is_stmt 0 view .LVU128
 395 0008 C368     		ldr	r3, [r0, #12]
 396              		.loc 1 192 7 view .LVU129
 397 000a 13B1     		cbz	r3, .L29
 193:Drivers/BSP/Components/lan8742/lan8742.c ****     {
 194:Drivers/BSP/Components/lan8742/lan8742.c ****       if(pObj->IO.DeInit() < 0)
 398              		.loc 1 194 7 is_stmt 1 view .LVU130
 399              		.loc 1 194 10 is_stmt 0 view .LVU131
 400 000c 9847     		blx	r3
 401              	.LVL42:
 402              		.loc 1 194 9 view .LVU132
 403 000e 0028     		cmp	r0, #0
 404 0010 04DB     		blt	.L31
 405              	.L29:
 195:Drivers/BSP/Components/lan8742/lan8742.c ****       {
ARM GAS  /var/folders/bg/n1lwdyp56391g865_v8nrmhm0000gn/T//cctaIZQZ.s 			page 12


 196:Drivers/BSP/Components/lan8742/lan8742.c ****         return LAN8742_STATUS_ERROR;
 197:Drivers/BSP/Components/lan8742/lan8742.c ****       }
 198:Drivers/BSP/Components/lan8742/lan8742.c ****     }
 199:Drivers/BSP/Components/lan8742/lan8742.c ****   
 200:Drivers/BSP/Components/lan8742/lan8742.c ****     pObj->Is_Initialized = 0;  
 406              		.loc 1 200 5 is_stmt 1 view .LVU133
 407              		.loc 1 200 26 is_stmt 0 view .LVU134
 408 0012 0020     		movs	r0, #0
 409 0014 6060     		str	r0, [r4, #4]
 410              	.L27:
 201:Drivers/BSP/Components/lan8742/lan8742.c ****   }
 202:Drivers/BSP/Components/lan8742/lan8742.c ****   
 203:Drivers/BSP/Components/lan8742/lan8742.c ****   return LAN8742_STATUS_OK;
 204:Drivers/BSP/Components/lan8742/lan8742.c **** }
 411              		.loc 1 204 1 view .LVU135
 412 0016 10BD     		pop	{r4, pc}
 413              	.LVL43:
 414              	.L30:
 415              	.LCFI5:
 416              		.cfi_def_cfa_offset 0
 417              		.cfi_restore 4
 418              		.cfi_restore 14
 203:Drivers/BSP/Components/lan8742/lan8742.c **** }
 419              		.loc 1 203 10 view .LVU136
 420 0018 0020     		movs	r0, #0
 421              	.LVL44:
 422              		.loc 1 204 1 view .LVU137
 423 001a 7047     		bx	lr
 424              	.LVL45:
 425              	.L31:
 426              	.LCFI6:
 427              		.cfi_def_cfa_offset 8
 428              		.cfi_offset 4, -8
 429              		.cfi_offset 14, -4
 196:Drivers/BSP/Components/lan8742/lan8742.c ****       }
 430              		.loc 1 196 16 view .LVU138
 431 001c 4FF0FF30 		mov	r0, #-1
 432 0020 F9E7     		b	.L27
 433              		.cfi_endproc
 434              	.LFE2:
 436              		.section	.text.LAN8742_DisablePowerDownMode,"ax",%progbits
 437              		.align	1
 438              		.global	LAN8742_DisablePowerDownMode
 439              		.syntax unified
 440              		.thumb
 441              		.thumb_func
 442              		.fpu fpv5-d16
 444              	LAN8742_DisablePowerDownMode:
 445              	.LVL46:
 446              	.LFB3:
 205:Drivers/BSP/Components/lan8742/lan8742.c **** 
 206:Drivers/BSP/Components/lan8742/lan8742.c **** /**
 207:Drivers/BSP/Components/lan8742/lan8742.c ****   * @brief  Disable the LAN8742 power down mode.
 208:Drivers/BSP/Components/lan8742/lan8742.c ****   * @param  pObj: device object LAN8742_Object_t.  
 209:Drivers/BSP/Components/lan8742/lan8742.c ****   * @retval LAN8742_STATUS_OK  if OK
 210:Drivers/BSP/Components/lan8742/lan8742.c ****   *         LAN8742_STATUS_READ_ERROR if connot read register
 211:Drivers/BSP/Components/lan8742/lan8742.c ****   *         LAN8742_STATUS_WRITE_ERROR if connot write to register
ARM GAS  /var/folders/bg/n1lwdyp56391g865_v8nrmhm0000gn/T//cctaIZQZ.s 			page 13


 212:Drivers/BSP/Components/lan8742/lan8742.c ****   */
 213:Drivers/BSP/Components/lan8742/lan8742.c **** int32_t LAN8742_DisablePowerDownMode(lan8742_Object_t *pObj)
 214:Drivers/BSP/Components/lan8742/lan8742.c **** {
 447              		.loc 1 214 1 is_stmt 1 view -0
 448              		.cfi_startproc
 449              		@ args = 0, pretend = 0, frame = 8
 450              		@ frame_needed = 0, uses_anonymous_args = 0
 451              		.loc 1 214 1 is_stmt 0 view .LVU140
 452 0000 10B5     		push	{r4, lr}
 453              	.LCFI7:
 454              		.cfi_def_cfa_offset 8
 455              		.cfi_offset 4, -8
 456              		.cfi_offset 14, -4
 457 0002 82B0     		sub	sp, sp, #8
 458              	.LCFI8:
 459              		.cfi_def_cfa_offset 16
 460 0004 0446     		mov	r4, r0
 215:Drivers/BSP/Components/lan8742/lan8742.c ****   uint32_t readval = 0;
 461              		.loc 1 215 3 is_stmt 1 view .LVU141
 462              		.loc 1 215 12 is_stmt 0 view .LVU142
 463 0006 0021     		movs	r1, #0
 464 0008 0191     		str	r1, [sp, #4]
 216:Drivers/BSP/Components/lan8742/lan8742.c ****   int32_t status = LAN8742_STATUS_OK;
 465              		.loc 1 216 3 is_stmt 1 view .LVU143
 466              	.LVL47:
 217:Drivers/BSP/Components/lan8742/lan8742.c ****   
 218:Drivers/BSP/Components/lan8742/lan8742.c ****   if(pObj->IO.ReadReg(pObj->DevAddr, LAN8742_BCR, &readval) >= 0)
 467              		.loc 1 218 3 view .LVU144
 468              		.loc 1 218 14 is_stmt 0 view .LVU145
 469 000a 4369     		ldr	r3, [r0, #20]
 470              		.loc 1 218 6 view .LVU146
 471 000c 01AA     		add	r2, sp, #4
 472 000e 0068     		ldr	r0, [r0]
 473              	.LVL48:
 474              		.loc 1 218 6 view .LVU147
 475 0010 9847     		blx	r3
 476              	.LVL49:
 477              		.loc 1 218 5 view .LVU148
 478 0012 0028     		cmp	r0, #0
 479 0014 0CDB     		blt	.L38
 219:Drivers/BSP/Components/lan8742/lan8742.c ****   {
 220:Drivers/BSP/Components/lan8742/lan8742.c ****     readval &= ~LAN8742_BCR_POWER_DOWN;
 480              		.loc 1 220 5 is_stmt 1 view .LVU149
 481              		.loc 1 220 13 is_stmt 0 view .LVU150
 482 0016 019A     		ldr	r2, [sp, #4]
 483 0018 22F40062 		bic	r2, r2, #2048
 484 001c 0192     		str	r2, [sp, #4]
 221:Drivers/BSP/Components/lan8742/lan8742.c ****   
 222:Drivers/BSP/Components/lan8742/lan8742.c ****     /* Apply configuration */
 223:Drivers/BSP/Components/lan8742/lan8742.c ****     if(pObj->IO.WriteReg(pObj->DevAddr, LAN8742_BCR, readval) < 0)
 485              		.loc 1 223 5 is_stmt 1 view .LVU151
 486              		.loc 1 223 16 is_stmt 0 view .LVU152
 487 001e 2369     		ldr	r3, [r4, #16]
 488              		.loc 1 223 8 view .LVU153
 489 0020 0021     		movs	r1, #0
 490 0022 2068     		ldr	r0, [r4]
 491 0024 9847     		blx	r3
ARM GAS  /var/folders/bg/n1lwdyp56391g865_v8nrmhm0000gn/T//cctaIZQZ.s 			page 14


 492              	.LVL50:
 493              		.loc 1 223 7 view .LVU154
 494 0026 0028     		cmp	r0, #0
 495 0028 05DB     		blt	.L39
 216:Drivers/BSP/Components/lan8742/lan8742.c ****   
 496              		.loc 1 216 11 view .LVU155
 497 002a 0020     		movs	r0, #0
 498              	.LVL51:
 499              	.L36:
 224:Drivers/BSP/Components/lan8742/lan8742.c ****     {
 225:Drivers/BSP/Components/lan8742/lan8742.c ****       status =  LAN8742_STATUS_WRITE_ERROR;
 226:Drivers/BSP/Components/lan8742/lan8742.c ****     }
 227:Drivers/BSP/Components/lan8742/lan8742.c ****   }
 228:Drivers/BSP/Components/lan8742/lan8742.c ****   else
 229:Drivers/BSP/Components/lan8742/lan8742.c ****   {
 230:Drivers/BSP/Components/lan8742/lan8742.c ****     status = LAN8742_STATUS_READ_ERROR;
 231:Drivers/BSP/Components/lan8742/lan8742.c ****   }
 232:Drivers/BSP/Components/lan8742/lan8742.c ****    
 233:Drivers/BSP/Components/lan8742/lan8742.c ****   return status;
 234:Drivers/BSP/Components/lan8742/lan8742.c **** }
 500              		.loc 1 234 1 view .LVU156
 501 002c 02B0     		add	sp, sp, #8
 502              	.LCFI9:
 503              		.cfi_remember_state
 504              		.cfi_def_cfa_offset 8
 505              		@ sp needed
 506 002e 10BD     		pop	{r4, pc}
 507              	.LVL52:
 508              	.L38:
 509              	.LCFI10:
 510              		.cfi_restore_state
 230:Drivers/BSP/Components/lan8742/lan8742.c ****   }
 511              		.loc 1 230 12 view .LVU157
 512 0030 6FF00400 		mvn	r0, #4
 513 0034 FAE7     		b	.L36
 514              	.L39:
 225:Drivers/BSP/Components/lan8742/lan8742.c ****     }
 515              		.loc 1 225 14 view .LVU158
 516 0036 6FF00300 		mvn	r0, #3
 517              	.LVL53:
 233:Drivers/BSP/Components/lan8742/lan8742.c **** }
 518              		.loc 1 233 3 is_stmt 1 view .LVU159
 233:Drivers/BSP/Components/lan8742/lan8742.c **** }
 519              		.loc 1 233 10 is_stmt 0 view .LVU160
 520 003a F7E7     		b	.L36
 521              		.cfi_endproc
 522              	.LFE3:
 524              		.section	.text.LAN8742_EnablePowerDownMode,"ax",%progbits
 525              		.align	1
 526              		.global	LAN8742_EnablePowerDownMode
 527              		.syntax unified
 528              		.thumb
 529              		.thumb_func
 530              		.fpu fpv5-d16
 532              	LAN8742_EnablePowerDownMode:
 533              	.LVL54:
 534              	.LFB4:
ARM GAS  /var/folders/bg/n1lwdyp56391g865_v8nrmhm0000gn/T//cctaIZQZ.s 			page 15


 235:Drivers/BSP/Components/lan8742/lan8742.c **** 
 236:Drivers/BSP/Components/lan8742/lan8742.c **** /**
 237:Drivers/BSP/Components/lan8742/lan8742.c ****   * @brief  Enable the LAN8742 power down mode.
 238:Drivers/BSP/Components/lan8742/lan8742.c ****   * @param  pObj: device object LAN8742_Object_t.  
 239:Drivers/BSP/Components/lan8742/lan8742.c ****   * @retval LAN8742_STATUS_OK  if OK
 240:Drivers/BSP/Components/lan8742/lan8742.c ****   *         LAN8742_STATUS_READ_ERROR if connot read register
 241:Drivers/BSP/Components/lan8742/lan8742.c ****   *         LAN8742_STATUS_WRITE_ERROR if connot write to register
 242:Drivers/BSP/Components/lan8742/lan8742.c ****   */
 243:Drivers/BSP/Components/lan8742/lan8742.c **** int32_t LAN8742_EnablePowerDownMode(lan8742_Object_t *pObj)
 244:Drivers/BSP/Components/lan8742/lan8742.c **** {
 535              		.loc 1 244 1 is_stmt 1 view -0
 536              		.cfi_startproc
 537              		@ args = 0, pretend = 0, frame = 8
 538              		@ frame_needed = 0, uses_anonymous_args = 0
 539              		.loc 1 244 1 is_stmt 0 view .LVU162
 540 0000 10B5     		push	{r4, lr}
 541              	.LCFI11:
 542              		.cfi_def_cfa_offset 8
 543              		.cfi_offset 4, -8
 544              		.cfi_offset 14, -4
 545 0002 82B0     		sub	sp, sp, #8
 546              	.LCFI12:
 547              		.cfi_def_cfa_offset 16
 548 0004 0446     		mov	r4, r0
 245:Drivers/BSP/Components/lan8742/lan8742.c ****   uint32_t readval = 0;
 549              		.loc 1 245 3 is_stmt 1 view .LVU163
 550              		.loc 1 245 12 is_stmt 0 view .LVU164
 551 0006 0021     		movs	r1, #0
 552 0008 0191     		str	r1, [sp, #4]
 246:Drivers/BSP/Components/lan8742/lan8742.c ****   int32_t status = LAN8742_STATUS_OK;
 553              		.loc 1 246 3 is_stmt 1 view .LVU165
 554              	.LVL55:
 247:Drivers/BSP/Components/lan8742/lan8742.c ****   
 248:Drivers/BSP/Components/lan8742/lan8742.c ****   if(pObj->IO.ReadReg(pObj->DevAddr, LAN8742_BCR, &readval) >= 0)
 555              		.loc 1 248 3 view .LVU166
 556              		.loc 1 248 14 is_stmt 0 view .LVU167
 557 000a 4369     		ldr	r3, [r0, #20]
 558              		.loc 1 248 6 view .LVU168
 559 000c 01AA     		add	r2, sp, #4
 560 000e 0068     		ldr	r0, [r0]
 561              	.LVL56:
 562              		.loc 1 248 6 view .LVU169
 563 0010 9847     		blx	r3
 564              	.LVL57:
 565              		.loc 1 248 5 view .LVU170
 566 0012 0028     		cmp	r0, #0
 567 0014 0CDB     		blt	.L43
 249:Drivers/BSP/Components/lan8742/lan8742.c ****   {
 250:Drivers/BSP/Components/lan8742/lan8742.c ****     readval |= LAN8742_BCR_POWER_DOWN;
 568              		.loc 1 250 5 is_stmt 1 view .LVU171
 569              		.loc 1 250 13 is_stmt 0 view .LVU172
 570 0016 019A     		ldr	r2, [sp, #4]
 571 0018 42F40062 		orr	r2, r2, #2048
 572 001c 0192     		str	r2, [sp, #4]
 251:Drivers/BSP/Components/lan8742/lan8742.c ****   
 252:Drivers/BSP/Components/lan8742/lan8742.c ****     /* Apply configuration */
 253:Drivers/BSP/Components/lan8742/lan8742.c ****     if(pObj->IO.WriteReg(pObj->DevAddr, LAN8742_BCR, readval) < 0)
ARM GAS  /var/folders/bg/n1lwdyp56391g865_v8nrmhm0000gn/T//cctaIZQZ.s 			page 16


 573              		.loc 1 253 5 is_stmt 1 view .LVU173
 574              		.loc 1 253 16 is_stmt 0 view .LVU174
 575 001e 2369     		ldr	r3, [r4, #16]
 576              		.loc 1 253 8 view .LVU175
 577 0020 0021     		movs	r1, #0
 578 0022 2068     		ldr	r0, [r4]
 579 0024 9847     		blx	r3
 580              	.LVL58:
 581              		.loc 1 253 7 view .LVU176
 582 0026 0028     		cmp	r0, #0
 583 0028 05DB     		blt	.L44
 246:Drivers/BSP/Components/lan8742/lan8742.c ****   
 584              		.loc 1 246 11 view .LVU177
 585 002a 0020     		movs	r0, #0
 586              	.LVL59:
 587              	.L41:
 254:Drivers/BSP/Components/lan8742/lan8742.c ****     {
 255:Drivers/BSP/Components/lan8742/lan8742.c ****       status =  LAN8742_STATUS_WRITE_ERROR;
 256:Drivers/BSP/Components/lan8742/lan8742.c ****     }
 257:Drivers/BSP/Components/lan8742/lan8742.c ****   }
 258:Drivers/BSP/Components/lan8742/lan8742.c ****   else
 259:Drivers/BSP/Components/lan8742/lan8742.c ****   {
 260:Drivers/BSP/Components/lan8742/lan8742.c ****     status = LAN8742_STATUS_READ_ERROR;
 261:Drivers/BSP/Components/lan8742/lan8742.c ****   }
 262:Drivers/BSP/Components/lan8742/lan8742.c ****    
 263:Drivers/BSP/Components/lan8742/lan8742.c ****   return status;
 264:Drivers/BSP/Components/lan8742/lan8742.c **** }
 588              		.loc 1 264 1 view .LVU178
 589 002c 02B0     		add	sp, sp, #8
 590              	.LCFI13:
 591              		.cfi_remember_state
 592              		.cfi_def_cfa_offset 8
 593              		@ sp needed
 594 002e 10BD     		pop	{r4, pc}
 595              	.LVL60:
 596              	.L43:
 597              	.LCFI14:
 598              		.cfi_restore_state
 260:Drivers/BSP/Components/lan8742/lan8742.c ****   }
 599              		.loc 1 260 12 view .LVU179
 600 0030 6FF00400 		mvn	r0, #4
 601 0034 FAE7     		b	.L41
 602              	.L44:
 255:Drivers/BSP/Components/lan8742/lan8742.c ****     }
 603              		.loc 1 255 14 view .LVU180
 604 0036 6FF00300 		mvn	r0, #3
 605              	.LVL61:
 263:Drivers/BSP/Components/lan8742/lan8742.c **** }
 606              		.loc 1 263 3 is_stmt 1 view .LVU181
 263:Drivers/BSP/Components/lan8742/lan8742.c **** }
 607              		.loc 1 263 10 is_stmt 0 view .LVU182
 608 003a F7E7     		b	.L41
 609              		.cfi_endproc
 610              	.LFE4:
 612              		.section	.text.LAN8742_StartAutoNego,"ax",%progbits
 613              		.align	1
 614              		.global	LAN8742_StartAutoNego
ARM GAS  /var/folders/bg/n1lwdyp56391g865_v8nrmhm0000gn/T//cctaIZQZ.s 			page 17


 615              		.syntax unified
 616              		.thumb
 617              		.thumb_func
 618              		.fpu fpv5-d16
 620              	LAN8742_StartAutoNego:
 621              	.LVL62:
 622              	.LFB5:
 265:Drivers/BSP/Components/lan8742/lan8742.c **** 
 266:Drivers/BSP/Components/lan8742/lan8742.c **** /**
 267:Drivers/BSP/Components/lan8742/lan8742.c ****   * @brief  Start the auto negotiation process.
 268:Drivers/BSP/Components/lan8742/lan8742.c ****   * @param  pObj: device object LAN8742_Object_t.  
 269:Drivers/BSP/Components/lan8742/lan8742.c ****   * @retval LAN8742_STATUS_OK  if OK
 270:Drivers/BSP/Components/lan8742/lan8742.c ****   *         LAN8742_STATUS_READ_ERROR if connot read register
 271:Drivers/BSP/Components/lan8742/lan8742.c ****   *         LAN8742_STATUS_WRITE_ERROR if connot write to register
 272:Drivers/BSP/Components/lan8742/lan8742.c ****   */
 273:Drivers/BSP/Components/lan8742/lan8742.c **** int32_t LAN8742_StartAutoNego(lan8742_Object_t *pObj)
 274:Drivers/BSP/Components/lan8742/lan8742.c **** {
 623              		.loc 1 274 1 is_stmt 1 view -0
 624              		.cfi_startproc
 625              		@ args = 0, pretend = 0, frame = 8
 626              		@ frame_needed = 0, uses_anonymous_args = 0
 627              		.loc 1 274 1 is_stmt 0 view .LVU184
 628 0000 10B5     		push	{r4, lr}
 629              	.LCFI15:
 630              		.cfi_def_cfa_offset 8
 631              		.cfi_offset 4, -8
 632              		.cfi_offset 14, -4
 633 0002 82B0     		sub	sp, sp, #8
 634              	.LCFI16:
 635              		.cfi_def_cfa_offset 16
 636 0004 0446     		mov	r4, r0
 275:Drivers/BSP/Components/lan8742/lan8742.c ****   uint32_t readval = 0;
 637              		.loc 1 275 3 is_stmt 1 view .LVU185
 638              		.loc 1 275 12 is_stmt 0 view .LVU186
 639 0006 0021     		movs	r1, #0
 640 0008 0191     		str	r1, [sp, #4]
 276:Drivers/BSP/Components/lan8742/lan8742.c ****   int32_t status = LAN8742_STATUS_OK;
 641              		.loc 1 276 3 is_stmt 1 view .LVU187
 642              	.LVL63:
 277:Drivers/BSP/Components/lan8742/lan8742.c ****   
 278:Drivers/BSP/Components/lan8742/lan8742.c ****   if(pObj->IO.ReadReg(pObj->DevAddr, LAN8742_BCR, &readval) >= 0)
 643              		.loc 1 278 3 view .LVU188
 644              		.loc 1 278 14 is_stmt 0 view .LVU189
 645 000a 4369     		ldr	r3, [r0, #20]
 646              		.loc 1 278 6 view .LVU190
 647 000c 01AA     		add	r2, sp, #4
 648 000e 0068     		ldr	r0, [r0]
 649              	.LVL64:
 650              		.loc 1 278 6 view .LVU191
 651 0010 9847     		blx	r3
 652              	.LVL65:
 653              		.loc 1 278 5 view .LVU192
 654 0012 0028     		cmp	r0, #0
 655 0014 0CDB     		blt	.L48
 279:Drivers/BSP/Components/lan8742/lan8742.c ****   {
 280:Drivers/BSP/Components/lan8742/lan8742.c ****     readval |= LAN8742_BCR_AUTONEGO_EN;
 656              		.loc 1 280 5 is_stmt 1 view .LVU193
ARM GAS  /var/folders/bg/n1lwdyp56391g865_v8nrmhm0000gn/T//cctaIZQZ.s 			page 18


 657              		.loc 1 280 13 is_stmt 0 view .LVU194
 658 0016 019A     		ldr	r2, [sp, #4]
 659 0018 42F48052 		orr	r2, r2, #4096
 660 001c 0192     		str	r2, [sp, #4]
 281:Drivers/BSP/Components/lan8742/lan8742.c ****   
 282:Drivers/BSP/Components/lan8742/lan8742.c ****     /* Apply configuration */
 283:Drivers/BSP/Components/lan8742/lan8742.c ****     if(pObj->IO.WriteReg(pObj->DevAddr, LAN8742_BCR, readval) < 0)
 661              		.loc 1 283 5 is_stmt 1 view .LVU195
 662              		.loc 1 283 16 is_stmt 0 view .LVU196
 663 001e 2369     		ldr	r3, [r4, #16]
 664              		.loc 1 283 8 view .LVU197
 665 0020 0021     		movs	r1, #0
 666 0022 2068     		ldr	r0, [r4]
 667 0024 9847     		blx	r3
 668              	.LVL66:
 669              		.loc 1 283 7 view .LVU198
 670 0026 0028     		cmp	r0, #0
 671 0028 05DB     		blt	.L49
 276:Drivers/BSP/Components/lan8742/lan8742.c ****   
 672              		.loc 1 276 11 view .LVU199
 673 002a 0020     		movs	r0, #0
 674              	.LVL67:
 675              	.L46:
 284:Drivers/BSP/Components/lan8742/lan8742.c ****     {
 285:Drivers/BSP/Components/lan8742/lan8742.c ****       status =  LAN8742_STATUS_WRITE_ERROR;
 286:Drivers/BSP/Components/lan8742/lan8742.c ****     }
 287:Drivers/BSP/Components/lan8742/lan8742.c ****   }
 288:Drivers/BSP/Components/lan8742/lan8742.c ****   else
 289:Drivers/BSP/Components/lan8742/lan8742.c ****   {
 290:Drivers/BSP/Components/lan8742/lan8742.c ****     status = LAN8742_STATUS_READ_ERROR;
 291:Drivers/BSP/Components/lan8742/lan8742.c ****   }
 292:Drivers/BSP/Components/lan8742/lan8742.c ****    
 293:Drivers/BSP/Components/lan8742/lan8742.c ****   return status;
 294:Drivers/BSP/Components/lan8742/lan8742.c **** }
 676              		.loc 1 294 1 view .LVU200
 677 002c 02B0     		add	sp, sp, #8
 678              	.LCFI17:
 679              		.cfi_remember_state
 680              		.cfi_def_cfa_offset 8
 681              		@ sp needed
 682 002e 10BD     		pop	{r4, pc}
 683              	.LVL68:
 684              	.L48:
 685              	.LCFI18:
 686              		.cfi_restore_state
 290:Drivers/BSP/Components/lan8742/lan8742.c ****   }
 687              		.loc 1 290 12 view .LVU201
 688 0030 6FF00400 		mvn	r0, #4
 689 0034 FAE7     		b	.L46
 690              	.L49:
 285:Drivers/BSP/Components/lan8742/lan8742.c ****     }
 691              		.loc 1 285 14 view .LVU202
 692 0036 6FF00300 		mvn	r0, #3
 693              	.LVL69:
 293:Drivers/BSP/Components/lan8742/lan8742.c **** }
 694              		.loc 1 293 3 is_stmt 1 view .LVU203
 293:Drivers/BSP/Components/lan8742/lan8742.c **** }
ARM GAS  /var/folders/bg/n1lwdyp56391g865_v8nrmhm0000gn/T//cctaIZQZ.s 			page 19


 695              		.loc 1 293 10 is_stmt 0 view .LVU204
 696 003a F7E7     		b	.L46
 697              		.cfi_endproc
 698              	.LFE5:
 700              		.section	.text.LAN8742_GetLinkState,"ax",%progbits
 701              		.align	1
 702              		.global	LAN8742_GetLinkState
 703              		.syntax unified
 704              		.thumb
 705              		.thumb_func
 706              		.fpu fpv5-d16
 708              	LAN8742_GetLinkState:
 709              	.LVL70:
 710              	.LFB6:
 295:Drivers/BSP/Components/lan8742/lan8742.c **** 
 296:Drivers/BSP/Components/lan8742/lan8742.c **** /**
 297:Drivers/BSP/Components/lan8742/lan8742.c ****   * @brief  Get the link state of LAN8742 device.
 298:Drivers/BSP/Components/lan8742/lan8742.c ****   * @param  pObj: Pointer to device object. 
 299:Drivers/BSP/Components/lan8742/lan8742.c ****   * @param  pLinkState: Pointer to link state
 300:Drivers/BSP/Components/lan8742/lan8742.c ****   * @retval LAN8742_STATUS_LINK_DOWN  if link is down
 301:Drivers/BSP/Components/lan8742/lan8742.c ****   *         LAN8742_STATUS_AUTONEGO_NOTDONE if Auto nego not completed 
 302:Drivers/BSP/Components/lan8742/lan8742.c ****   *         LAN8742_STATUS_100MBITS_FULLDUPLEX if 100Mb/s FD
 303:Drivers/BSP/Components/lan8742/lan8742.c ****   *         LAN8742_STATUS_100MBITS_HALFDUPLEX if 100Mb/s HD
 304:Drivers/BSP/Components/lan8742/lan8742.c ****   *         LAN8742_STATUS_10MBITS_FULLDUPLEX  if 10Mb/s FD
 305:Drivers/BSP/Components/lan8742/lan8742.c ****   *         LAN8742_STATUS_10MBITS_HALFDUPLEX  if 10Mb/s HD       
 306:Drivers/BSP/Components/lan8742/lan8742.c ****   *         LAN8742_STATUS_READ_ERROR if connot read register
 307:Drivers/BSP/Components/lan8742/lan8742.c ****   *         LAN8742_STATUS_WRITE_ERROR if connot write to register
 308:Drivers/BSP/Components/lan8742/lan8742.c ****   */
 309:Drivers/BSP/Components/lan8742/lan8742.c **** int32_t LAN8742_GetLinkState(lan8742_Object_t *pObj)
 310:Drivers/BSP/Components/lan8742/lan8742.c **** {
 711              		.loc 1 310 1 is_stmt 1 view -0
 712              		.cfi_startproc
 713              		@ args = 0, pretend = 0, frame = 8
 714              		@ frame_needed = 0, uses_anonymous_args = 0
 715              		.loc 1 310 1 is_stmt 0 view .LVU206
 716 0000 10B5     		push	{r4, lr}
 717              	.LCFI19:
 718              		.cfi_def_cfa_offset 8
 719              		.cfi_offset 4, -8
 720              		.cfi_offset 14, -4
 721 0002 82B0     		sub	sp, sp, #8
 722              	.LCFI20:
 723              		.cfi_def_cfa_offset 16
 724 0004 0446     		mov	r4, r0
 311:Drivers/BSP/Components/lan8742/lan8742.c ****   uint32_t readval = 0;
 725              		.loc 1 311 3 is_stmt 1 view .LVU207
 726              		.loc 1 311 12 is_stmt 0 view .LVU208
 727 0006 0023     		movs	r3, #0
 728 0008 0193     		str	r3, [sp, #4]
 312:Drivers/BSP/Components/lan8742/lan8742.c ****   
 313:Drivers/BSP/Components/lan8742/lan8742.c ****   /* Read Status register  */
 314:Drivers/BSP/Components/lan8742/lan8742.c ****   if(pObj->IO.ReadReg(pObj->DevAddr, LAN8742_BSR, &readval) < 0)
 729              		.loc 1 314 3 is_stmt 1 view .LVU209
 730              		.loc 1 314 14 is_stmt 0 view .LVU210
 731 000a 4369     		ldr	r3, [r0, #20]
 732              		.loc 1 314 6 view .LVU211
 733 000c 01AA     		add	r2, sp, #4
ARM GAS  /var/folders/bg/n1lwdyp56391g865_v8nrmhm0000gn/T//cctaIZQZ.s 			page 20


 734 000e 0121     		movs	r1, #1
 735 0010 0068     		ldr	r0, [r0]
 736              	.LVL71:
 737              		.loc 1 314 6 view .LVU212
 738 0012 9847     		blx	r3
 739              	.LVL72:
 740              		.loc 1 314 5 view .LVU213
 741 0014 0028     		cmp	r0, #0
 742 0016 39DB     		blt	.L54
 315:Drivers/BSP/Components/lan8742/lan8742.c ****   {
 316:Drivers/BSP/Components/lan8742/lan8742.c ****     return LAN8742_STATUS_READ_ERROR;
 317:Drivers/BSP/Components/lan8742/lan8742.c ****   }
 318:Drivers/BSP/Components/lan8742/lan8742.c ****   
 319:Drivers/BSP/Components/lan8742/lan8742.c ****   /* Read Status register again */
 320:Drivers/BSP/Components/lan8742/lan8742.c ****   if(pObj->IO.ReadReg(pObj->DevAddr, LAN8742_BSR, &readval) < 0)
 743              		.loc 1 320 3 is_stmt 1 view .LVU214
 744              		.loc 1 320 14 is_stmt 0 view .LVU215
 745 0018 6369     		ldr	r3, [r4, #20]
 746              		.loc 1 320 6 view .LVU216
 747 001a 01AA     		add	r2, sp, #4
 748 001c 0121     		movs	r1, #1
 749 001e 2068     		ldr	r0, [r4]
 750 0020 9847     		blx	r3
 751              	.LVL73:
 752              		.loc 1 320 5 view .LVU217
 753 0022 0028     		cmp	r0, #0
 754 0024 35DB     		blt	.L55
 321:Drivers/BSP/Components/lan8742/lan8742.c ****   {
 322:Drivers/BSP/Components/lan8742/lan8742.c ****     return LAN8742_STATUS_READ_ERROR;
 323:Drivers/BSP/Components/lan8742/lan8742.c ****   }
 324:Drivers/BSP/Components/lan8742/lan8742.c ****   
 325:Drivers/BSP/Components/lan8742/lan8742.c ****   if((readval & LAN8742_BSR_LINK_STATUS) == 0)
 755              		.loc 1 325 3 is_stmt 1 view .LVU218
 756              		.loc 1 325 5 is_stmt 0 view .LVU219
 757 0026 019B     		ldr	r3, [sp, #4]
 758 0028 13F0040F 		tst	r3, #4
 759 002c 34D0     		beq	.L56
 326:Drivers/BSP/Components/lan8742/lan8742.c ****   {
 327:Drivers/BSP/Components/lan8742/lan8742.c ****     /* Return Link Down status */
 328:Drivers/BSP/Components/lan8742/lan8742.c ****     return LAN8742_STATUS_LINK_DOWN;    
 329:Drivers/BSP/Components/lan8742/lan8742.c ****   }
 330:Drivers/BSP/Components/lan8742/lan8742.c ****   
 331:Drivers/BSP/Components/lan8742/lan8742.c ****   /* Check Auto negotiaition */
 332:Drivers/BSP/Components/lan8742/lan8742.c ****   if(pObj->IO.ReadReg(pObj->DevAddr, LAN8742_BCR, &readval) < 0)
 760              		.loc 1 332 3 is_stmt 1 view .LVU220
 761              		.loc 1 332 14 is_stmt 0 view .LVU221
 762 002e 6369     		ldr	r3, [r4, #20]
 763              		.loc 1 332 6 view .LVU222
 764 0030 01AA     		add	r2, sp, #4
 765 0032 0021     		movs	r1, #0
 766 0034 2068     		ldr	r0, [r4]
 767 0036 9847     		blx	r3
 768              	.LVL74:
 769              		.loc 1 332 5 view .LVU223
 770 0038 0028     		cmp	r0, #0
 771 003a 30DB     		blt	.L57
 333:Drivers/BSP/Components/lan8742/lan8742.c ****   {
ARM GAS  /var/folders/bg/n1lwdyp56391g865_v8nrmhm0000gn/T//cctaIZQZ.s 			page 21


 334:Drivers/BSP/Components/lan8742/lan8742.c ****     return LAN8742_STATUS_READ_ERROR;
 335:Drivers/BSP/Components/lan8742/lan8742.c ****   }
 336:Drivers/BSP/Components/lan8742/lan8742.c ****   
 337:Drivers/BSP/Components/lan8742/lan8742.c ****   if((readval & LAN8742_BCR_AUTONEGO_EN) != LAN8742_BCR_AUTONEGO_EN)
 772              		.loc 1 337 3 is_stmt 1 view .LVU224
 773              		.loc 1 337 15 is_stmt 0 view .LVU225
 774 003c 019B     		ldr	r3, [sp, #4]
 775              		.loc 1 337 5 view .LVU226
 776 003e 13F4805F 		tst	r3, #4096
 777 0042 0CD1     		bne	.L53
 338:Drivers/BSP/Components/lan8742/lan8742.c ****   {
 339:Drivers/BSP/Components/lan8742/lan8742.c ****     if(((readval & LAN8742_BCR_SPEED_SELECT) == LAN8742_BCR_SPEED_SELECT) && ((readval & LAN8742_BC
 778              		.loc 1 339 5 is_stmt 1 view .LVU227
 779              		.loc 1 339 75 is_stmt 0 view .LVU228
 780 0044 03F40452 		and	r2, r3, #8448
 781              		.loc 1 339 7 view .LVU229
 782 0048 B2F5045F 		cmp	r2, #8448
 783 004c 2AD0     		beq	.L58
 340:Drivers/BSP/Components/lan8742/lan8742.c ****     {
 341:Drivers/BSP/Components/lan8742/lan8742.c ****       return LAN8742_STATUS_100MBITS_FULLDUPLEX;
 342:Drivers/BSP/Components/lan8742/lan8742.c ****     }
 343:Drivers/BSP/Components/lan8742/lan8742.c ****     else if ((readval & LAN8742_BCR_SPEED_SELECT) == LAN8742_BCR_SPEED_SELECT)
 784              		.loc 1 343 10 is_stmt 1 view .LVU230
 785              		.loc 1 343 13 is_stmt 0 view .LVU231
 786 004e 13F4005F 		tst	r3, #8192
 787 0052 29D1     		bne	.L59
 344:Drivers/BSP/Components/lan8742/lan8742.c ****     {
 345:Drivers/BSP/Components/lan8742/lan8742.c ****       return LAN8742_STATUS_100MBITS_HALFDUPLEX;
 346:Drivers/BSP/Components/lan8742/lan8742.c ****     }        
 347:Drivers/BSP/Components/lan8742/lan8742.c ****     else if ((readval & LAN8742_BCR_DUPLEX_MODE) == LAN8742_BCR_DUPLEX_MODE)
 788              		.loc 1 347 10 is_stmt 1 view .LVU232
 789              		.loc 1 347 13 is_stmt 0 view .LVU233
 790 0054 13F4807F 		tst	r3, #256
 791 0058 28D0     		beq	.L60
 348:Drivers/BSP/Components/lan8742/lan8742.c ****     {
 349:Drivers/BSP/Components/lan8742/lan8742.c ****       return LAN8742_STATUS_10MBITS_FULLDUPLEX;
 792              		.loc 1 349 14 view .LVU234
 793 005a 0420     		movs	r0, #4
 794 005c 1DE0     		b	.L51
 795              	.L53:
 350:Drivers/BSP/Components/lan8742/lan8742.c ****     }
 351:Drivers/BSP/Components/lan8742/lan8742.c ****     else
 352:Drivers/BSP/Components/lan8742/lan8742.c ****     {
 353:Drivers/BSP/Components/lan8742/lan8742.c ****       return LAN8742_STATUS_10MBITS_HALFDUPLEX;
 354:Drivers/BSP/Components/lan8742/lan8742.c ****     }  		
 355:Drivers/BSP/Components/lan8742/lan8742.c ****   }
 356:Drivers/BSP/Components/lan8742/lan8742.c ****   else /* Auto Nego enabled */
 357:Drivers/BSP/Components/lan8742/lan8742.c ****   {
 358:Drivers/BSP/Components/lan8742/lan8742.c ****     if(pObj->IO.ReadReg(pObj->DevAddr, LAN8742_PHYSCSR, &readval) < 0)
 796              		.loc 1 358 5 is_stmt 1 view .LVU235
 797              		.loc 1 358 16 is_stmt 0 view .LVU236
 798 005e 6369     		ldr	r3, [r4, #20]
 799              		.loc 1 358 8 view .LVU237
 800 0060 01AA     		add	r2, sp, #4
 801 0062 1F21     		movs	r1, #31
 802 0064 2068     		ldr	r0, [r4]
 803 0066 9847     		blx	r3
ARM GAS  /var/folders/bg/n1lwdyp56391g865_v8nrmhm0000gn/T//cctaIZQZ.s 			page 22


 804              	.LVL75:
 805              		.loc 1 358 7 view .LVU238
 806 0068 0028     		cmp	r0, #0
 807 006a 21DB     		blt	.L61
 359:Drivers/BSP/Components/lan8742/lan8742.c ****     {
 360:Drivers/BSP/Components/lan8742/lan8742.c ****       return LAN8742_STATUS_READ_ERROR;
 361:Drivers/BSP/Components/lan8742/lan8742.c ****     }
 362:Drivers/BSP/Components/lan8742/lan8742.c ****     
 363:Drivers/BSP/Components/lan8742/lan8742.c ****     /* Check if auto nego not done */
 364:Drivers/BSP/Components/lan8742/lan8742.c ****     if((readval & LAN8742_PHYSCSR_AUTONEGO_DONE) == 0)
 808              		.loc 1 364 5 is_stmt 1 view .LVU239
 809              		.loc 1 364 17 is_stmt 0 view .LVU240
 810 006c 019B     		ldr	r3, [sp, #4]
 811              		.loc 1 364 7 view .LVU241
 812 006e 13F4805F 		tst	r3, #4096
 813 0072 20D0     		beq	.L62
 365:Drivers/BSP/Components/lan8742/lan8742.c ****     {
 366:Drivers/BSP/Components/lan8742/lan8742.c ****       return LAN8742_STATUS_AUTONEGO_NOTDONE;
 367:Drivers/BSP/Components/lan8742/lan8742.c ****     }
 368:Drivers/BSP/Components/lan8742/lan8742.c ****     
 369:Drivers/BSP/Components/lan8742/lan8742.c ****     if((readval & LAN8742_PHYSCSR_HCDSPEEDMASK) == LAN8742_PHYSCSR_100BTX_FD)
 814              		.loc 1 369 5 is_stmt 1 view .LVU242
 815              		.loc 1 369 17 is_stmt 0 view .LVU243
 816 0074 03F01C03 		and	r3, r3, #28
 817              		.loc 1 369 7 view .LVU244
 818 0078 182B     		cmp	r3, #24
 819 007a 1ED0     		beq	.L63
 370:Drivers/BSP/Components/lan8742/lan8742.c ****     {
 371:Drivers/BSP/Components/lan8742/lan8742.c ****       return LAN8742_STATUS_100MBITS_FULLDUPLEX;
 372:Drivers/BSP/Components/lan8742/lan8742.c ****     }
 373:Drivers/BSP/Components/lan8742/lan8742.c ****     else if ((readval & LAN8742_PHYSCSR_HCDSPEEDMASK) == LAN8742_PHYSCSR_100BTX_HD)
 820              		.loc 1 373 10 is_stmt 1 view .LVU245
 821              		.loc 1 373 13 is_stmt 0 view .LVU246
 822 007c 082B     		cmp	r3, #8
 823 007e 1ED0     		beq	.L64
 374:Drivers/BSP/Components/lan8742/lan8742.c ****     {
 375:Drivers/BSP/Components/lan8742/lan8742.c ****       return LAN8742_STATUS_100MBITS_HALFDUPLEX;
 376:Drivers/BSP/Components/lan8742/lan8742.c ****     }
 377:Drivers/BSP/Components/lan8742/lan8742.c ****     else if ((readval & LAN8742_PHYSCSR_HCDSPEEDMASK) == LAN8742_PHYSCSR_10BT_FD)
 824              		.loc 1 377 10 is_stmt 1 view .LVU247
 825              		.loc 1 377 13 is_stmt 0 view .LVU248
 826 0080 142B     		cmp	r3, #20
 827 0082 01D0     		beq	.L67
 378:Drivers/BSP/Components/lan8742/lan8742.c ****     {
 379:Drivers/BSP/Components/lan8742/lan8742.c ****       return LAN8742_STATUS_10MBITS_FULLDUPLEX;
 380:Drivers/BSP/Components/lan8742/lan8742.c ****     }
 381:Drivers/BSP/Components/lan8742/lan8742.c ****     else
 382:Drivers/BSP/Components/lan8742/lan8742.c ****     {
 383:Drivers/BSP/Components/lan8742/lan8742.c ****       return LAN8742_STATUS_10MBITS_HALFDUPLEX;
 828              		.loc 1 383 14 view .LVU249
 829 0084 0520     		movs	r0, #5
 830 0086 08E0     		b	.L51
 831              	.L67:
 379:Drivers/BSP/Components/lan8742/lan8742.c ****     }
 832              		.loc 1 379 14 view .LVU250
 833 0088 0420     		movs	r0, #4
 834 008a 06E0     		b	.L51
ARM GAS  /var/folders/bg/n1lwdyp56391g865_v8nrmhm0000gn/T//cctaIZQZ.s 			page 23


 835              	.L54:
 316:Drivers/BSP/Components/lan8742/lan8742.c ****   }
 836              		.loc 1 316 12 view .LVU251
 837 008c 6FF00400 		mvn	r0, #4
 838 0090 03E0     		b	.L51
 839              	.L55:
 322:Drivers/BSP/Components/lan8742/lan8742.c ****   }
 840              		.loc 1 322 12 view .LVU252
 841 0092 6FF00400 		mvn	r0, #4
 842 0096 00E0     		b	.L51
 843              	.L56:
 328:Drivers/BSP/Components/lan8742/lan8742.c ****   }
 844              		.loc 1 328 12 view .LVU253
 845 0098 0120     		movs	r0, #1
 846              	.L51:
 384:Drivers/BSP/Components/lan8742/lan8742.c ****     }				
 385:Drivers/BSP/Components/lan8742/lan8742.c ****   }
 386:Drivers/BSP/Components/lan8742/lan8742.c **** }
 847              		.loc 1 386 1 view .LVU254
 848 009a 02B0     		add	sp, sp, #8
 849              	.LCFI21:
 850              		.cfi_remember_state
 851              		.cfi_def_cfa_offset 8
 852              		@ sp needed
 853 009c 10BD     		pop	{r4, pc}
 854              	.LVL76:
 855              	.L57:
 856              	.LCFI22:
 857              		.cfi_restore_state
 334:Drivers/BSP/Components/lan8742/lan8742.c ****   }
 858              		.loc 1 334 12 view .LVU255
 859 009e 6FF00400 		mvn	r0, #4
 860 00a2 FAE7     		b	.L51
 861              	.L58:
 341:Drivers/BSP/Components/lan8742/lan8742.c ****     }
 862              		.loc 1 341 14 view .LVU256
 863 00a4 0220     		movs	r0, #2
 864 00a6 F8E7     		b	.L51
 865              	.L59:
 345:Drivers/BSP/Components/lan8742/lan8742.c ****     }        
 866              		.loc 1 345 14 view .LVU257
 867 00a8 0320     		movs	r0, #3
 868 00aa F6E7     		b	.L51
 869              	.L60:
 353:Drivers/BSP/Components/lan8742/lan8742.c ****     }  		
 870              		.loc 1 353 14 view .LVU258
 871 00ac 0520     		movs	r0, #5
 872 00ae F4E7     		b	.L51
 873              	.L61:
 360:Drivers/BSP/Components/lan8742/lan8742.c ****     }
 874              		.loc 1 360 14 view .LVU259
 875 00b0 6FF00400 		mvn	r0, #4
 876 00b4 F1E7     		b	.L51
 877              	.L62:
 366:Drivers/BSP/Components/lan8742/lan8742.c ****     }
 878              		.loc 1 366 14 view .LVU260
 879 00b6 0620     		movs	r0, #6
ARM GAS  /var/folders/bg/n1lwdyp56391g865_v8nrmhm0000gn/T//cctaIZQZ.s 			page 24


 880 00b8 EFE7     		b	.L51
 881              	.L63:
 371:Drivers/BSP/Components/lan8742/lan8742.c ****     }
 882              		.loc 1 371 14 view .LVU261
 883 00ba 0220     		movs	r0, #2
 884 00bc EDE7     		b	.L51
 885              	.L64:
 375:Drivers/BSP/Components/lan8742/lan8742.c ****     }
 886              		.loc 1 375 14 view .LVU262
 887 00be 0320     		movs	r0, #3
 888 00c0 EBE7     		b	.L51
 889              		.cfi_endproc
 890              	.LFE6:
 892              		.section	.text.LAN8742_SetLinkState,"ax",%progbits
 893              		.align	1
 894              		.global	LAN8742_SetLinkState
 895              		.syntax unified
 896              		.thumb
 897              		.thumb_func
 898              		.fpu fpv5-d16
 900              	LAN8742_SetLinkState:
 901              	.LVL77:
 902              	.LFB7:
 387:Drivers/BSP/Components/lan8742/lan8742.c **** 
 388:Drivers/BSP/Components/lan8742/lan8742.c **** /**
 389:Drivers/BSP/Components/lan8742/lan8742.c ****   * @brief  Set the link state of LAN8742 device.
 390:Drivers/BSP/Components/lan8742/lan8742.c ****   * @param  pObj: Pointer to device object. 
 391:Drivers/BSP/Components/lan8742/lan8742.c ****   * @param  pLinkState: link state can be one of the following
 392:Drivers/BSP/Components/lan8742/lan8742.c ****   *         LAN8742_STATUS_100MBITS_FULLDUPLEX if 100Mb/s FD
 393:Drivers/BSP/Components/lan8742/lan8742.c ****   *         LAN8742_STATUS_100MBITS_HALFDUPLEX if 100Mb/s HD
 394:Drivers/BSP/Components/lan8742/lan8742.c ****   *         LAN8742_STATUS_10MBITS_FULLDUPLEX  if 10Mb/s FD
 395:Drivers/BSP/Components/lan8742/lan8742.c ****   *         LAN8742_STATUS_10MBITS_HALFDUPLEX  if 10Mb/s HD   
 396:Drivers/BSP/Components/lan8742/lan8742.c ****   * @retval LAN8742_STATUS_OK  if OK
 397:Drivers/BSP/Components/lan8742/lan8742.c ****   *         LAN8742_STATUS_ERROR  if parameter error  
 398:Drivers/BSP/Components/lan8742/lan8742.c ****   *         LAN8742_STATUS_READ_ERROR if connot read register
 399:Drivers/BSP/Components/lan8742/lan8742.c ****   *         LAN8742_STATUS_WRITE_ERROR if connot write to register
 400:Drivers/BSP/Components/lan8742/lan8742.c ****   */
 401:Drivers/BSP/Components/lan8742/lan8742.c **** int32_t LAN8742_SetLinkState(lan8742_Object_t *pObj, uint32_t LinkState)
 402:Drivers/BSP/Components/lan8742/lan8742.c **** {
 903              		.loc 1 402 1 is_stmt 1 view -0
 904              		.cfi_startproc
 905              		@ args = 0, pretend = 0, frame = 8
 906              		@ frame_needed = 0, uses_anonymous_args = 0
 907              		.loc 1 402 1 is_stmt 0 view .LVU264
 908 0000 30B5     		push	{r4, r5, lr}
 909              	.LCFI23:
 910              		.cfi_def_cfa_offset 12
 911              		.cfi_offset 4, -12
 912              		.cfi_offset 5, -8
 913              		.cfi_offset 14, -4
 914 0002 83B0     		sub	sp, sp, #12
 915              	.LCFI24:
 916              		.cfi_def_cfa_offset 24
 917 0004 0446     		mov	r4, r0
 918 0006 0D46     		mov	r5, r1
 403:Drivers/BSP/Components/lan8742/lan8742.c ****   uint32_t bcrvalue = 0;
 919              		.loc 1 403 3 is_stmt 1 view .LVU265
ARM GAS  /var/folders/bg/n1lwdyp56391g865_v8nrmhm0000gn/T//cctaIZQZ.s 			page 25


 920              		.loc 1 403 12 is_stmt 0 view .LVU266
 921 0008 0021     		movs	r1, #0
 922              	.LVL78:
 923              		.loc 1 403 12 view .LVU267
 924 000a 0191     		str	r1, [sp, #4]
 404:Drivers/BSP/Components/lan8742/lan8742.c ****   int32_t status = LAN8742_STATUS_OK;
 925              		.loc 1 404 3 is_stmt 1 view .LVU268
 926              	.LVL79:
 405:Drivers/BSP/Components/lan8742/lan8742.c ****   
 406:Drivers/BSP/Components/lan8742/lan8742.c ****   if(pObj->IO.ReadReg(pObj->DevAddr, LAN8742_BCR, &bcrvalue) >= 0)
 927              		.loc 1 406 3 view .LVU269
 928              		.loc 1 406 14 is_stmt 0 view .LVU270
 929 000c 4369     		ldr	r3, [r0, #20]
 930              		.loc 1 406 6 view .LVU271
 931 000e 01AA     		add	r2, sp, #4
 932 0010 0068     		ldr	r0, [r0]
 933              	.LVL80:
 934              		.loc 1 406 6 view .LVU272
 935 0012 9847     		blx	r3
 936              	.LVL81:
 937              		.loc 1 406 5 view .LVU273
 938 0014 0028     		cmp	r0, #0
 939 0016 1EDB     		blt	.L73
 407:Drivers/BSP/Components/lan8742/lan8742.c ****   {
 408:Drivers/BSP/Components/lan8742/lan8742.c ****     /* Disable link config (Auto nego, speed and duplex) */
 409:Drivers/BSP/Components/lan8742/lan8742.c ****     bcrvalue &= ~(LAN8742_BCR_AUTONEGO_EN | LAN8742_BCR_SPEED_SELECT | LAN8742_BCR_DUPLEX_MODE);
 940              		.loc 1 409 5 is_stmt 1 view .LVU274
 941              		.loc 1 409 14 is_stmt 0 view .LVU275
 942 0018 019B     		ldr	r3, [sp, #4]
 943 001a 23F44453 		bic	r3, r3, #12544
 944 001e 0193     		str	r3, [sp, #4]
 410:Drivers/BSP/Components/lan8742/lan8742.c ****     
 411:Drivers/BSP/Components/lan8742/lan8742.c ****     if(LinkState == LAN8742_STATUS_100MBITS_FULLDUPLEX)
 945              		.loc 1 411 5 is_stmt 1 view .LVU276
 946              		.loc 1 411 7 is_stmt 0 view .LVU277
 947 0020 022D     		cmp	r5, #2
 948 0022 10D0     		beq	.L77
 412:Drivers/BSP/Components/lan8742/lan8742.c ****     {
 413:Drivers/BSP/Components/lan8742/lan8742.c ****       bcrvalue |= (LAN8742_BCR_SPEED_SELECT | LAN8742_BCR_DUPLEX_MODE);
 414:Drivers/BSP/Components/lan8742/lan8742.c ****     }
 415:Drivers/BSP/Components/lan8742/lan8742.c ****     else if (LinkState == LAN8742_STATUS_100MBITS_HALFDUPLEX)
 949              		.loc 1 415 10 is_stmt 1 view .LVU278
 950              		.loc 1 415 13 is_stmt 0 view .LVU279
 951 0024 032D     		cmp	r5, #3
 952 0026 12D0     		beq	.L78
 416:Drivers/BSP/Components/lan8742/lan8742.c ****     {
 417:Drivers/BSP/Components/lan8742/lan8742.c ****       bcrvalue |= LAN8742_BCR_SPEED_SELECT;
 418:Drivers/BSP/Components/lan8742/lan8742.c ****     }
 419:Drivers/BSP/Components/lan8742/lan8742.c ****     else if (LinkState == LAN8742_STATUS_10MBITS_FULLDUPLEX)
 953              		.loc 1 419 10 is_stmt 1 view .LVU280
 954              		.loc 1 419 13 is_stmt 0 view .LVU281
 955 0028 042D     		cmp	r5, #4
 956 002a 17D1     		bne	.L74
 420:Drivers/BSP/Components/lan8742/lan8742.c ****     {
 421:Drivers/BSP/Components/lan8742/lan8742.c ****       bcrvalue |= LAN8742_BCR_DUPLEX_MODE;
 957              		.loc 1 421 7 is_stmt 1 view .LVU282
 958              		.loc 1 421 16 is_stmt 0 view .LVU283
ARM GAS  /var/folders/bg/n1lwdyp56391g865_v8nrmhm0000gn/T//cctaIZQZ.s 			page 26


 959 002c 43F48073 		orr	r3, r3, #256
 960 0030 0193     		str	r3, [sp, #4]
 422:Drivers/BSP/Components/lan8742/lan8742.c ****     }
 423:Drivers/BSP/Components/lan8742/lan8742.c ****     else
 424:Drivers/BSP/Components/lan8742/lan8742.c ****     {
 425:Drivers/BSP/Components/lan8742/lan8742.c ****       /* Wrong link status parameter */
 426:Drivers/BSP/Components/lan8742/lan8742.c ****       status = LAN8742_STATUS_ERROR;
 427:Drivers/BSP/Components/lan8742/lan8742.c ****     }	
 428:Drivers/BSP/Components/lan8742/lan8742.c ****   }
 429:Drivers/BSP/Components/lan8742/lan8742.c ****   else
 430:Drivers/BSP/Components/lan8742/lan8742.c ****   {
 431:Drivers/BSP/Components/lan8742/lan8742.c ****     status = LAN8742_STATUS_READ_ERROR;
 432:Drivers/BSP/Components/lan8742/lan8742.c ****   }
 433:Drivers/BSP/Components/lan8742/lan8742.c ****   
 434:Drivers/BSP/Components/lan8742/lan8742.c ****   if(status == LAN8742_STATUS_OK)
 961              		.loc 1 434 3 is_stmt 1 view .LVU284
 962              	.L71:
 435:Drivers/BSP/Components/lan8742/lan8742.c ****   {
 436:Drivers/BSP/Components/lan8742/lan8742.c ****     /* Apply configuration */
 437:Drivers/BSP/Components/lan8742/lan8742.c ****     if(pObj->IO.WriteReg(pObj->DevAddr, LAN8742_BCR, bcrvalue) < 0)
 963              		.loc 1 437 5 view .LVU285
 964              		.loc 1 437 16 is_stmt 0 view .LVU286
 965 0032 2369     		ldr	r3, [r4, #16]
 966              		.loc 1 437 8 view .LVU287
 967 0034 019A     		ldr	r2, [sp, #4]
 968 0036 0021     		movs	r1, #0
 969 0038 2068     		ldr	r0, [r4]
 970 003a 9847     		blx	r3
 971              	.LVL82:
 972              		.loc 1 437 7 view .LVU288
 973 003c 0028     		cmp	r0, #0
 974 003e 10DB     		blt	.L75
 975 0040 0020     		movs	r0, #0
 976              	.LVL83:
 977              	.L68:
 438:Drivers/BSP/Components/lan8742/lan8742.c ****     {
 439:Drivers/BSP/Components/lan8742/lan8742.c ****       status = LAN8742_STATUS_WRITE_ERROR;
 440:Drivers/BSP/Components/lan8742/lan8742.c ****     }
 441:Drivers/BSP/Components/lan8742/lan8742.c ****   }
 442:Drivers/BSP/Components/lan8742/lan8742.c ****   
 443:Drivers/BSP/Components/lan8742/lan8742.c ****   return status;
 444:Drivers/BSP/Components/lan8742/lan8742.c **** }
 978              		.loc 1 444 1 view .LVU289
 979 0042 03B0     		add	sp, sp, #12
 980              	.LCFI25:
 981              		.cfi_remember_state
 982              		.cfi_def_cfa_offset 12
 983              		@ sp needed
 984 0044 30BD     		pop	{r4, r5, pc}
 985              	.LVL84:
 986              	.L77:
 987              	.LCFI26:
 988              		.cfi_restore_state
 413:Drivers/BSP/Components/lan8742/lan8742.c ****     }
 989              		.loc 1 413 7 is_stmt 1 view .LVU290
 413:Drivers/BSP/Components/lan8742/lan8742.c ****     }
 990              		.loc 1 413 16 is_stmt 0 view .LVU291
ARM GAS  /var/folders/bg/n1lwdyp56391g865_v8nrmhm0000gn/T//cctaIZQZ.s 			page 27


 991 0046 43F40453 		orr	r3, r3, #8448
 992 004a 0193     		str	r3, [sp, #4]
 434:Drivers/BSP/Components/lan8742/lan8742.c ****   {
 993              		.loc 1 434 3 is_stmt 1 view .LVU292
 994 004c F1E7     		b	.L71
 995              	.L78:
 417:Drivers/BSP/Components/lan8742/lan8742.c ****     }
 996              		.loc 1 417 7 view .LVU293
 417:Drivers/BSP/Components/lan8742/lan8742.c ****     }
 997              		.loc 1 417 16 is_stmt 0 view .LVU294
 998 004e 43F40053 		orr	r3, r3, #8192
 999 0052 0193     		str	r3, [sp, #4]
 434:Drivers/BSP/Components/lan8742/lan8742.c ****   {
 1000              		.loc 1 434 3 is_stmt 1 view .LVU295
 1001 0054 EDE7     		b	.L71
 1002              	.L73:
 431:Drivers/BSP/Components/lan8742/lan8742.c ****   }
 1003              		.loc 1 431 12 is_stmt 0 view .LVU296
 1004 0056 6FF00400 		mvn	r0, #4
 1005 005a F2E7     		b	.L68
 1006              	.L74:
 426:Drivers/BSP/Components/lan8742/lan8742.c ****     }	
 1007              		.loc 1 426 14 view .LVU297
 1008 005c 4FF0FF30 		mov	r0, #-1
 1009 0060 EFE7     		b	.L68
 1010              	.L75:
 439:Drivers/BSP/Components/lan8742/lan8742.c ****     }
 1011              		.loc 1 439 14 view .LVU298
 1012 0062 6FF00300 		mvn	r0, #3
 1013              	.LVL85:
 443:Drivers/BSP/Components/lan8742/lan8742.c **** }
 1014              		.loc 1 443 3 is_stmt 1 view .LVU299
 443:Drivers/BSP/Components/lan8742/lan8742.c **** }
 1015              		.loc 1 443 10 is_stmt 0 view .LVU300
 1016 0066 ECE7     		b	.L68
 1017              		.cfi_endproc
 1018              	.LFE7:
 1020              		.section	.text.LAN8742_EnableLoopbackMode,"ax",%progbits
 1021              		.align	1
 1022              		.global	LAN8742_EnableLoopbackMode
 1023              		.syntax unified
 1024              		.thumb
 1025              		.thumb_func
 1026              		.fpu fpv5-d16
 1028              	LAN8742_EnableLoopbackMode:
 1029              	.LVL86:
 1030              	.LFB8:
 445:Drivers/BSP/Components/lan8742/lan8742.c **** 
 446:Drivers/BSP/Components/lan8742/lan8742.c **** /**
 447:Drivers/BSP/Components/lan8742/lan8742.c ****   * @brief  Enable loopback mode.
 448:Drivers/BSP/Components/lan8742/lan8742.c ****   * @param  pObj: Pointer to device object. 
 449:Drivers/BSP/Components/lan8742/lan8742.c ****   * @retval LAN8742_STATUS_OK  if OK
 450:Drivers/BSP/Components/lan8742/lan8742.c ****   *         LAN8742_STATUS_READ_ERROR if connot read register
 451:Drivers/BSP/Components/lan8742/lan8742.c ****   *         LAN8742_STATUS_WRITE_ERROR if connot write to register
 452:Drivers/BSP/Components/lan8742/lan8742.c ****   */
 453:Drivers/BSP/Components/lan8742/lan8742.c **** int32_t LAN8742_EnableLoopbackMode(lan8742_Object_t *pObj)
 454:Drivers/BSP/Components/lan8742/lan8742.c **** {
ARM GAS  /var/folders/bg/n1lwdyp56391g865_v8nrmhm0000gn/T//cctaIZQZ.s 			page 28


 1031              		.loc 1 454 1 is_stmt 1 view -0
 1032              		.cfi_startproc
 1033              		@ args = 0, pretend = 0, frame = 8
 1034              		@ frame_needed = 0, uses_anonymous_args = 0
 1035              		.loc 1 454 1 is_stmt 0 view .LVU302
 1036 0000 10B5     		push	{r4, lr}
 1037              	.LCFI27:
 1038              		.cfi_def_cfa_offset 8
 1039              		.cfi_offset 4, -8
 1040              		.cfi_offset 14, -4
 1041 0002 82B0     		sub	sp, sp, #8
 1042              	.LCFI28:
 1043              		.cfi_def_cfa_offset 16
 1044 0004 0446     		mov	r4, r0
 455:Drivers/BSP/Components/lan8742/lan8742.c ****   uint32_t readval = 0;
 1045              		.loc 1 455 3 is_stmt 1 view .LVU303
 1046              		.loc 1 455 12 is_stmt 0 view .LVU304
 1047 0006 0021     		movs	r1, #0
 1048 0008 0191     		str	r1, [sp, #4]
 456:Drivers/BSP/Components/lan8742/lan8742.c ****   int32_t status = LAN8742_STATUS_OK;
 1049              		.loc 1 456 3 is_stmt 1 view .LVU305
 1050              	.LVL87:
 457:Drivers/BSP/Components/lan8742/lan8742.c ****   
 458:Drivers/BSP/Components/lan8742/lan8742.c ****   if(pObj->IO.ReadReg(pObj->DevAddr, LAN8742_BCR, &readval) >= 0)
 1051              		.loc 1 458 3 view .LVU306
 1052              		.loc 1 458 14 is_stmt 0 view .LVU307
 1053 000a 4369     		ldr	r3, [r0, #20]
 1054              		.loc 1 458 6 view .LVU308
 1055 000c 01AA     		add	r2, sp, #4
 1056 000e 0068     		ldr	r0, [r0]
 1057              	.LVL88:
 1058              		.loc 1 458 6 view .LVU309
 1059 0010 9847     		blx	r3
 1060              	.LVL89:
 1061              		.loc 1 458 5 view .LVU310
 1062 0012 0028     		cmp	r0, #0
 1063 0014 0CDB     		blt	.L81
 459:Drivers/BSP/Components/lan8742/lan8742.c ****   {
 460:Drivers/BSP/Components/lan8742/lan8742.c ****     readval |= LAN8742_BCR_LOOPBACK;
 1064              		.loc 1 460 5 is_stmt 1 view .LVU311
 1065              		.loc 1 460 13 is_stmt 0 view .LVU312
 1066 0016 019A     		ldr	r2, [sp, #4]
 1067 0018 42F48042 		orr	r2, r2, #16384
 1068 001c 0192     		str	r2, [sp, #4]
 461:Drivers/BSP/Components/lan8742/lan8742.c ****     
 462:Drivers/BSP/Components/lan8742/lan8742.c ****     /* Apply configuration */
 463:Drivers/BSP/Components/lan8742/lan8742.c ****     if(pObj->IO.WriteReg(pObj->DevAddr, LAN8742_BCR, readval) < 0)
 1069              		.loc 1 463 5 is_stmt 1 view .LVU313
 1070              		.loc 1 463 16 is_stmt 0 view .LVU314
 1071 001e 2369     		ldr	r3, [r4, #16]
 1072              		.loc 1 463 8 view .LVU315
 1073 0020 0021     		movs	r1, #0
 1074 0022 2068     		ldr	r0, [r4]
 1075 0024 9847     		blx	r3
 1076              	.LVL90:
 1077              		.loc 1 463 7 view .LVU316
 1078 0026 0028     		cmp	r0, #0
ARM GAS  /var/folders/bg/n1lwdyp56391g865_v8nrmhm0000gn/T//cctaIZQZ.s 			page 29


 1079 0028 05DB     		blt	.L82
 456:Drivers/BSP/Components/lan8742/lan8742.c ****   
 1080              		.loc 1 456 11 view .LVU317
 1081 002a 0020     		movs	r0, #0
 1082              	.LVL91:
 1083              	.L79:
 464:Drivers/BSP/Components/lan8742/lan8742.c ****     {
 465:Drivers/BSP/Components/lan8742/lan8742.c ****       status = LAN8742_STATUS_WRITE_ERROR;
 466:Drivers/BSP/Components/lan8742/lan8742.c ****     }
 467:Drivers/BSP/Components/lan8742/lan8742.c ****   }
 468:Drivers/BSP/Components/lan8742/lan8742.c ****   else
 469:Drivers/BSP/Components/lan8742/lan8742.c ****   {
 470:Drivers/BSP/Components/lan8742/lan8742.c ****     status = LAN8742_STATUS_READ_ERROR;
 471:Drivers/BSP/Components/lan8742/lan8742.c ****   }
 472:Drivers/BSP/Components/lan8742/lan8742.c ****   
 473:Drivers/BSP/Components/lan8742/lan8742.c ****   return status;
 474:Drivers/BSP/Components/lan8742/lan8742.c **** }
 1084              		.loc 1 474 1 view .LVU318
 1085 002c 02B0     		add	sp, sp, #8
 1086              	.LCFI29:
 1087              		.cfi_remember_state
 1088              		.cfi_def_cfa_offset 8
 1089              		@ sp needed
 1090 002e 10BD     		pop	{r4, pc}
 1091              	.LVL92:
 1092              	.L81:
 1093              	.LCFI30:
 1094              		.cfi_restore_state
 470:Drivers/BSP/Components/lan8742/lan8742.c ****   }
 1095              		.loc 1 470 12 view .LVU319
 1096 0030 6FF00400 		mvn	r0, #4
 1097 0034 FAE7     		b	.L79
 1098              	.L82:
 465:Drivers/BSP/Components/lan8742/lan8742.c ****     }
 1099              		.loc 1 465 14 view .LVU320
 1100 0036 6FF00300 		mvn	r0, #3
 1101              	.LVL93:
 473:Drivers/BSP/Components/lan8742/lan8742.c **** }
 1102              		.loc 1 473 3 is_stmt 1 view .LVU321
 473:Drivers/BSP/Components/lan8742/lan8742.c **** }
 1103              		.loc 1 473 10 is_stmt 0 view .LVU322
 1104 003a F7E7     		b	.L79
 1105              		.cfi_endproc
 1106              	.LFE8:
 1108              		.section	.text.LAN8742_DisableLoopbackMode,"ax",%progbits
 1109              		.align	1
 1110              		.global	LAN8742_DisableLoopbackMode
 1111              		.syntax unified
 1112              		.thumb
 1113              		.thumb_func
 1114              		.fpu fpv5-d16
 1116              	LAN8742_DisableLoopbackMode:
 1117              	.LVL94:
 1118              	.LFB9:
 475:Drivers/BSP/Components/lan8742/lan8742.c **** 
 476:Drivers/BSP/Components/lan8742/lan8742.c **** /**
 477:Drivers/BSP/Components/lan8742/lan8742.c ****   * @brief  Disable loopback mode.
ARM GAS  /var/folders/bg/n1lwdyp56391g865_v8nrmhm0000gn/T//cctaIZQZ.s 			page 30


 478:Drivers/BSP/Components/lan8742/lan8742.c ****   * @param  pObj: Pointer to device object. 
 479:Drivers/BSP/Components/lan8742/lan8742.c ****   * @retval LAN8742_STATUS_OK  if OK
 480:Drivers/BSP/Components/lan8742/lan8742.c ****   *         LAN8742_STATUS_READ_ERROR if connot read register
 481:Drivers/BSP/Components/lan8742/lan8742.c ****   *         LAN8742_STATUS_WRITE_ERROR if connot write to register
 482:Drivers/BSP/Components/lan8742/lan8742.c ****   */
 483:Drivers/BSP/Components/lan8742/lan8742.c **** int32_t LAN8742_DisableLoopbackMode(lan8742_Object_t *pObj)
 484:Drivers/BSP/Components/lan8742/lan8742.c **** {
 1119              		.loc 1 484 1 is_stmt 1 view -0
 1120              		.cfi_startproc
 1121              		@ args = 0, pretend = 0, frame = 8
 1122              		@ frame_needed = 0, uses_anonymous_args = 0
 1123              		.loc 1 484 1 is_stmt 0 view .LVU324
 1124 0000 10B5     		push	{r4, lr}
 1125              	.LCFI31:
 1126              		.cfi_def_cfa_offset 8
 1127              		.cfi_offset 4, -8
 1128              		.cfi_offset 14, -4
 1129 0002 82B0     		sub	sp, sp, #8
 1130              	.LCFI32:
 1131              		.cfi_def_cfa_offset 16
 1132 0004 0446     		mov	r4, r0
 485:Drivers/BSP/Components/lan8742/lan8742.c ****   uint32_t readval = 0;
 1133              		.loc 1 485 3 is_stmt 1 view .LVU325
 1134              		.loc 1 485 12 is_stmt 0 view .LVU326
 1135 0006 0021     		movs	r1, #0
 1136 0008 0191     		str	r1, [sp, #4]
 486:Drivers/BSP/Components/lan8742/lan8742.c ****   int32_t status = LAN8742_STATUS_OK;
 1137              		.loc 1 486 3 is_stmt 1 view .LVU327
 1138              	.LVL95:
 487:Drivers/BSP/Components/lan8742/lan8742.c ****   
 488:Drivers/BSP/Components/lan8742/lan8742.c ****   if(pObj->IO.ReadReg(pObj->DevAddr, LAN8742_BCR, &readval) >= 0)
 1139              		.loc 1 488 3 view .LVU328
 1140              		.loc 1 488 14 is_stmt 0 view .LVU329
 1141 000a 4369     		ldr	r3, [r0, #20]
 1142              		.loc 1 488 6 view .LVU330
 1143 000c 01AA     		add	r2, sp, #4
 1144 000e 0068     		ldr	r0, [r0]
 1145              	.LVL96:
 1146              		.loc 1 488 6 view .LVU331
 1147 0010 9847     		blx	r3
 1148              	.LVL97:
 1149              		.loc 1 488 5 view .LVU332
 1150 0012 0028     		cmp	r0, #0
 1151 0014 0CDB     		blt	.L86
 489:Drivers/BSP/Components/lan8742/lan8742.c ****   {
 490:Drivers/BSP/Components/lan8742/lan8742.c ****     readval &= ~LAN8742_BCR_LOOPBACK;
 1152              		.loc 1 490 5 is_stmt 1 view .LVU333
 1153              		.loc 1 490 13 is_stmt 0 view .LVU334
 1154 0016 019A     		ldr	r2, [sp, #4]
 1155 0018 22F48042 		bic	r2, r2, #16384
 1156 001c 0192     		str	r2, [sp, #4]
 491:Drivers/BSP/Components/lan8742/lan8742.c ****   
 492:Drivers/BSP/Components/lan8742/lan8742.c ****     /* Apply configuration */
 493:Drivers/BSP/Components/lan8742/lan8742.c ****     if(pObj->IO.WriteReg(pObj->DevAddr, LAN8742_BCR, readval) < 0)
 1157              		.loc 1 493 5 is_stmt 1 view .LVU335
 1158              		.loc 1 493 16 is_stmt 0 view .LVU336
 1159 001e 2369     		ldr	r3, [r4, #16]
ARM GAS  /var/folders/bg/n1lwdyp56391g865_v8nrmhm0000gn/T//cctaIZQZ.s 			page 31


 1160              		.loc 1 493 8 view .LVU337
 1161 0020 0021     		movs	r1, #0
 1162 0022 2068     		ldr	r0, [r4]
 1163 0024 9847     		blx	r3
 1164              	.LVL98:
 1165              		.loc 1 493 7 view .LVU338
 1166 0026 0028     		cmp	r0, #0
 1167 0028 05DB     		blt	.L87
 486:Drivers/BSP/Components/lan8742/lan8742.c ****   
 1168              		.loc 1 486 11 view .LVU339
 1169 002a 0020     		movs	r0, #0
 1170              	.LVL99:
 1171              	.L84:
 494:Drivers/BSP/Components/lan8742/lan8742.c ****     {
 495:Drivers/BSP/Components/lan8742/lan8742.c ****       status =  LAN8742_STATUS_WRITE_ERROR;
 496:Drivers/BSP/Components/lan8742/lan8742.c ****     }
 497:Drivers/BSP/Components/lan8742/lan8742.c ****   }
 498:Drivers/BSP/Components/lan8742/lan8742.c ****   else
 499:Drivers/BSP/Components/lan8742/lan8742.c ****   {
 500:Drivers/BSP/Components/lan8742/lan8742.c ****     status = LAN8742_STATUS_READ_ERROR;
 501:Drivers/BSP/Components/lan8742/lan8742.c ****   }
 502:Drivers/BSP/Components/lan8742/lan8742.c ****    
 503:Drivers/BSP/Components/lan8742/lan8742.c ****   return status;
 504:Drivers/BSP/Components/lan8742/lan8742.c **** }
 1172              		.loc 1 504 1 view .LVU340
 1173 002c 02B0     		add	sp, sp, #8
 1174              	.LCFI33:
 1175              		.cfi_remember_state
 1176              		.cfi_def_cfa_offset 8
 1177              		@ sp needed
 1178 002e 10BD     		pop	{r4, pc}
 1179              	.LVL100:
 1180              	.L86:
 1181              	.LCFI34:
 1182              		.cfi_restore_state
 500:Drivers/BSP/Components/lan8742/lan8742.c ****   }
 1183              		.loc 1 500 12 view .LVU341
 1184 0030 6FF00400 		mvn	r0, #4
 1185 0034 FAE7     		b	.L84
 1186              	.L87:
 495:Drivers/BSP/Components/lan8742/lan8742.c ****     }
 1187              		.loc 1 495 14 view .LVU342
 1188 0036 6FF00300 		mvn	r0, #3
 1189              	.LVL101:
 503:Drivers/BSP/Components/lan8742/lan8742.c **** }
 1190              		.loc 1 503 3 is_stmt 1 view .LVU343
 503:Drivers/BSP/Components/lan8742/lan8742.c **** }
 1191              		.loc 1 503 10 is_stmt 0 view .LVU344
 1192 003a F7E7     		b	.L84
 1193              		.cfi_endproc
 1194              	.LFE9:
 1196              		.section	.text.LAN8742_EnableIT,"ax",%progbits
 1197              		.align	1
 1198              		.global	LAN8742_EnableIT
 1199              		.syntax unified
 1200              		.thumb
 1201              		.thumb_func
ARM GAS  /var/folders/bg/n1lwdyp56391g865_v8nrmhm0000gn/T//cctaIZQZ.s 			page 32


 1202              		.fpu fpv5-d16
 1204              	LAN8742_EnableIT:
 1205              	.LVL102:
 1206              	.LFB10:
 505:Drivers/BSP/Components/lan8742/lan8742.c **** 
 506:Drivers/BSP/Components/lan8742/lan8742.c **** /**
 507:Drivers/BSP/Components/lan8742/lan8742.c ****   * @brief  Enable IT source.
 508:Drivers/BSP/Components/lan8742/lan8742.c ****   * @param  pObj: Pointer to device object. 
 509:Drivers/BSP/Components/lan8742/lan8742.c ****   * @param  Interrupt: IT source to be enabled
 510:Drivers/BSP/Components/lan8742/lan8742.c ****   *         should be a value or a combination of the following:
 511:Drivers/BSP/Components/lan8742/lan8742.c ****   *         LAN8742_WOL_IT                     
 512:Drivers/BSP/Components/lan8742/lan8742.c ****   *         LAN8742_ENERGYON_IT                
 513:Drivers/BSP/Components/lan8742/lan8742.c ****   *         LAN8742_AUTONEGO_COMPLETE_IT       
 514:Drivers/BSP/Components/lan8742/lan8742.c ****   *         LAN8742_REMOTE_FAULT_IT            
 515:Drivers/BSP/Components/lan8742/lan8742.c ****   *         LAN8742_LINK_DOWN_IT               
 516:Drivers/BSP/Components/lan8742/lan8742.c ****   *         LAN8742_AUTONEGO_LP_ACK_IT         
 517:Drivers/BSP/Components/lan8742/lan8742.c ****   *         LAN8742_PARALLEL_DETECTION_FAULT_IT
 518:Drivers/BSP/Components/lan8742/lan8742.c ****   *         LAN8742_AUTONEGO_PAGE_RECEIVED_IT
 519:Drivers/BSP/Components/lan8742/lan8742.c ****   * @retval LAN8742_STATUS_OK  if OK
 520:Drivers/BSP/Components/lan8742/lan8742.c ****   *         LAN8742_STATUS_READ_ERROR if connot read register
 521:Drivers/BSP/Components/lan8742/lan8742.c ****   *         LAN8742_STATUS_WRITE_ERROR if connot write to register
 522:Drivers/BSP/Components/lan8742/lan8742.c ****   */
 523:Drivers/BSP/Components/lan8742/lan8742.c **** int32_t LAN8742_EnableIT(lan8742_Object_t *pObj, uint32_t Interrupt)
 524:Drivers/BSP/Components/lan8742/lan8742.c **** {
 1207              		.loc 1 524 1 is_stmt 1 view -0
 1208              		.cfi_startproc
 1209              		@ args = 0, pretend = 0, frame = 8
 1210              		@ frame_needed = 0, uses_anonymous_args = 0
 1211              		.loc 1 524 1 is_stmt 0 view .LVU346
 1212 0000 30B5     		push	{r4, r5, lr}
 1213              	.LCFI35:
 1214              		.cfi_def_cfa_offset 12
 1215              		.cfi_offset 4, -12
 1216              		.cfi_offset 5, -8
 1217              		.cfi_offset 14, -4
 1218 0002 83B0     		sub	sp, sp, #12
 1219              	.LCFI36:
 1220              		.cfi_def_cfa_offset 24
 1221 0004 0446     		mov	r4, r0
 1222 0006 0D46     		mov	r5, r1
 525:Drivers/BSP/Components/lan8742/lan8742.c ****   uint32_t readval = 0;
 1223              		.loc 1 525 3 is_stmt 1 view .LVU347
 1224              		.loc 1 525 12 is_stmt 0 view .LVU348
 1225 0008 0023     		movs	r3, #0
 1226 000a 0193     		str	r3, [sp, #4]
 526:Drivers/BSP/Components/lan8742/lan8742.c ****   int32_t status = LAN8742_STATUS_OK;
 1227              		.loc 1 526 3 is_stmt 1 view .LVU349
 1228              	.LVL103:
 527:Drivers/BSP/Components/lan8742/lan8742.c ****   
 528:Drivers/BSP/Components/lan8742/lan8742.c ****   if(pObj->IO.ReadReg(pObj->DevAddr, LAN8742_IMR, &readval) >= 0)
 1229              		.loc 1 528 3 view .LVU350
 1230              		.loc 1 528 14 is_stmt 0 view .LVU351
 1231 000c 4369     		ldr	r3, [r0, #20]
 1232              		.loc 1 528 6 view .LVU352
 1233 000e 01AA     		add	r2, sp, #4
 1234 0010 1E21     		movs	r1, #30
 1235              	.LVL104:
ARM GAS  /var/folders/bg/n1lwdyp56391g865_v8nrmhm0000gn/T//cctaIZQZ.s 			page 33


 1236              		.loc 1 528 6 view .LVU353
 1237 0012 0068     		ldr	r0, [r0]
 1238              	.LVL105:
 1239              		.loc 1 528 6 view .LVU354
 1240 0014 9847     		blx	r3
 1241              	.LVL106:
 1242              		.loc 1 528 5 view .LVU355
 1243 0016 0028     		cmp	r0, #0
 1244 0018 0BDB     		blt	.L91
 529:Drivers/BSP/Components/lan8742/lan8742.c ****   {
 530:Drivers/BSP/Components/lan8742/lan8742.c ****     readval |= Interrupt;
 1245              		.loc 1 530 5 is_stmt 1 view .LVU356
 1246              		.loc 1 530 13 is_stmt 0 view .LVU357
 1247 001a 019A     		ldr	r2, [sp, #4]
 1248 001c 2A43     		orrs	r2, r2, r5
 1249 001e 0192     		str	r2, [sp, #4]
 531:Drivers/BSP/Components/lan8742/lan8742.c ****   
 532:Drivers/BSP/Components/lan8742/lan8742.c ****     /* Apply configuration */
 533:Drivers/BSP/Components/lan8742/lan8742.c ****     if(pObj->IO.WriteReg(pObj->DevAddr, LAN8742_IMR, readval) < 0)
 1250              		.loc 1 533 5 is_stmt 1 view .LVU358
 1251              		.loc 1 533 16 is_stmt 0 view .LVU359
 1252 0020 2369     		ldr	r3, [r4, #16]
 1253              		.loc 1 533 8 view .LVU360
 1254 0022 1E21     		movs	r1, #30
 1255 0024 2068     		ldr	r0, [r4]
 1256 0026 9847     		blx	r3
 1257              	.LVL107:
 1258              		.loc 1 533 7 view .LVU361
 1259 0028 0028     		cmp	r0, #0
 1260 002a 05DB     		blt	.L92
 526:Drivers/BSP/Components/lan8742/lan8742.c ****   
 1261              		.loc 1 526 11 view .LVU362
 1262 002c 0020     		movs	r0, #0
 1263              	.LVL108:
 1264              	.L89:
 534:Drivers/BSP/Components/lan8742/lan8742.c ****     {
 535:Drivers/BSP/Components/lan8742/lan8742.c ****       status =  LAN8742_STATUS_WRITE_ERROR;
 536:Drivers/BSP/Components/lan8742/lan8742.c ****     }
 537:Drivers/BSP/Components/lan8742/lan8742.c ****   }
 538:Drivers/BSP/Components/lan8742/lan8742.c ****   else
 539:Drivers/BSP/Components/lan8742/lan8742.c ****   {
 540:Drivers/BSP/Components/lan8742/lan8742.c ****     status = LAN8742_STATUS_READ_ERROR;
 541:Drivers/BSP/Components/lan8742/lan8742.c ****   }
 542:Drivers/BSP/Components/lan8742/lan8742.c ****    
 543:Drivers/BSP/Components/lan8742/lan8742.c ****   return status;
 544:Drivers/BSP/Components/lan8742/lan8742.c **** }
 1265              		.loc 1 544 1 view .LVU363
 1266 002e 03B0     		add	sp, sp, #12
 1267              	.LCFI37:
 1268              		.cfi_remember_state
 1269              		.cfi_def_cfa_offset 12
 1270              		@ sp needed
 1271 0030 30BD     		pop	{r4, r5, pc}
 1272              	.LVL109:
 1273              	.L91:
 1274              	.LCFI38:
 1275              		.cfi_restore_state
ARM GAS  /var/folders/bg/n1lwdyp56391g865_v8nrmhm0000gn/T//cctaIZQZ.s 			page 34


 540:Drivers/BSP/Components/lan8742/lan8742.c ****   }
 1276              		.loc 1 540 12 view .LVU364
 1277 0032 6FF00400 		mvn	r0, #4
 1278 0036 FAE7     		b	.L89
 1279              	.L92:
 535:Drivers/BSP/Components/lan8742/lan8742.c ****     }
 1280              		.loc 1 535 14 view .LVU365
 1281 0038 6FF00300 		mvn	r0, #3
 1282              	.LVL110:
 543:Drivers/BSP/Components/lan8742/lan8742.c **** }
 1283              		.loc 1 543 3 is_stmt 1 view .LVU366
 543:Drivers/BSP/Components/lan8742/lan8742.c **** }
 1284              		.loc 1 543 10 is_stmt 0 view .LVU367
 1285 003c F7E7     		b	.L89
 1286              		.cfi_endproc
 1287              	.LFE10:
 1289              		.section	.text.LAN8742_DisableIT,"ax",%progbits
 1290              		.align	1
 1291              		.global	LAN8742_DisableIT
 1292              		.syntax unified
 1293              		.thumb
 1294              		.thumb_func
 1295              		.fpu fpv5-d16
 1297              	LAN8742_DisableIT:
 1298              	.LVL111:
 1299              	.LFB11:
 545:Drivers/BSP/Components/lan8742/lan8742.c **** 
 546:Drivers/BSP/Components/lan8742/lan8742.c **** /**
 547:Drivers/BSP/Components/lan8742/lan8742.c ****   * @brief  Disable IT source.
 548:Drivers/BSP/Components/lan8742/lan8742.c ****   * @param  pObj: Pointer to device object. 
 549:Drivers/BSP/Components/lan8742/lan8742.c ****   * @param  Interrupt: IT source to be disabled
 550:Drivers/BSP/Components/lan8742/lan8742.c ****   *         should be a value or a combination of the following:
 551:Drivers/BSP/Components/lan8742/lan8742.c ****   *         LAN8742_WOL_IT                     
 552:Drivers/BSP/Components/lan8742/lan8742.c ****   *         LAN8742_ENERGYON_IT                
 553:Drivers/BSP/Components/lan8742/lan8742.c ****   *         LAN8742_AUTONEGO_COMPLETE_IT       
 554:Drivers/BSP/Components/lan8742/lan8742.c ****   *         LAN8742_REMOTE_FAULT_IT            
 555:Drivers/BSP/Components/lan8742/lan8742.c ****   *         LAN8742_LINK_DOWN_IT               
 556:Drivers/BSP/Components/lan8742/lan8742.c ****   *         LAN8742_AUTONEGO_LP_ACK_IT         
 557:Drivers/BSP/Components/lan8742/lan8742.c ****   *         LAN8742_PARALLEL_DETECTION_FAULT_IT
 558:Drivers/BSP/Components/lan8742/lan8742.c ****   *         LAN8742_AUTONEGO_PAGE_RECEIVED_IT
 559:Drivers/BSP/Components/lan8742/lan8742.c ****   * @retval LAN8742_STATUS_OK  if OK
 560:Drivers/BSP/Components/lan8742/lan8742.c ****   *         LAN8742_STATUS_READ_ERROR if connot read register
 561:Drivers/BSP/Components/lan8742/lan8742.c ****   *         LAN8742_STATUS_WRITE_ERROR if connot write to register
 562:Drivers/BSP/Components/lan8742/lan8742.c ****   */
 563:Drivers/BSP/Components/lan8742/lan8742.c **** int32_t LAN8742_DisableIT(lan8742_Object_t *pObj, uint32_t Interrupt)
 564:Drivers/BSP/Components/lan8742/lan8742.c **** {
 1300              		.loc 1 564 1 is_stmt 1 view -0
 1301              		.cfi_startproc
 1302              		@ args = 0, pretend = 0, frame = 8
 1303              		@ frame_needed = 0, uses_anonymous_args = 0
 1304              		.loc 1 564 1 is_stmt 0 view .LVU369
 1305 0000 30B5     		push	{r4, r5, lr}
 1306              	.LCFI39:
 1307              		.cfi_def_cfa_offset 12
 1308              		.cfi_offset 4, -12
 1309              		.cfi_offset 5, -8
 1310              		.cfi_offset 14, -4
ARM GAS  /var/folders/bg/n1lwdyp56391g865_v8nrmhm0000gn/T//cctaIZQZ.s 			page 35


 1311 0002 83B0     		sub	sp, sp, #12
 1312              	.LCFI40:
 1313              		.cfi_def_cfa_offset 24
 1314 0004 0446     		mov	r4, r0
 1315 0006 0D46     		mov	r5, r1
 565:Drivers/BSP/Components/lan8742/lan8742.c ****   uint32_t readval = 0;
 1316              		.loc 1 565 3 is_stmt 1 view .LVU370
 1317              		.loc 1 565 12 is_stmt 0 view .LVU371
 1318 0008 0023     		movs	r3, #0
 1319 000a 0193     		str	r3, [sp, #4]
 566:Drivers/BSP/Components/lan8742/lan8742.c ****   int32_t status = LAN8742_STATUS_OK;
 1320              		.loc 1 566 3 is_stmt 1 view .LVU372
 1321              	.LVL112:
 567:Drivers/BSP/Components/lan8742/lan8742.c ****   
 568:Drivers/BSP/Components/lan8742/lan8742.c ****   if(pObj->IO.ReadReg(pObj->DevAddr, LAN8742_IMR, &readval) >= 0)
 1322              		.loc 1 568 3 view .LVU373
 1323              		.loc 1 568 14 is_stmt 0 view .LVU374
 1324 000c 4369     		ldr	r3, [r0, #20]
 1325              		.loc 1 568 6 view .LVU375
 1326 000e 01AA     		add	r2, sp, #4
 1327 0010 1E21     		movs	r1, #30
 1328              	.LVL113:
 1329              		.loc 1 568 6 view .LVU376
 1330 0012 0068     		ldr	r0, [r0]
 1331              	.LVL114:
 1332              		.loc 1 568 6 view .LVU377
 1333 0014 9847     		blx	r3
 1334              	.LVL115:
 1335              		.loc 1 568 5 view .LVU378
 1336 0016 0028     		cmp	r0, #0
 1337 0018 0CDB     		blt	.L96
 569:Drivers/BSP/Components/lan8742/lan8742.c ****   {
 570:Drivers/BSP/Components/lan8742/lan8742.c ****     readval &= ~Interrupt;
 1338              		.loc 1 570 5 is_stmt 1 view .LVU379
 1339              		.loc 1 570 13 is_stmt 0 view .LVU380
 1340 001a 019A     		ldr	r2, [sp, #4]
 1341 001c 22EA0502 		bic	r2, r2, r5
 1342 0020 0192     		str	r2, [sp, #4]
 571:Drivers/BSP/Components/lan8742/lan8742.c ****   
 572:Drivers/BSP/Components/lan8742/lan8742.c ****     /* Apply configuration */
 573:Drivers/BSP/Components/lan8742/lan8742.c ****     if(pObj->IO.WriteReg(pObj->DevAddr, LAN8742_IMR, readval) < 0)
 1343              		.loc 1 573 5 is_stmt 1 view .LVU381
 1344              		.loc 1 573 16 is_stmt 0 view .LVU382
 1345 0022 2369     		ldr	r3, [r4, #16]
 1346              		.loc 1 573 8 view .LVU383
 1347 0024 1E21     		movs	r1, #30
 1348 0026 2068     		ldr	r0, [r4]
 1349 0028 9847     		blx	r3
 1350              	.LVL116:
 1351              		.loc 1 573 7 view .LVU384
 1352 002a 0028     		cmp	r0, #0
 1353 002c 05DB     		blt	.L97
 566:Drivers/BSP/Components/lan8742/lan8742.c ****   
 1354              		.loc 1 566 11 view .LVU385
 1355 002e 0020     		movs	r0, #0
 1356              	.LVL117:
 1357              	.L94:
ARM GAS  /var/folders/bg/n1lwdyp56391g865_v8nrmhm0000gn/T//cctaIZQZ.s 			page 36


 574:Drivers/BSP/Components/lan8742/lan8742.c ****     {
 575:Drivers/BSP/Components/lan8742/lan8742.c ****       status = LAN8742_STATUS_WRITE_ERROR;
 576:Drivers/BSP/Components/lan8742/lan8742.c ****     }
 577:Drivers/BSP/Components/lan8742/lan8742.c ****   }
 578:Drivers/BSP/Components/lan8742/lan8742.c ****   else
 579:Drivers/BSP/Components/lan8742/lan8742.c ****   {
 580:Drivers/BSP/Components/lan8742/lan8742.c ****     status = LAN8742_STATUS_READ_ERROR;
 581:Drivers/BSP/Components/lan8742/lan8742.c ****   }
 582:Drivers/BSP/Components/lan8742/lan8742.c ****    
 583:Drivers/BSP/Components/lan8742/lan8742.c ****   return status;
 584:Drivers/BSP/Components/lan8742/lan8742.c **** }
 1358              		.loc 1 584 1 view .LVU386
 1359 0030 03B0     		add	sp, sp, #12
 1360              	.LCFI41:
 1361              		.cfi_remember_state
 1362              		.cfi_def_cfa_offset 12
 1363              		@ sp needed
 1364 0032 30BD     		pop	{r4, r5, pc}
 1365              	.LVL118:
 1366              	.L96:
 1367              	.LCFI42:
 1368              		.cfi_restore_state
 580:Drivers/BSP/Components/lan8742/lan8742.c ****   }
 1369              		.loc 1 580 12 view .LVU387
 1370 0034 6FF00400 		mvn	r0, #4
 1371 0038 FAE7     		b	.L94
 1372              	.L97:
 575:Drivers/BSP/Components/lan8742/lan8742.c ****     }
 1373              		.loc 1 575 14 view .LVU388
 1374 003a 6FF00300 		mvn	r0, #3
 1375              	.LVL119:
 583:Drivers/BSP/Components/lan8742/lan8742.c **** }
 1376              		.loc 1 583 3 is_stmt 1 view .LVU389
 583:Drivers/BSP/Components/lan8742/lan8742.c **** }
 1377              		.loc 1 583 10 is_stmt 0 view .LVU390
 1378 003e F7E7     		b	.L94
 1379              		.cfi_endproc
 1380              	.LFE11:
 1382              		.section	.text.LAN8742_ClearIT,"ax",%progbits
 1383              		.align	1
 1384              		.global	LAN8742_ClearIT
 1385              		.syntax unified
 1386              		.thumb
 1387              		.thumb_func
 1388              		.fpu fpv5-d16
 1390              	LAN8742_ClearIT:
 1391              	.LVL120:
 1392              	.LFB12:
 585:Drivers/BSP/Components/lan8742/lan8742.c **** 
 586:Drivers/BSP/Components/lan8742/lan8742.c **** /**
 587:Drivers/BSP/Components/lan8742/lan8742.c ****   * @brief  Clear IT flag.
 588:Drivers/BSP/Components/lan8742/lan8742.c ****   * @param  pObj: Pointer to device object. 
 589:Drivers/BSP/Components/lan8742/lan8742.c ****   * @param  Interrupt: IT flag to be cleared
 590:Drivers/BSP/Components/lan8742/lan8742.c ****   *         should be a value or a combination of the following:
 591:Drivers/BSP/Components/lan8742/lan8742.c ****   *         LAN8742_WOL_IT                     
 592:Drivers/BSP/Components/lan8742/lan8742.c ****   *         LAN8742_ENERGYON_IT                
 593:Drivers/BSP/Components/lan8742/lan8742.c ****   *         LAN8742_AUTONEGO_COMPLETE_IT       
ARM GAS  /var/folders/bg/n1lwdyp56391g865_v8nrmhm0000gn/T//cctaIZQZ.s 			page 37


 594:Drivers/BSP/Components/lan8742/lan8742.c ****   *         LAN8742_REMOTE_FAULT_IT            
 595:Drivers/BSP/Components/lan8742/lan8742.c ****   *         LAN8742_LINK_DOWN_IT               
 596:Drivers/BSP/Components/lan8742/lan8742.c ****   *         LAN8742_AUTONEGO_LP_ACK_IT         
 597:Drivers/BSP/Components/lan8742/lan8742.c ****   *         LAN8742_PARALLEL_DETECTION_FAULT_IT
 598:Drivers/BSP/Components/lan8742/lan8742.c ****   *         LAN8742_AUTONEGO_PAGE_RECEIVED_IT
 599:Drivers/BSP/Components/lan8742/lan8742.c ****   * @retval LAN8742_STATUS_OK  if OK
 600:Drivers/BSP/Components/lan8742/lan8742.c ****   *         LAN8742_STATUS_READ_ERROR if connot read register
 601:Drivers/BSP/Components/lan8742/lan8742.c ****   */
 602:Drivers/BSP/Components/lan8742/lan8742.c **** int32_t  LAN8742_ClearIT(lan8742_Object_t *pObj, uint32_t Interrupt)
 603:Drivers/BSP/Components/lan8742/lan8742.c **** {
 1393              		.loc 1 603 1 is_stmt 1 view -0
 1394              		.cfi_startproc
 1395              		@ args = 0, pretend = 0, frame = 8
 1396              		@ frame_needed = 0, uses_anonymous_args = 0
 1397              		.loc 1 603 1 is_stmt 0 view .LVU392
 1398 0000 00B5     		push	{lr}
 1399              	.LCFI43:
 1400              		.cfi_def_cfa_offset 4
 1401              		.cfi_offset 14, -4
 1402 0002 83B0     		sub	sp, sp, #12
 1403              	.LCFI44:
 1404              		.cfi_def_cfa_offset 16
 604:Drivers/BSP/Components/lan8742/lan8742.c ****   uint32_t readval = 0;
 1405              		.loc 1 604 3 is_stmt 1 view .LVU393
 1406              		.loc 1 604 12 is_stmt 0 view .LVU394
 1407 0004 0023     		movs	r3, #0
 1408 0006 0193     		str	r3, [sp, #4]
 605:Drivers/BSP/Components/lan8742/lan8742.c ****   int32_t status = LAN8742_STATUS_OK;  
 1409              		.loc 1 605 3 is_stmt 1 view .LVU395
 1410              	.LVL121:
 606:Drivers/BSP/Components/lan8742/lan8742.c ****   
 607:Drivers/BSP/Components/lan8742/lan8742.c ****   if(pObj->IO.ReadReg(pObj->DevAddr, LAN8742_ISFR, &readval) < 0)
 1411              		.loc 1 607 3 view .LVU396
 1412              		.loc 1 607 14 is_stmt 0 view .LVU397
 1413 0008 4369     		ldr	r3, [r0, #20]
 1414              		.loc 1 607 6 view .LVU398
 1415 000a 01AA     		add	r2, sp, #4
 1416 000c 1D21     		movs	r1, #29
 1417              	.LVL122:
 1418              		.loc 1 607 6 view .LVU399
 1419 000e 0068     		ldr	r0, [r0]
 1420              	.LVL123:
 1421              		.loc 1 607 6 view .LVU400
 1422 0010 9847     		blx	r3
 1423              	.LVL124:
 1424              		.loc 1 607 5 view .LVU401
 1425 0012 0028     		cmp	r0, #0
 1426 0014 03DB     		blt	.L101
 605:Drivers/BSP/Components/lan8742/lan8742.c ****   int32_t status = LAN8742_STATUS_OK;  
 1427              		.loc 1 605 11 view .LVU402
 1428 0016 0020     		movs	r0, #0
 1429              	.LVL125:
 1430              	.L99:
 608:Drivers/BSP/Components/lan8742/lan8742.c ****   {
 609:Drivers/BSP/Components/lan8742/lan8742.c ****     status =  LAN8742_STATUS_READ_ERROR;
 610:Drivers/BSP/Components/lan8742/lan8742.c ****   }
 611:Drivers/BSP/Components/lan8742/lan8742.c ****   
ARM GAS  /var/folders/bg/n1lwdyp56391g865_v8nrmhm0000gn/T//cctaIZQZ.s 			page 38


 612:Drivers/BSP/Components/lan8742/lan8742.c ****   return status;
 613:Drivers/BSP/Components/lan8742/lan8742.c **** }
 1431              		.loc 1 613 1 view .LVU403
 1432 0018 03B0     		add	sp, sp, #12
 1433              	.LCFI45:
 1434              		.cfi_remember_state
 1435              		.cfi_def_cfa_offset 4
 1436              		@ sp needed
 1437 001a 5DF804FB 		ldr	pc, [sp], #4
 1438              	.LVL126:
 1439              	.L101:
 1440              	.LCFI46:
 1441              		.cfi_restore_state
 609:Drivers/BSP/Components/lan8742/lan8742.c ****   }
 1442              		.loc 1 609 12 view .LVU404
 1443 001e 6FF00400 		mvn	r0, #4
 1444              	.LVL127:
 612:Drivers/BSP/Components/lan8742/lan8742.c **** }
 1445              		.loc 1 612 3 is_stmt 1 view .LVU405
 612:Drivers/BSP/Components/lan8742/lan8742.c **** }
 1446              		.loc 1 612 10 is_stmt 0 view .LVU406
 1447 0022 F9E7     		b	.L99
 1448              		.cfi_endproc
 1449              	.LFE12:
 1451              		.section	.text.LAN8742_GetITStatus,"ax",%progbits
 1452              		.align	1
 1453              		.global	LAN8742_GetITStatus
 1454              		.syntax unified
 1455              		.thumb
 1456              		.thumb_func
 1457              		.fpu fpv5-d16
 1459              	LAN8742_GetITStatus:
 1460              	.LVL128:
 1461              	.LFB13:
 614:Drivers/BSP/Components/lan8742/lan8742.c **** 
 615:Drivers/BSP/Components/lan8742/lan8742.c **** /**
 616:Drivers/BSP/Components/lan8742/lan8742.c ****   * @brief  Get IT Flag status.
 617:Drivers/BSP/Components/lan8742/lan8742.c ****   * @param  pObj: Pointer to device object. 
 618:Drivers/BSP/Components/lan8742/lan8742.c ****   * @param  Interrupt: IT Flag to be checked, 
 619:Drivers/BSP/Components/lan8742/lan8742.c ****   *         should be a value or a combination of the following:
 620:Drivers/BSP/Components/lan8742/lan8742.c ****   *         LAN8742_WOL_IT                     
 621:Drivers/BSP/Components/lan8742/lan8742.c ****   *         LAN8742_ENERGYON_IT                
 622:Drivers/BSP/Components/lan8742/lan8742.c ****   *         LAN8742_AUTONEGO_COMPLETE_IT       
 623:Drivers/BSP/Components/lan8742/lan8742.c ****   *         LAN8742_REMOTE_FAULT_IT            
 624:Drivers/BSP/Components/lan8742/lan8742.c ****   *         LAN8742_LINK_DOWN_IT               
 625:Drivers/BSP/Components/lan8742/lan8742.c ****   *         LAN8742_AUTONEGO_LP_ACK_IT         
 626:Drivers/BSP/Components/lan8742/lan8742.c ****   *         LAN8742_PARALLEL_DETECTION_FAULT_IT
 627:Drivers/BSP/Components/lan8742/lan8742.c ****   *         LAN8742_AUTONEGO_PAGE_RECEIVED_IT  
 628:Drivers/BSP/Components/lan8742/lan8742.c ****   * @retval 1 IT flag is SET
 629:Drivers/BSP/Components/lan8742/lan8742.c ****   *         0 IT flag is RESET
 630:Drivers/BSP/Components/lan8742/lan8742.c ****   *         LAN8742_STATUS_READ_ERROR if connot read register
 631:Drivers/BSP/Components/lan8742/lan8742.c ****   */
 632:Drivers/BSP/Components/lan8742/lan8742.c **** int32_t LAN8742_GetITStatus(lan8742_Object_t *pObj, uint32_t Interrupt)
 633:Drivers/BSP/Components/lan8742/lan8742.c **** {
 1462              		.loc 1 633 1 is_stmt 1 view -0
 1463              		.cfi_startproc
 1464              		@ args = 0, pretend = 0, frame = 8
ARM GAS  /var/folders/bg/n1lwdyp56391g865_v8nrmhm0000gn/T//cctaIZQZ.s 			page 39


 1465              		@ frame_needed = 0, uses_anonymous_args = 0
 1466              		.loc 1 633 1 is_stmt 0 view .LVU408
 1467 0000 10B5     		push	{r4, lr}
 1468              	.LCFI47:
 1469              		.cfi_def_cfa_offset 8
 1470              		.cfi_offset 4, -8
 1471              		.cfi_offset 14, -4
 1472 0002 82B0     		sub	sp, sp, #8
 1473              	.LCFI48:
 1474              		.cfi_def_cfa_offset 16
 1475 0004 0C46     		mov	r4, r1
 634:Drivers/BSP/Components/lan8742/lan8742.c ****   uint32_t readval = 0;
 1476              		.loc 1 634 3 is_stmt 1 view .LVU409
 1477              		.loc 1 634 12 is_stmt 0 view .LVU410
 1478 0006 0023     		movs	r3, #0
 1479 0008 0193     		str	r3, [sp, #4]
 635:Drivers/BSP/Components/lan8742/lan8742.c ****   int32_t status = 0;
 1480              		.loc 1 635 3 is_stmt 1 view .LVU411
 1481              	.LVL129:
 636:Drivers/BSP/Components/lan8742/lan8742.c **** 
 637:Drivers/BSP/Components/lan8742/lan8742.c ****   if(pObj->IO.ReadReg(pObj->DevAddr, LAN8742_ISFR, &readval) >= 0)
 1482              		.loc 1 637 3 view .LVU412
 1483              		.loc 1 637 14 is_stmt 0 view .LVU413
 1484 000a 4369     		ldr	r3, [r0, #20]
 1485              		.loc 1 637 6 view .LVU414
 1486 000c 01AA     		add	r2, sp, #4
 1487 000e 1D21     		movs	r1, #29
 1488              	.LVL130:
 1489              		.loc 1 637 6 view .LVU415
 1490 0010 0068     		ldr	r0, [r0]
 1491              	.LVL131:
 1492              		.loc 1 637 6 view .LVU416
 1493 0012 9847     		blx	r3
 1494              	.LVL132:
 1495              		.loc 1 637 5 view .LVU417
 1496 0014 0028     		cmp	r0, #0
 1497 0016 07DB     		blt	.L105
 638:Drivers/BSP/Components/lan8742/lan8742.c ****   {
 639:Drivers/BSP/Components/lan8742/lan8742.c ****     status = ((readval & Interrupt) == Interrupt);
 1498              		.loc 1 639 5 is_stmt 1 view .LVU418
 1499              		.loc 1 639 37 is_stmt 0 view .LVU419
 1500 0018 019B     		ldr	r3, [sp, #4]
 1501 001a 34EA0303 		bics	r3, r4, r3
 1502 001e 0CBF     		ite	eq
 1503 0020 0120     		moveq	r0, #1
 1504 0022 0020     		movne	r0, #0
 1505              	.LVL133:
 1506              	.L103:
 640:Drivers/BSP/Components/lan8742/lan8742.c ****   }
 641:Drivers/BSP/Components/lan8742/lan8742.c ****   else
 642:Drivers/BSP/Components/lan8742/lan8742.c ****   {
 643:Drivers/BSP/Components/lan8742/lan8742.c ****     status = LAN8742_STATUS_READ_ERROR;
 644:Drivers/BSP/Components/lan8742/lan8742.c ****   }
 645:Drivers/BSP/Components/lan8742/lan8742.c **** 	
 646:Drivers/BSP/Components/lan8742/lan8742.c ****   return status;
 647:Drivers/BSP/Components/lan8742/lan8742.c **** }
 1507              		.loc 1 647 1 view .LVU420
ARM GAS  /var/folders/bg/n1lwdyp56391g865_v8nrmhm0000gn/T//cctaIZQZ.s 			page 40


 1508 0024 02B0     		add	sp, sp, #8
 1509              	.LCFI49:
 1510              		.cfi_remember_state
 1511              		.cfi_def_cfa_offset 8
 1512              		@ sp needed
 1513 0026 10BD     		pop	{r4, pc}
 1514              	.LVL134:
 1515              	.L105:
 1516              	.LCFI50:
 1517              		.cfi_restore_state
 643:Drivers/BSP/Components/lan8742/lan8742.c ****   }
 1518              		.loc 1 643 12 view .LVU421
 1519 0028 6FF00400 		mvn	r0, #4
 1520              	.LVL135:
 646:Drivers/BSP/Components/lan8742/lan8742.c **** }
 1521              		.loc 1 646 3 is_stmt 1 view .LVU422
 646:Drivers/BSP/Components/lan8742/lan8742.c **** }
 1522              		.loc 1 646 10 is_stmt 0 view .LVU423
 1523 002c FAE7     		b	.L103
 1524              		.cfi_endproc
 1525              	.LFE13:
 1527              		.text
 1528              	.Letext0:
 1529              		.file 2 "/opt/homebrew/Cellar/arm-none-eabi-gcc/10.3-2021.07/gcc/arm-none-eabi/include/machine/_de
 1530              		.file 3 "/opt/homebrew/Cellar/arm-none-eabi-gcc/10.3-2021.07/gcc/arm-none-eabi/include/sys/_stdint
 1531              		.file 4 "Drivers/BSP/Components/lan8742/lan8742.h"
ARM GAS  /var/folders/bg/n1lwdyp56391g865_v8nrmhm0000gn/T//cctaIZQZ.s 			page 41

