ARM GAS  /var/folders/bg/n1lwdyp56391g865_v8nrmhm0000gn/T//cc4exhWb.s 			page 1


   1              		.cpu cortex-m7
   2              		.eabi_attribute 28, 1
   3              		.eabi_attribute 20, 1
   4              		.eabi_attribute 21, 1
   5              		.eabi_attribute 23, 3
   6              		.eabi_attribute 24, 1
   7              		.eabi_attribute 25, 1
   8              		.eabi_attribute 26, 1
   9              		.eabi_attribute 30, 1
  10              		.eabi_attribute 34, 1
  11              		.eabi_attribute 18, 4
  12              		.file	"pbuf.c"
  13              		.text
  14              	.Ltext0:
  15              		.cfi_sections	.debug_frame
  16              		.section	.text.pbuf_pool_is_empty,"ax",%progbits
  17              		.align	1
  18              		.arch armv7e-m
  19              		.syntax unified
  20              		.thumb
  21              		.thumb_func
  22              		.fpu fpv5-d16
  24              	pbuf_pool_is_empty:
  25              	.LFB168:
  26              		.file 1 "Middlewares/Third_Party/LwIP/src/core/pbuf.c"
   1:Middlewares/Third_Party/LwIP/src/core/pbuf.c **** /**
   2:Middlewares/Third_Party/LwIP/src/core/pbuf.c ****  * @file
   3:Middlewares/Third_Party/LwIP/src/core/pbuf.c ****  * Packet buffer management
   4:Middlewares/Third_Party/LwIP/src/core/pbuf.c ****  */
   5:Middlewares/Third_Party/LwIP/src/core/pbuf.c **** 
   6:Middlewares/Third_Party/LwIP/src/core/pbuf.c **** /**
   7:Middlewares/Third_Party/LwIP/src/core/pbuf.c ****  * @defgroup pbuf Packet buffers (PBUF)
   8:Middlewares/Third_Party/LwIP/src/core/pbuf.c ****  * @ingroup infrastructure
   9:Middlewares/Third_Party/LwIP/src/core/pbuf.c ****  *
  10:Middlewares/Third_Party/LwIP/src/core/pbuf.c ****  * Packets are built from the pbuf data structure. It supports dynamic
  11:Middlewares/Third_Party/LwIP/src/core/pbuf.c ****  * memory allocation for packet contents or can reference externally
  12:Middlewares/Third_Party/LwIP/src/core/pbuf.c ****  * managed packet contents both in RAM and ROM. Quick allocation for
  13:Middlewares/Third_Party/LwIP/src/core/pbuf.c ****  * incoming packets is provided through pools with fixed sized pbufs.
  14:Middlewares/Third_Party/LwIP/src/core/pbuf.c ****  *
  15:Middlewares/Third_Party/LwIP/src/core/pbuf.c ****  * A packet may span over multiple pbufs, chained as a singly linked
  16:Middlewares/Third_Party/LwIP/src/core/pbuf.c ****  * list. This is called a "pbuf chain".
  17:Middlewares/Third_Party/LwIP/src/core/pbuf.c ****  *
  18:Middlewares/Third_Party/LwIP/src/core/pbuf.c ****  * Multiple packets may be queued, also using this singly linked list.
  19:Middlewares/Third_Party/LwIP/src/core/pbuf.c ****  * This is called a "packet queue".
  20:Middlewares/Third_Party/LwIP/src/core/pbuf.c ****  *
  21:Middlewares/Third_Party/LwIP/src/core/pbuf.c ****  * So, a packet queue consists of one or more pbuf chains, each of
  22:Middlewares/Third_Party/LwIP/src/core/pbuf.c ****  * which consist of one or more pbufs. CURRENTLY, PACKET QUEUES ARE
  23:Middlewares/Third_Party/LwIP/src/core/pbuf.c ****  * NOT SUPPORTED!!! Use helper structs to queue multiple packets.
  24:Middlewares/Third_Party/LwIP/src/core/pbuf.c ****  *
  25:Middlewares/Third_Party/LwIP/src/core/pbuf.c ****  * The differences between a pbuf chain and a packet queue are very
  26:Middlewares/Third_Party/LwIP/src/core/pbuf.c ****  * precise but subtle.
  27:Middlewares/Third_Party/LwIP/src/core/pbuf.c ****  *
  28:Middlewares/Third_Party/LwIP/src/core/pbuf.c ****  * The last pbuf of a packet has a ->tot_len field that equals the
  29:Middlewares/Third_Party/LwIP/src/core/pbuf.c ****  * ->len field. It can be found by traversing the list. If the last
  30:Middlewares/Third_Party/LwIP/src/core/pbuf.c ****  * pbuf of a packet has a ->next field other than NULL, more packets
  31:Middlewares/Third_Party/LwIP/src/core/pbuf.c ****  * are on the queue.
  32:Middlewares/Third_Party/LwIP/src/core/pbuf.c ****  *
ARM GAS  /var/folders/bg/n1lwdyp56391g865_v8nrmhm0000gn/T//cc4exhWb.s 			page 2


  33:Middlewares/Third_Party/LwIP/src/core/pbuf.c ****  * Therefore, looping through a pbuf of a single packet, has an
  34:Middlewares/Third_Party/LwIP/src/core/pbuf.c ****  * loop end condition (tot_len == p->len), NOT (next == NULL).
  35:Middlewares/Third_Party/LwIP/src/core/pbuf.c ****  *
  36:Middlewares/Third_Party/LwIP/src/core/pbuf.c ****  * Example of custom pbuf usage: @ref zerocopyrx
  37:Middlewares/Third_Party/LwIP/src/core/pbuf.c ****  */
  38:Middlewares/Third_Party/LwIP/src/core/pbuf.c **** 
  39:Middlewares/Third_Party/LwIP/src/core/pbuf.c **** /*
  40:Middlewares/Third_Party/LwIP/src/core/pbuf.c ****  * Copyright (c) 2001-2004 Swedish Institute of Computer Science.
  41:Middlewares/Third_Party/LwIP/src/core/pbuf.c ****  * All rights reserved.
  42:Middlewares/Third_Party/LwIP/src/core/pbuf.c ****  *
  43:Middlewares/Third_Party/LwIP/src/core/pbuf.c ****  * Redistribution and use in source and binary forms, with or without modification,
  44:Middlewares/Third_Party/LwIP/src/core/pbuf.c ****  * are permitted provided that the following conditions are met:
  45:Middlewares/Third_Party/LwIP/src/core/pbuf.c ****  *
  46:Middlewares/Third_Party/LwIP/src/core/pbuf.c ****  * 1. Redistributions of source code must retain the above copyright notice,
  47:Middlewares/Third_Party/LwIP/src/core/pbuf.c ****  *    this list of conditions and the following disclaimer.
  48:Middlewares/Third_Party/LwIP/src/core/pbuf.c ****  * 2. Redistributions in binary form must reproduce the above copyright notice,
  49:Middlewares/Third_Party/LwIP/src/core/pbuf.c ****  *    this list of conditions and the following disclaimer in the documentation
  50:Middlewares/Third_Party/LwIP/src/core/pbuf.c ****  *    and/or other materials provided with the distribution.
  51:Middlewares/Third_Party/LwIP/src/core/pbuf.c ****  * 3. The name of the author may not be used to endorse or promote products
  52:Middlewares/Third_Party/LwIP/src/core/pbuf.c ****  *    derived from this software without specific prior written permission.
  53:Middlewares/Third_Party/LwIP/src/core/pbuf.c ****  *
  54:Middlewares/Third_Party/LwIP/src/core/pbuf.c ****  * THIS SOFTWARE IS PROVIDED BY THE AUTHOR ``AS IS'' AND ANY EXPRESS OR IMPLIED
  55:Middlewares/Third_Party/LwIP/src/core/pbuf.c ****  * WARRANTIES, INCLUDING, BUT NOT LIMITED TO, THE IMPLIED WARRANTIES OF
  56:Middlewares/Third_Party/LwIP/src/core/pbuf.c ****  * MERCHANTABILITY AND FITNESS FOR A PARTICULAR PURPOSE ARE DISCLAIMED. IN NO EVENT
  57:Middlewares/Third_Party/LwIP/src/core/pbuf.c ****  * SHALL THE AUTHOR BE LIABLE FOR ANY DIRECT, INDIRECT, INCIDENTAL, SPECIAL,
  58:Middlewares/Third_Party/LwIP/src/core/pbuf.c ****  * EXEMPLARY, OR CONSEQUENTIAL DAMAGES (INCLUDING, BUT NOT LIMITED TO, PROCUREMENT
  59:Middlewares/Third_Party/LwIP/src/core/pbuf.c ****  * OF SUBSTITUTE GOODS OR SERVICES; LOSS OF USE, DATA, OR PROFITS; OR BUSINESS
  60:Middlewares/Third_Party/LwIP/src/core/pbuf.c ****  * INTERRUPTION) HOWEVER CAUSED AND ON ANY THEORY OF LIABILITY, WHETHER IN
  61:Middlewares/Third_Party/LwIP/src/core/pbuf.c ****  * CONTRACT, STRICT LIABILITY, OR TORT (INCLUDING NEGLIGENCE OR OTHERWISE) ARISING
  62:Middlewares/Third_Party/LwIP/src/core/pbuf.c ****  * IN ANY WAY OUT OF THE USE OF THIS SOFTWARE, EVEN IF ADVISED OF THE POSSIBILITY
  63:Middlewares/Third_Party/LwIP/src/core/pbuf.c ****  * OF SUCH DAMAGE.
  64:Middlewares/Third_Party/LwIP/src/core/pbuf.c ****  *
  65:Middlewares/Third_Party/LwIP/src/core/pbuf.c ****  * This file is part of the lwIP TCP/IP stack.
  66:Middlewares/Third_Party/LwIP/src/core/pbuf.c ****  *
  67:Middlewares/Third_Party/LwIP/src/core/pbuf.c ****  * Author: Adam Dunkels <adam@sics.se>
  68:Middlewares/Third_Party/LwIP/src/core/pbuf.c ****  *
  69:Middlewares/Third_Party/LwIP/src/core/pbuf.c ****  */
  70:Middlewares/Third_Party/LwIP/src/core/pbuf.c **** 
  71:Middlewares/Third_Party/LwIP/src/core/pbuf.c **** #include "lwip/opt.h"
  72:Middlewares/Third_Party/LwIP/src/core/pbuf.c **** 
  73:Middlewares/Third_Party/LwIP/src/core/pbuf.c **** #include "lwip/pbuf.h"
  74:Middlewares/Third_Party/LwIP/src/core/pbuf.c **** #include "lwip/stats.h"
  75:Middlewares/Third_Party/LwIP/src/core/pbuf.c **** #include "lwip/def.h"
  76:Middlewares/Third_Party/LwIP/src/core/pbuf.c **** #include "lwip/mem.h"
  77:Middlewares/Third_Party/LwIP/src/core/pbuf.c **** #include "lwip/memp.h"
  78:Middlewares/Third_Party/LwIP/src/core/pbuf.c **** #include "lwip/sys.h"
  79:Middlewares/Third_Party/LwIP/src/core/pbuf.c **** #include "lwip/netif.h"
  80:Middlewares/Third_Party/LwIP/src/core/pbuf.c **** #if LWIP_TCP && TCP_QUEUE_OOSEQ
  81:Middlewares/Third_Party/LwIP/src/core/pbuf.c **** #include "lwip/priv/tcp_priv.h"
  82:Middlewares/Third_Party/LwIP/src/core/pbuf.c **** #endif
  83:Middlewares/Third_Party/LwIP/src/core/pbuf.c **** #if LWIP_CHECKSUM_ON_COPY
  84:Middlewares/Third_Party/LwIP/src/core/pbuf.c **** #include "lwip/inet_chksum.h"
  85:Middlewares/Third_Party/LwIP/src/core/pbuf.c **** #endif
  86:Middlewares/Third_Party/LwIP/src/core/pbuf.c **** 
  87:Middlewares/Third_Party/LwIP/src/core/pbuf.c **** #include <string.h>
  88:Middlewares/Third_Party/LwIP/src/core/pbuf.c **** 
  89:Middlewares/Third_Party/LwIP/src/core/pbuf.c **** #define SIZEOF_STRUCT_PBUF        LWIP_MEM_ALIGN_SIZE(sizeof(struct pbuf))
ARM GAS  /var/folders/bg/n1lwdyp56391g865_v8nrmhm0000gn/T//cc4exhWb.s 			page 3


  90:Middlewares/Third_Party/LwIP/src/core/pbuf.c **** /* Since the pool is created in memp, PBUF_POOL_BUFSIZE will be automatically
  91:Middlewares/Third_Party/LwIP/src/core/pbuf.c ****    aligned there. Therefore, PBUF_POOL_BUFSIZE_ALIGNED can be used here. */
  92:Middlewares/Third_Party/LwIP/src/core/pbuf.c **** #define PBUF_POOL_BUFSIZE_ALIGNED LWIP_MEM_ALIGN_SIZE(PBUF_POOL_BUFSIZE)
  93:Middlewares/Third_Party/LwIP/src/core/pbuf.c **** 
  94:Middlewares/Third_Party/LwIP/src/core/pbuf.c **** static const struct pbuf *
  95:Middlewares/Third_Party/LwIP/src/core/pbuf.c **** pbuf_skip_const(const struct pbuf *in, u16_t in_offset, u16_t *out_offset);
  96:Middlewares/Third_Party/LwIP/src/core/pbuf.c **** 
  97:Middlewares/Third_Party/LwIP/src/core/pbuf.c **** #if !LWIP_TCP || !TCP_QUEUE_OOSEQ || !PBUF_POOL_FREE_OOSEQ
  98:Middlewares/Third_Party/LwIP/src/core/pbuf.c **** #define PBUF_POOL_IS_EMPTY()
  99:Middlewares/Third_Party/LwIP/src/core/pbuf.c **** #else /* !LWIP_TCP || !TCP_QUEUE_OOSEQ || !PBUF_POOL_FREE_OOSEQ */
 100:Middlewares/Third_Party/LwIP/src/core/pbuf.c **** 
 101:Middlewares/Third_Party/LwIP/src/core/pbuf.c **** #if !NO_SYS
 102:Middlewares/Third_Party/LwIP/src/core/pbuf.c **** #ifndef PBUF_POOL_FREE_OOSEQ_QUEUE_CALL
 103:Middlewares/Third_Party/LwIP/src/core/pbuf.c **** #include "lwip/tcpip.h"
 104:Middlewares/Third_Party/LwIP/src/core/pbuf.c **** #define PBUF_POOL_FREE_OOSEQ_QUEUE_CALL()  do { \
 105:Middlewares/Third_Party/LwIP/src/core/pbuf.c ****   if (tcpip_try_callback(pbuf_free_ooseq_callback, NULL) != ERR_OK) { \
 106:Middlewares/Third_Party/LwIP/src/core/pbuf.c ****       SYS_ARCH_PROTECT(old_level); \
 107:Middlewares/Third_Party/LwIP/src/core/pbuf.c ****       pbuf_free_ooseq_pending = 0; \
 108:Middlewares/Third_Party/LwIP/src/core/pbuf.c ****       SYS_ARCH_UNPROTECT(old_level); \
 109:Middlewares/Third_Party/LwIP/src/core/pbuf.c ****   } } while(0)
 110:Middlewares/Third_Party/LwIP/src/core/pbuf.c **** #endif /* PBUF_POOL_FREE_OOSEQ_QUEUE_CALL */
 111:Middlewares/Third_Party/LwIP/src/core/pbuf.c **** #endif /* !NO_SYS */
 112:Middlewares/Third_Party/LwIP/src/core/pbuf.c **** 
 113:Middlewares/Third_Party/LwIP/src/core/pbuf.c **** volatile u8_t pbuf_free_ooseq_pending;
 114:Middlewares/Third_Party/LwIP/src/core/pbuf.c **** #define PBUF_POOL_IS_EMPTY() pbuf_pool_is_empty()
 115:Middlewares/Third_Party/LwIP/src/core/pbuf.c **** 
 116:Middlewares/Third_Party/LwIP/src/core/pbuf.c **** /**
 117:Middlewares/Third_Party/LwIP/src/core/pbuf.c ****  * Attempt to reclaim some memory from queued out-of-sequence TCP segments
 118:Middlewares/Third_Party/LwIP/src/core/pbuf.c ****  * if we run out of pool pbufs. It's better to give priority to new packets
 119:Middlewares/Third_Party/LwIP/src/core/pbuf.c ****  * if we're running out.
 120:Middlewares/Third_Party/LwIP/src/core/pbuf.c ****  *
 121:Middlewares/Third_Party/LwIP/src/core/pbuf.c ****  * This must be done in the correct thread context therefore this function
 122:Middlewares/Third_Party/LwIP/src/core/pbuf.c ****  * can only be used with NO_SYS=0 and through tcpip_callback.
 123:Middlewares/Third_Party/LwIP/src/core/pbuf.c ****  */
 124:Middlewares/Third_Party/LwIP/src/core/pbuf.c **** #if !NO_SYS
 125:Middlewares/Third_Party/LwIP/src/core/pbuf.c **** static
 126:Middlewares/Third_Party/LwIP/src/core/pbuf.c **** #endif /* !NO_SYS */
 127:Middlewares/Third_Party/LwIP/src/core/pbuf.c **** void
 128:Middlewares/Third_Party/LwIP/src/core/pbuf.c **** pbuf_free_ooseq(void)
 129:Middlewares/Third_Party/LwIP/src/core/pbuf.c **** {
 130:Middlewares/Third_Party/LwIP/src/core/pbuf.c ****   struct tcp_pcb *pcb;
 131:Middlewares/Third_Party/LwIP/src/core/pbuf.c ****   SYS_ARCH_SET(pbuf_free_ooseq_pending, 0);
 132:Middlewares/Third_Party/LwIP/src/core/pbuf.c **** 
 133:Middlewares/Third_Party/LwIP/src/core/pbuf.c ****   for (pcb = tcp_active_pcbs; NULL != pcb; pcb = pcb->next) {
 134:Middlewares/Third_Party/LwIP/src/core/pbuf.c ****     if (pcb->ooseq != NULL) {
 135:Middlewares/Third_Party/LwIP/src/core/pbuf.c ****       /** Free the ooseq pbufs of one PCB only */
 136:Middlewares/Third_Party/LwIP/src/core/pbuf.c ****       LWIP_DEBUGF(PBUF_DEBUG | LWIP_DBG_TRACE, ("pbuf_free_ooseq: freeing out-of-sequence pbufs\n")
 137:Middlewares/Third_Party/LwIP/src/core/pbuf.c ****       tcp_free_ooseq(pcb);
 138:Middlewares/Third_Party/LwIP/src/core/pbuf.c ****       return;
 139:Middlewares/Third_Party/LwIP/src/core/pbuf.c ****     }
 140:Middlewares/Third_Party/LwIP/src/core/pbuf.c ****   }
 141:Middlewares/Third_Party/LwIP/src/core/pbuf.c **** }
 142:Middlewares/Third_Party/LwIP/src/core/pbuf.c **** 
 143:Middlewares/Third_Party/LwIP/src/core/pbuf.c **** #if !NO_SYS
 144:Middlewares/Third_Party/LwIP/src/core/pbuf.c **** /**
 145:Middlewares/Third_Party/LwIP/src/core/pbuf.c ****  * Just a callback function for tcpip_callback() that calls pbuf_free_ooseq().
 146:Middlewares/Third_Party/LwIP/src/core/pbuf.c ****  */
ARM GAS  /var/folders/bg/n1lwdyp56391g865_v8nrmhm0000gn/T//cc4exhWb.s 			page 4


 147:Middlewares/Third_Party/LwIP/src/core/pbuf.c **** static void
 148:Middlewares/Third_Party/LwIP/src/core/pbuf.c **** pbuf_free_ooseq_callback(void *arg)
 149:Middlewares/Third_Party/LwIP/src/core/pbuf.c **** {
 150:Middlewares/Third_Party/LwIP/src/core/pbuf.c ****   LWIP_UNUSED_ARG(arg);
 151:Middlewares/Third_Party/LwIP/src/core/pbuf.c ****   pbuf_free_ooseq();
 152:Middlewares/Third_Party/LwIP/src/core/pbuf.c **** }
 153:Middlewares/Third_Party/LwIP/src/core/pbuf.c **** #endif /* !NO_SYS */
 154:Middlewares/Third_Party/LwIP/src/core/pbuf.c **** 
 155:Middlewares/Third_Party/LwIP/src/core/pbuf.c **** /** Queue a call to pbuf_free_ooseq if not already queued. */
 156:Middlewares/Third_Party/LwIP/src/core/pbuf.c **** static void
 157:Middlewares/Third_Party/LwIP/src/core/pbuf.c **** pbuf_pool_is_empty(void)
 158:Middlewares/Third_Party/LwIP/src/core/pbuf.c **** {
  27              		.loc 1 158 1 view -0
  28              		.cfi_startproc
  29              		@ args = 0, pretend = 0, frame = 0
  30              		@ frame_needed = 0, uses_anonymous_args = 0
  31              		@ link register save eliminated.
 159:Middlewares/Third_Party/LwIP/src/core/pbuf.c **** #ifndef PBUF_POOL_FREE_OOSEQ_QUEUE_CALL
 160:Middlewares/Third_Party/LwIP/src/core/pbuf.c ****   SYS_ARCH_SET(pbuf_free_ooseq_pending, 1);
  32              		.loc 1 160 3 view .LVU1
  33              		.loc 1 160 3 view .LVU2
  34              		.loc 1 160 3 view .LVU3
  35              		.loc 1 160 3 view .LVU4
  36 0000 014B     		ldr	r3, .L2
  37 0002 0122     		movs	r2, #1
  38 0004 1A70     		strb	r2, [r3]
  39              		.loc 1 160 3 view .LVU5
  40              		.loc 1 160 3 view .LVU6
 161:Middlewares/Third_Party/LwIP/src/core/pbuf.c **** #else /* PBUF_POOL_FREE_OOSEQ_QUEUE_CALL */
 162:Middlewares/Third_Party/LwIP/src/core/pbuf.c ****   u8_t queued;
 163:Middlewares/Third_Party/LwIP/src/core/pbuf.c ****   SYS_ARCH_DECL_PROTECT(old_level);
 164:Middlewares/Third_Party/LwIP/src/core/pbuf.c ****   SYS_ARCH_PROTECT(old_level);
 165:Middlewares/Third_Party/LwIP/src/core/pbuf.c ****   queued = pbuf_free_ooseq_pending;
 166:Middlewares/Third_Party/LwIP/src/core/pbuf.c ****   pbuf_free_ooseq_pending = 1;
 167:Middlewares/Third_Party/LwIP/src/core/pbuf.c ****   SYS_ARCH_UNPROTECT(old_level);
 168:Middlewares/Third_Party/LwIP/src/core/pbuf.c **** 
 169:Middlewares/Third_Party/LwIP/src/core/pbuf.c ****   if (!queued) {
 170:Middlewares/Third_Party/LwIP/src/core/pbuf.c ****     /* queue a call to pbuf_free_ooseq if not already queued */
 171:Middlewares/Third_Party/LwIP/src/core/pbuf.c ****     PBUF_POOL_FREE_OOSEQ_QUEUE_CALL();
 172:Middlewares/Third_Party/LwIP/src/core/pbuf.c ****   }
 173:Middlewares/Third_Party/LwIP/src/core/pbuf.c **** #endif /* PBUF_POOL_FREE_OOSEQ_QUEUE_CALL */
 174:Middlewares/Third_Party/LwIP/src/core/pbuf.c **** }
  41              		.loc 1 174 1 is_stmt 0 view .LVU7
  42 0006 7047     		bx	lr
  43              	.L3:
  44              		.align	2
  45              	.L2:
  46 0008 00000000 		.word	.LANCHOR0
  47              		.cfi_endproc
  48              	.LFE168:
  50              		.section	.text.pbuf_init_alloced_pbuf,"ax",%progbits
  51              		.align	1
  52              		.syntax unified
  53              		.thumb
  54              		.thumb_func
  55              		.fpu fpv5-d16
  57              	pbuf_init_alloced_pbuf:
ARM GAS  /var/folders/bg/n1lwdyp56391g865_v8nrmhm0000gn/T//cc4exhWb.s 			page 5


  58              	.LVL0:
  59              	.LFB169:
 175:Middlewares/Third_Party/LwIP/src/core/pbuf.c **** #endif /* !LWIP_TCP || !TCP_QUEUE_OOSEQ || !PBUF_POOL_FREE_OOSEQ */
 176:Middlewares/Third_Party/LwIP/src/core/pbuf.c **** 
 177:Middlewares/Third_Party/LwIP/src/core/pbuf.c **** /* Initialize members of struct pbuf after allocation */
 178:Middlewares/Third_Party/LwIP/src/core/pbuf.c **** static void
 179:Middlewares/Third_Party/LwIP/src/core/pbuf.c **** pbuf_init_alloced_pbuf(struct pbuf *p, void *payload, u16_t tot_len, u16_t len, pbuf_type type, u8_
 180:Middlewares/Third_Party/LwIP/src/core/pbuf.c **** {
  60              		.loc 1 180 1 is_stmt 1 view -0
  61              		.cfi_startproc
  62              		@ args = 8, pretend = 0, frame = 0
  63              		@ frame_needed = 0, uses_anonymous_args = 0
  64              		@ link register save eliminated.
  65              		.loc 1 180 1 is_stmt 0 view .LVU9
  66 0000 10B4     		push	{r4}
  67              	.LCFI0:
  68              		.cfi_def_cfa_offset 4
  69              		.cfi_offset 4, -4
 181:Middlewares/Third_Party/LwIP/src/core/pbuf.c ****   p->next = NULL;
  70              		.loc 1 181 3 is_stmt 1 view .LVU10
  71              		.loc 1 181 11 is_stmt 0 view .LVU11
  72 0002 0024     		movs	r4, #0
  73 0004 0460     		str	r4, [r0]
 182:Middlewares/Third_Party/LwIP/src/core/pbuf.c ****   p->payload = payload;
  74              		.loc 1 182 3 is_stmt 1 view .LVU12
  75              		.loc 1 182 14 is_stmt 0 view .LVU13
  76 0006 4160     		str	r1, [r0, #4]
 183:Middlewares/Third_Party/LwIP/src/core/pbuf.c ****   p->tot_len = tot_len;
  77              		.loc 1 183 3 is_stmt 1 view .LVU14
  78              		.loc 1 183 14 is_stmt 0 view .LVU15
  79 0008 0281     		strh	r2, [r0, #8]	@ movhi
 184:Middlewares/Third_Party/LwIP/src/core/pbuf.c ****   p->len = len;
  80              		.loc 1 184 3 is_stmt 1 view .LVU16
  81              		.loc 1 184 10 is_stmt 0 view .LVU17
  82 000a 4381     		strh	r3, [r0, #10]	@ movhi
 185:Middlewares/Third_Party/LwIP/src/core/pbuf.c ****   p->type_internal = (u8_t)type;
  83              		.loc 1 185 3 is_stmt 1 view .LVU18
  84              		.loc 1 185 22 is_stmt 0 view .LVU19
  85 000c 9DF80430 		ldrb	r3, [sp, #4]	@ zero_extendqisi2
  86              	.LVL1:
  87              		.loc 1 185 20 view .LVU20
  88 0010 0373     		strb	r3, [r0, #12]
 186:Middlewares/Third_Party/LwIP/src/core/pbuf.c ****   p->flags = flags;
  89              		.loc 1 186 3 is_stmt 1 view .LVU21
  90              		.loc 1 186 12 is_stmt 0 view .LVU22
  91 0012 9DF80830 		ldrb	r3, [sp, #8]	@ zero_extendqisi2
  92 0016 4373     		strb	r3, [r0, #13]
 187:Middlewares/Third_Party/LwIP/src/core/pbuf.c ****   p->ref = 1;
  93              		.loc 1 187 3 is_stmt 1 view .LVU23
  94              		.loc 1 187 10 is_stmt 0 view .LVU24
  95 0018 0123     		movs	r3, #1
  96 001a 8373     		strb	r3, [r0, #14]
 188:Middlewares/Third_Party/LwIP/src/core/pbuf.c ****   p->if_idx = NETIF_NO_INDEX;
  97              		.loc 1 188 3 is_stmt 1 view .LVU25
  98              		.loc 1 188 13 is_stmt 0 view .LVU26
  99 001c C473     		strb	r4, [r0, #15]
 189:Middlewares/Third_Party/LwIP/src/core/pbuf.c **** }
ARM GAS  /var/folders/bg/n1lwdyp56391g865_v8nrmhm0000gn/T//cc4exhWb.s 			page 6


 100              		.loc 1 189 1 view .LVU27
 101 001e 5DF8044B 		ldr	r4, [sp], #4
 102              	.LCFI1:
 103              		.cfi_restore 4
 104              		.cfi_def_cfa_offset 0
 105              	.LVL2:
 106              		.loc 1 189 1 view .LVU28
 107 0022 7047     		bx	lr
 108              		.cfi_endproc
 109              	.LFE169:
 111              		.section	.text.pbuf_skip_const,"ax",%progbits
 112              		.align	1
 113              		.syntax unified
 114              		.thumb
 115              		.thumb_func
 116              		.fpu fpv5-d16
 118              	pbuf_skip_const:
 119              	.LVL3:
 120              	.LFB191:
 190:Middlewares/Third_Party/LwIP/src/core/pbuf.c **** 
 191:Middlewares/Third_Party/LwIP/src/core/pbuf.c **** /**
 192:Middlewares/Third_Party/LwIP/src/core/pbuf.c ****  * @ingroup pbuf
 193:Middlewares/Third_Party/LwIP/src/core/pbuf.c ****  * Allocates a pbuf of the given type (possibly a chain for PBUF_POOL type).
 194:Middlewares/Third_Party/LwIP/src/core/pbuf.c ****  *
 195:Middlewares/Third_Party/LwIP/src/core/pbuf.c ****  * The actual memory allocated for the pbuf is determined by the
 196:Middlewares/Third_Party/LwIP/src/core/pbuf.c ****  * layer at which the pbuf is allocated and the requested size
 197:Middlewares/Third_Party/LwIP/src/core/pbuf.c ****  * (from the size parameter).
 198:Middlewares/Third_Party/LwIP/src/core/pbuf.c ****  *
 199:Middlewares/Third_Party/LwIP/src/core/pbuf.c ****  * @param layer header size
 200:Middlewares/Third_Party/LwIP/src/core/pbuf.c ****  * @param length size of the pbuf's payload
 201:Middlewares/Third_Party/LwIP/src/core/pbuf.c ****  * @param type this parameter decides how and where the pbuf
 202:Middlewares/Third_Party/LwIP/src/core/pbuf.c ****  * should be allocated as follows:
 203:Middlewares/Third_Party/LwIP/src/core/pbuf.c ****  *
 204:Middlewares/Third_Party/LwIP/src/core/pbuf.c ****  * - PBUF_RAM: buffer memory for pbuf is allocated as one large
 205:Middlewares/Third_Party/LwIP/src/core/pbuf.c ****  *             chunk. This includes protocol headers as well.
 206:Middlewares/Third_Party/LwIP/src/core/pbuf.c ****  * - PBUF_ROM: no buffer memory is allocated for the pbuf, even for
 207:Middlewares/Third_Party/LwIP/src/core/pbuf.c ****  *             protocol headers. Additional headers must be prepended
 208:Middlewares/Third_Party/LwIP/src/core/pbuf.c ****  *             by allocating another pbuf and chain in to the front of
 209:Middlewares/Third_Party/LwIP/src/core/pbuf.c ****  *             the ROM pbuf. It is assumed that the memory used is really
 210:Middlewares/Third_Party/LwIP/src/core/pbuf.c ****  *             similar to ROM in that it is immutable and will not be
 211:Middlewares/Third_Party/LwIP/src/core/pbuf.c ****  *             changed. Memory which is dynamic should generally not
 212:Middlewares/Third_Party/LwIP/src/core/pbuf.c ****  *             be attached to PBUF_ROM pbufs. Use PBUF_REF instead.
 213:Middlewares/Third_Party/LwIP/src/core/pbuf.c ****  * - PBUF_REF: no buffer memory is allocated for the pbuf, even for
 214:Middlewares/Third_Party/LwIP/src/core/pbuf.c ****  *             protocol headers. It is assumed that the pbuf is only
 215:Middlewares/Third_Party/LwIP/src/core/pbuf.c ****  *             being used in a single thread. If the pbuf gets queued,
 216:Middlewares/Third_Party/LwIP/src/core/pbuf.c ****  *             then pbuf_take should be called to copy the buffer.
 217:Middlewares/Third_Party/LwIP/src/core/pbuf.c ****  * - PBUF_POOL: the pbuf is allocated as a pbuf chain, with pbufs from
 218:Middlewares/Third_Party/LwIP/src/core/pbuf.c ****  *              the pbuf pool that is allocated during pbuf_init().
 219:Middlewares/Third_Party/LwIP/src/core/pbuf.c ****  *
 220:Middlewares/Third_Party/LwIP/src/core/pbuf.c ****  * @return the allocated pbuf. If multiple pbufs where allocated, this
 221:Middlewares/Third_Party/LwIP/src/core/pbuf.c ****  * is the first pbuf of a pbuf chain.
 222:Middlewares/Third_Party/LwIP/src/core/pbuf.c ****  */
 223:Middlewares/Third_Party/LwIP/src/core/pbuf.c **** struct pbuf *
 224:Middlewares/Third_Party/LwIP/src/core/pbuf.c **** pbuf_alloc(pbuf_layer layer, u16_t length, pbuf_type type)
 225:Middlewares/Third_Party/LwIP/src/core/pbuf.c **** {
 226:Middlewares/Third_Party/LwIP/src/core/pbuf.c ****   struct pbuf *p;
 227:Middlewares/Third_Party/LwIP/src/core/pbuf.c ****   u16_t offset = (u16_t)layer;
ARM GAS  /var/folders/bg/n1lwdyp56391g865_v8nrmhm0000gn/T//cc4exhWb.s 			page 7


 228:Middlewares/Third_Party/LwIP/src/core/pbuf.c ****   LWIP_DEBUGF(PBUF_DEBUG | LWIP_DBG_TRACE, ("pbuf_alloc(length=%"U16_F")\n", length));
 229:Middlewares/Third_Party/LwIP/src/core/pbuf.c **** 
 230:Middlewares/Third_Party/LwIP/src/core/pbuf.c ****   switch (type) {
 231:Middlewares/Third_Party/LwIP/src/core/pbuf.c ****     case PBUF_REF: /* fall through */
 232:Middlewares/Third_Party/LwIP/src/core/pbuf.c ****     case PBUF_ROM:
 233:Middlewares/Third_Party/LwIP/src/core/pbuf.c ****       p = pbuf_alloc_reference(NULL, length, type);
 234:Middlewares/Third_Party/LwIP/src/core/pbuf.c ****       break;
 235:Middlewares/Third_Party/LwIP/src/core/pbuf.c ****     case PBUF_POOL: {
 236:Middlewares/Third_Party/LwIP/src/core/pbuf.c ****       struct pbuf *q, *last;
 237:Middlewares/Third_Party/LwIP/src/core/pbuf.c ****       u16_t rem_len; /* remaining length */
 238:Middlewares/Third_Party/LwIP/src/core/pbuf.c ****       p = NULL;
 239:Middlewares/Third_Party/LwIP/src/core/pbuf.c ****       last = NULL;
 240:Middlewares/Third_Party/LwIP/src/core/pbuf.c ****       rem_len = length;
 241:Middlewares/Third_Party/LwIP/src/core/pbuf.c ****       do {
 242:Middlewares/Third_Party/LwIP/src/core/pbuf.c ****         u16_t qlen;
 243:Middlewares/Third_Party/LwIP/src/core/pbuf.c ****         q = (struct pbuf *)memp_malloc(MEMP_PBUF_POOL);
 244:Middlewares/Third_Party/LwIP/src/core/pbuf.c ****         if (q == NULL) {
 245:Middlewares/Third_Party/LwIP/src/core/pbuf.c ****           PBUF_POOL_IS_EMPTY();
 246:Middlewares/Third_Party/LwIP/src/core/pbuf.c ****           /* free chain so far allocated */
 247:Middlewares/Third_Party/LwIP/src/core/pbuf.c ****           if (p) {
 248:Middlewares/Third_Party/LwIP/src/core/pbuf.c ****             pbuf_free(p);
 249:Middlewares/Third_Party/LwIP/src/core/pbuf.c ****           }
 250:Middlewares/Third_Party/LwIP/src/core/pbuf.c ****           /* bail out unsuccessfully */
 251:Middlewares/Third_Party/LwIP/src/core/pbuf.c ****           return NULL;
 252:Middlewares/Third_Party/LwIP/src/core/pbuf.c ****         }
 253:Middlewares/Third_Party/LwIP/src/core/pbuf.c ****         qlen = LWIP_MIN(rem_len, (u16_t)(PBUF_POOL_BUFSIZE_ALIGNED - LWIP_MEM_ALIGN_SIZE(offset)));
 254:Middlewares/Third_Party/LwIP/src/core/pbuf.c ****         pbuf_init_alloced_pbuf(q, LWIP_MEM_ALIGN((void *)((u8_t *)q + SIZEOF_STRUCT_PBUF + offset))
 255:Middlewares/Third_Party/LwIP/src/core/pbuf.c ****                                rem_len, qlen, type, 0);
 256:Middlewares/Third_Party/LwIP/src/core/pbuf.c ****         LWIP_ASSERT("pbuf_alloc: pbuf q->payload properly aligned",
 257:Middlewares/Third_Party/LwIP/src/core/pbuf.c ****                     ((mem_ptr_t)q->payload % MEM_ALIGNMENT) == 0);
 258:Middlewares/Third_Party/LwIP/src/core/pbuf.c ****         LWIP_ASSERT("PBUF_POOL_BUFSIZE must be bigger than MEM_ALIGNMENT",
 259:Middlewares/Third_Party/LwIP/src/core/pbuf.c ****                     (PBUF_POOL_BUFSIZE_ALIGNED - LWIP_MEM_ALIGN_SIZE(offset)) > 0 );
 260:Middlewares/Third_Party/LwIP/src/core/pbuf.c ****         if (p == NULL) {
 261:Middlewares/Third_Party/LwIP/src/core/pbuf.c ****           /* allocated head of pbuf chain (into p) */
 262:Middlewares/Third_Party/LwIP/src/core/pbuf.c ****           p = q;
 263:Middlewares/Third_Party/LwIP/src/core/pbuf.c ****         } else {
 264:Middlewares/Third_Party/LwIP/src/core/pbuf.c ****           /* make previous pbuf point to this pbuf */
 265:Middlewares/Third_Party/LwIP/src/core/pbuf.c ****           last->next = q;
 266:Middlewares/Third_Party/LwIP/src/core/pbuf.c ****         }
 267:Middlewares/Third_Party/LwIP/src/core/pbuf.c ****         last = q;
 268:Middlewares/Third_Party/LwIP/src/core/pbuf.c ****         rem_len = (u16_t)(rem_len - qlen);
 269:Middlewares/Third_Party/LwIP/src/core/pbuf.c ****         offset = 0;
 270:Middlewares/Third_Party/LwIP/src/core/pbuf.c ****       } while (rem_len > 0);
 271:Middlewares/Third_Party/LwIP/src/core/pbuf.c ****       break;
 272:Middlewares/Third_Party/LwIP/src/core/pbuf.c ****     }
 273:Middlewares/Third_Party/LwIP/src/core/pbuf.c ****     case PBUF_RAM: {
 274:Middlewares/Third_Party/LwIP/src/core/pbuf.c ****       u16_t payload_len = (u16_t)(LWIP_MEM_ALIGN_SIZE(offset) + LWIP_MEM_ALIGN_SIZE(length));
 275:Middlewares/Third_Party/LwIP/src/core/pbuf.c ****       mem_size_t alloc_len = (mem_size_t)(LWIP_MEM_ALIGN_SIZE(SIZEOF_STRUCT_PBUF) + payload_len);
 276:Middlewares/Third_Party/LwIP/src/core/pbuf.c **** 
 277:Middlewares/Third_Party/LwIP/src/core/pbuf.c ****       /* bug #50040: Check for integer overflow when calculating alloc_len */
 278:Middlewares/Third_Party/LwIP/src/core/pbuf.c ****       if ((payload_len < LWIP_MEM_ALIGN_SIZE(length)) ||
 279:Middlewares/Third_Party/LwIP/src/core/pbuf.c ****           (alloc_len < LWIP_MEM_ALIGN_SIZE(length))) {
 280:Middlewares/Third_Party/LwIP/src/core/pbuf.c ****         return NULL;
 281:Middlewares/Third_Party/LwIP/src/core/pbuf.c ****       }
 282:Middlewares/Third_Party/LwIP/src/core/pbuf.c **** 
 283:Middlewares/Third_Party/LwIP/src/core/pbuf.c ****       /* If pbuf is to be allocated in RAM, allocate memory for it. */
 284:Middlewares/Third_Party/LwIP/src/core/pbuf.c ****       p = (struct pbuf *)mem_malloc(alloc_len);
ARM GAS  /var/folders/bg/n1lwdyp56391g865_v8nrmhm0000gn/T//cc4exhWb.s 			page 8


 285:Middlewares/Third_Party/LwIP/src/core/pbuf.c ****       if (p == NULL) {
 286:Middlewares/Third_Party/LwIP/src/core/pbuf.c ****         return NULL;
 287:Middlewares/Third_Party/LwIP/src/core/pbuf.c ****       }
 288:Middlewares/Third_Party/LwIP/src/core/pbuf.c ****       pbuf_init_alloced_pbuf(p, LWIP_MEM_ALIGN((void *)((u8_t *)p + SIZEOF_STRUCT_PBUF + offset)),
 289:Middlewares/Third_Party/LwIP/src/core/pbuf.c ****                              length, length, type, 0);
 290:Middlewares/Third_Party/LwIP/src/core/pbuf.c ****       LWIP_ASSERT("pbuf_alloc: pbuf->payload properly aligned",
 291:Middlewares/Third_Party/LwIP/src/core/pbuf.c ****                   ((mem_ptr_t)p->payload % MEM_ALIGNMENT) == 0);
 292:Middlewares/Third_Party/LwIP/src/core/pbuf.c ****       break;
 293:Middlewares/Third_Party/LwIP/src/core/pbuf.c ****     }
 294:Middlewares/Third_Party/LwIP/src/core/pbuf.c ****     default:
 295:Middlewares/Third_Party/LwIP/src/core/pbuf.c ****       LWIP_ASSERT("pbuf_alloc: erroneous type", 0);
 296:Middlewares/Third_Party/LwIP/src/core/pbuf.c ****       return NULL;
 297:Middlewares/Third_Party/LwIP/src/core/pbuf.c ****   }
 298:Middlewares/Third_Party/LwIP/src/core/pbuf.c ****   LWIP_DEBUGF(PBUF_DEBUG | LWIP_DBG_TRACE, ("pbuf_alloc(length=%"U16_F") == %p\n", length, (void *)
 299:Middlewares/Third_Party/LwIP/src/core/pbuf.c ****   return p;
 300:Middlewares/Third_Party/LwIP/src/core/pbuf.c **** }
 301:Middlewares/Third_Party/LwIP/src/core/pbuf.c **** 
 302:Middlewares/Third_Party/LwIP/src/core/pbuf.c **** /**
 303:Middlewares/Third_Party/LwIP/src/core/pbuf.c ****  * @ingroup pbuf
 304:Middlewares/Third_Party/LwIP/src/core/pbuf.c ****  * Allocates a pbuf for referenced data.
 305:Middlewares/Third_Party/LwIP/src/core/pbuf.c ****  * Referenced data can be volatile (PBUF_REF) or long-lived (PBUF_ROM).
 306:Middlewares/Third_Party/LwIP/src/core/pbuf.c ****  *
 307:Middlewares/Third_Party/LwIP/src/core/pbuf.c ****  * The actual memory allocated for the pbuf is determined by the
 308:Middlewares/Third_Party/LwIP/src/core/pbuf.c ****  * layer at which the pbuf is allocated and the requested size
 309:Middlewares/Third_Party/LwIP/src/core/pbuf.c ****  * (from the size parameter).
 310:Middlewares/Third_Party/LwIP/src/core/pbuf.c ****  *
 311:Middlewares/Third_Party/LwIP/src/core/pbuf.c ****  * @param payload referenced payload
 312:Middlewares/Third_Party/LwIP/src/core/pbuf.c ****  * @param length size of the pbuf's payload
 313:Middlewares/Third_Party/LwIP/src/core/pbuf.c ****  * @param type this parameter decides how and where the pbuf
 314:Middlewares/Third_Party/LwIP/src/core/pbuf.c ****  * should be allocated as follows:
 315:Middlewares/Third_Party/LwIP/src/core/pbuf.c ****  *
 316:Middlewares/Third_Party/LwIP/src/core/pbuf.c ****  * - PBUF_ROM: It is assumed that the memory used is really
 317:Middlewares/Third_Party/LwIP/src/core/pbuf.c ****  *             similar to ROM in that it is immutable and will not be
 318:Middlewares/Third_Party/LwIP/src/core/pbuf.c ****  *             changed. Memory which is dynamic should generally not
 319:Middlewares/Third_Party/LwIP/src/core/pbuf.c ****  *             be attached to PBUF_ROM pbufs. Use PBUF_REF instead.
 320:Middlewares/Third_Party/LwIP/src/core/pbuf.c ****  * - PBUF_REF: It is assumed that the pbuf is only
 321:Middlewares/Third_Party/LwIP/src/core/pbuf.c ****  *             being used in a single thread. If the pbuf gets queued,
 322:Middlewares/Third_Party/LwIP/src/core/pbuf.c ****  *             then pbuf_take should be called to copy the buffer.
 323:Middlewares/Third_Party/LwIP/src/core/pbuf.c ****  *
 324:Middlewares/Third_Party/LwIP/src/core/pbuf.c ****  * @return the allocated pbuf.
 325:Middlewares/Third_Party/LwIP/src/core/pbuf.c ****  */
 326:Middlewares/Third_Party/LwIP/src/core/pbuf.c **** struct pbuf *
 327:Middlewares/Third_Party/LwIP/src/core/pbuf.c **** pbuf_alloc_reference(void *payload, u16_t length, pbuf_type type)
 328:Middlewares/Third_Party/LwIP/src/core/pbuf.c **** {
 329:Middlewares/Third_Party/LwIP/src/core/pbuf.c ****   struct pbuf *p;
 330:Middlewares/Third_Party/LwIP/src/core/pbuf.c ****   LWIP_ASSERT("invalid pbuf_type", (type == PBUF_REF) || (type == PBUF_ROM));
 331:Middlewares/Third_Party/LwIP/src/core/pbuf.c ****   /* only allocate memory for the pbuf structure */
 332:Middlewares/Third_Party/LwIP/src/core/pbuf.c ****   p = (struct pbuf *)memp_malloc(MEMP_PBUF);
 333:Middlewares/Third_Party/LwIP/src/core/pbuf.c ****   if (p == NULL) {
 334:Middlewares/Third_Party/LwIP/src/core/pbuf.c ****     LWIP_DEBUGF(PBUF_DEBUG | LWIP_DBG_LEVEL_SERIOUS,
 335:Middlewares/Third_Party/LwIP/src/core/pbuf.c ****                 ("pbuf_alloc_reference: Could not allocate MEMP_PBUF for PBUF_%s.\n",
 336:Middlewares/Third_Party/LwIP/src/core/pbuf.c ****                  (type == PBUF_ROM) ? "ROM" : "REF"));
 337:Middlewares/Third_Party/LwIP/src/core/pbuf.c ****     return NULL;
 338:Middlewares/Third_Party/LwIP/src/core/pbuf.c ****   }
 339:Middlewares/Third_Party/LwIP/src/core/pbuf.c ****   pbuf_init_alloced_pbuf(p, payload, length, length, type, 0);
 340:Middlewares/Third_Party/LwIP/src/core/pbuf.c ****   return p;
 341:Middlewares/Third_Party/LwIP/src/core/pbuf.c **** }
ARM GAS  /var/folders/bg/n1lwdyp56391g865_v8nrmhm0000gn/T//cc4exhWb.s 			page 9


 342:Middlewares/Third_Party/LwIP/src/core/pbuf.c **** 
 343:Middlewares/Third_Party/LwIP/src/core/pbuf.c **** 
 344:Middlewares/Third_Party/LwIP/src/core/pbuf.c **** #if LWIP_SUPPORT_CUSTOM_PBUF
 345:Middlewares/Third_Party/LwIP/src/core/pbuf.c **** /**
 346:Middlewares/Third_Party/LwIP/src/core/pbuf.c ****  * @ingroup pbuf
 347:Middlewares/Third_Party/LwIP/src/core/pbuf.c ****  * Initialize a custom pbuf (already allocated).
 348:Middlewares/Third_Party/LwIP/src/core/pbuf.c ****  * Example of custom pbuf usage: @ref zerocopyrx
 349:Middlewares/Third_Party/LwIP/src/core/pbuf.c ****  *
 350:Middlewares/Third_Party/LwIP/src/core/pbuf.c ****  * @param l header size
 351:Middlewares/Third_Party/LwIP/src/core/pbuf.c ****  * @param length size of the pbuf's payload
 352:Middlewares/Third_Party/LwIP/src/core/pbuf.c ****  * @param type type of the pbuf (only used to treat the pbuf accordingly, as
 353:Middlewares/Third_Party/LwIP/src/core/pbuf.c ****  *        this function allocates no memory)
 354:Middlewares/Third_Party/LwIP/src/core/pbuf.c ****  * @param p pointer to the custom pbuf to initialize (already allocated)
 355:Middlewares/Third_Party/LwIP/src/core/pbuf.c ****  * @param payload_mem pointer to the buffer that is used for payload and headers,
 356:Middlewares/Third_Party/LwIP/src/core/pbuf.c ****  *        must be at least big enough to hold 'length' plus the header size,
 357:Middlewares/Third_Party/LwIP/src/core/pbuf.c ****  *        may be NULL if set later.
 358:Middlewares/Third_Party/LwIP/src/core/pbuf.c ****  *        ATTENTION: The caller is responsible for correct alignment of this buffer!!
 359:Middlewares/Third_Party/LwIP/src/core/pbuf.c ****  * @param payload_mem_len the size of the 'payload_mem' buffer, must be at least
 360:Middlewares/Third_Party/LwIP/src/core/pbuf.c ****  *        big enough to hold 'length' plus the header size
 361:Middlewares/Third_Party/LwIP/src/core/pbuf.c ****  */
 362:Middlewares/Third_Party/LwIP/src/core/pbuf.c **** struct pbuf *
 363:Middlewares/Third_Party/LwIP/src/core/pbuf.c **** pbuf_alloced_custom(pbuf_layer l, u16_t length, pbuf_type type, struct pbuf_custom *p,
 364:Middlewares/Third_Party/LwIP/src/core/pbuf.c ****                     void *payload_mem, u16_t payload_mem_len)
 365:Middlewares/Third_Party/LwIP/src/core/pbuf.c **** {
 366:Middlewares/Third_Party/LwIP/src/core/pbuf.c ****   u16_t offset = (u16_t)l;
 367:Middlewares/Third_Party/LwIP/src/core/pbuf.c ****   void *payload;
 368:Middlewares/Third_Party/LwIP/src/core/pbuf.c ****   LWIP_DEBUGF(PBUF_DEBUG | LWIP_DBG_TRACE, ("pbuf_alloced_custom(length=%"U16_F")\n", length));
 369:Middlewares/Third_Party/LwIP/src/core/pbuf.c **** 
 370:Middlewares/Third_Party/LwIP/src/core/pbuf.c ****   if (LWIP_MEM_ALIGN_SIZE(offset) + length > payload_mem_len) {
 371:Middlewares/Third_Party/LwIP/src/core/pbuf.c ****     LWIP_DEBUGF(PBUF_DEBUG | LWIP_DBG_LEVEL_WARNING, ("pbuf_alloced_custom(length=%"U16_F") buffer 
 372:Middlewares/Third_Party/LwIP/src/core/pbuf.c ****     return NULL;
 373:Middlewares/Third_Party/LwIP/src/core/pbuf.c ****   }
 374:Middlewares/Third_Party/LwIP/src/core/pbuf.c **** 
 375:Middlewares/Third_Party/LwIP/src/core/pbuf.c ****   if (payload_mem != NULL) {
 376:Middlewares/Third_Party/LwIP/src/core/pbuf.c ****     payload = (u8_t *)payload_mem + LWIP_MEM_ALIGN_SIZE(offset);
 377:Middlewares/Third_Party/LwIP/src/core/pbuf.c ****   } else {
 378:Middlewares/Third_Party/LwIP/src/core/pbuf.c ****     payload = NULL;
 379:Middlewares/Third_Party/LwIP/src/core/pbuf.c ****   }
 380:Middlewares/Third_Party/LwIP/src/core/pbuf.c ****   pbuf_init_alloced_pbuf(&p->pbuf, payload, length, length, type, PBUF_FLAG_IS_CUSTOM);
 381:Middlewares/Third_Party/LwIP/src/core/pbuf.c ****   return &p->pbuf;
 382:Middlewares/Third_Party/LwIP/src/core/pbuf.c **** }
 383:Middlewares/Third_Party/LwIP/src/core/pbuf.c **** #endif /* LWIP_SUPPORT_CUSTOM_PBUF */
 384:Middlewares/Third_Party/LwIP/src/core/pbuf.c **** 
 385:Middlewares/Third_Party/LwIP/src/core/pbuf.c **** /**
 386:Middlewares/Third_Party/LwIP/src/core/pbuf.c ****  * @ingroup pbuf
 387:Middlewares/Third_Party/LwIP/src/core/pbuf.c ****  * Shrink a pbuf chain to a desired length.
 388:Middlewares/Third_Party/LwIP/src/core/pbuf.c ****  *
 389:Middlewares/Third_Party/LwIP/src/core/pbuf.c ****  * @param p pbuf to shrink.
 390:Middlewares/Third_Party/LwIP/src/core/pbuf.c ****  * @param new_len desired new length of pbuf chain
 391:Middlewares/Third_Party/LwIP/src/core/pbuf.c ****  *
 392:Middlewares/Third_Party/LwIP/src/core/pbuf.c ****  * Depending on the desired length, the first few pbufs in a chain might
 393:Middlewares/Third_Party/LwIP/src/core/pbuf.c ****  * be skipped and left unchanged. The new last pbuf in the chain will be
 394:Middlewares/Third_Party/LwIP/src/core/pbuf.c ****  * resized, and any remaining pbufs will be freed.
 395:Middlewares/Third_Party/LwIP/src/core/pbuf.c ****  *
 396:Middlewares/Third_Party/LwIP/src/core/pbuf.c ****  * @note If the pbuf is ROM/REF, only the ->tot_len and ->len fields are adjusted.
 397:Middlewares/Third_Party/LwIP/src/core/pbuf.c ****  * @note May not be called on a packet queue.
 398:Middlewares/Third_Party/LwIP/src/core/pbuf.c ****  *
ARM GAS  /var/folders/bg/n1lwdyp56391g865_v8nrmhm0000gn/T//cc4exhWb.s 			page 10


 399:Middlewares/Third_Party/LwIP/src/core/pbuf.c ****  * @note Despite its name, pbuf_realloc cannot grow the size of a pbuf (chain).
 400:Middlewares/Third_Party/LwIP/src/core/pbuf.c ****  */
 401:Middlewares/Third_Party/LwIP/src/core/pbuf.c **** void
 402:Middlewares/Third_Party/LwIP/src/core/pbuf.c **** pbuf_realloc(struct pbuf *p, u16_t new_len)
 403:Middlewares/Third_Party/LwIP/src/core/pbuf.c **** {
 404:Middlewares/Third_Party/LwIP/src/core/pbuf.c ****   struct pbuf *q;
 405:Middlewares/Third_Party/LwIP/src/core/pbuf.c ****   u16_t rem_len; /* remaining length */
 406:Middlewares/Third_Party/LwIP/src/core/pbuf.c ****   u16_t shrink;
 407:Middlewares/Third_Party/LwIP/src/core/pbuf.c **** 
 408:Middlewares/Third_Party/LwIP/src/core/pbuf.c ****   LWIP_ASSERT("pbuf_realloc: p != NULL", p != NULL);
 409:Middlewares/Third_Party/LwIP/src/core/pbuf.c **** 
 410:Middlewares/Third_Party/LwIP/src/core/pbuf.c ****   /* desired length larger than current length? */
 411:Middlewares/Third_Party/LwIP/src/core/pbuf.c ****   if (new_len >= p->tot_len) {
 412:Middlewares/Third_Party/LwIP/src/core/pbuf.c ****     /* enlarging not yet supported */
 413:Middlewares/Third_Party/LwIP/src/core/pbuf.c ****     return;
 414:Middlewares/Third_Party/LwIP/src/core/pbuf.c ****   }
 415:Middlewares/Third_Party/LwIP/src/core/pbuf.c **** 
 416:Middlewares/Third_Party/LwIP/src/core/pbuf.c ****   /* the pbuf chain grows by (new_len - p->tot_len) bytes
 417:Middlewares/Third_Party/LwIP/src/core/pbuf.c ****    * (which may be negative in case of shrinking) */
 418:Middlewares/Third_Party/LwIP/src/core/pbuf.c ****   shrink = (u16_t)(p->tot_len - new_len);
 419:Middlewares/Third_Party/LwIP/src/core/pbuf.c **** 
 420:Middlewares/Third_Party/LwIP/src/core/pbuf.c ****   /* first, step over any pbufs that should remain in the chain */
 421:Middlewares/Third_Party/LwIP/src/core/pbuf.c ****   rem_len = new_len;
 422:Middlewares/Third_Party/LwIP/src/core/pbuf.c ****   q = p;
 423:Middlewares/Third_Party/LwIP/src/core/pbuf.c ****   /* should this pbuf be kept? */
 424:Middlewares/Third_Party/LwIP/src/core/pbuf.c ****   while (rem_len > q->len) {
 425:Middlewares/Third_Party/LwIP/src/core/pbuf.c ****     /* decrease remaining length by pbuf length */
 426:Middlewares/Third_Party/LwIP/src/core/pbuf.c ****     rem_len = (u16_t)(rem_len - q->len);
 427:Middlewares/Third_Party/LwIP/src/core/pbuf.c ****     /* decrease total length indicator */
 428:Middlewares/Third_Party/LwIP/src/core/pbuf.c ****     q->tot_len = (u16_t)(q->tot_len - shrink);
 429:Middlewares/Third_Party/LwIP/src/core/pbuf.c ****     /* proceed to next pbuf in chain */
 430:Middlewares/Third_Party/LwIP/src/core/pbuf.c ****     q = q->next;
 431:Middlewares/Third_Party/LwIP/src/core/pbuf.c ****     LWIP_ASSERT("pbuf_realloc: q != NULL", q != NULL);
 432:Middlewares/Third_Party/LwIP/src/core/pbuf.c ****   }
 433:Middlewares/Third_Party/LwIP/src/core/pbuf.c ****   /* we have now reached the new last pbuf (in q) */
 434:Middlewares/Third_Party/LwIP/src/core/pbuf.c ****   /* rem_len == desired length for pbuf q */
 435:Middlewares/Third_Party/LwIP/src/core/pbuf.c **** 
 436:Middlewares/Third_Party/LwIP/src/core/pbuf.c ****   /* shrink allocated memory for PBUF_RAM */
 437:Middlewares/Third_Party/LwIP/src/core/pbuf.c ****   /* (other types merely adjust their length fields */
 438:Middlewares/Third_Party/LwIP/src/core/pbuf.c ****   if (pbuf_match_allocsrc(q, PBUF_TYPE_ALLOC_SRC_MASK_STD_HEAP) && (rem_len != q->len)
 439:Middlewares/Third_Party/LwIP/src/core/pbuf.c **** #if LWIP_SUPPORT_CUSTOM_PBUF
 440:Middlewares/Third_Party/LwIP/src/core/pbuf.c ****       && ((q->flags & PBUF_FLAG_IS_CUSTOM) == 0)
 441:Middlewares/Third_Party/LwIP/src/core/pbuf.c **** #endif /* LWIP_SUPPORT_CUSTOM_PBUF */
 442:Middlewares/Third_Party/LwIP/src/core/pbuf.c ****      ) {
 443:Middlewares/Third_Party/LwIP/src/core/pbuf.c ****     /* reallocate and adjust the length of the pbuf that will be split */
 444:Middlewares/Third_Party/LwIP/src/core/pbuf.c ****     q = (struct pbuf *)mem_trim(q, (mem_size_t)(((u8_t *)q->payload - (u8_t *)q) + rem_len));
 445:Middlewares/Third_Party/LwIP/src/core/pbuf.c ****     LWIP_ASSERT("mem_trim returned q == NULL", q != NULL);
 446:Middlewares/Third_Party/LwIP/src/core/pbuf.c ****   }
 447:Middlewares/Third_Party/LwIP/src/core/pbuf.c ****   /* adjust length fields for new last pbuf */
 448:Middlewares/Third_Party/LwIP/src/core/pbuf.c ****   q->len = rem_len;
 449:Middlewares/Third_Party/LwIP/src/core/pbuf.c ****   q->tot_len = q->len;
 450:Middlewares/Third_Party/LwIP/src/core/pbuf.c **** 
 451:Middlewares/Third_Party/LwIP/src/core/pbuf.c ****   /* any remaining pbufs in chain? */
 452:Middlewares/Third_Party/LwIP/src/core/pbuf.c ****   if (q->next != NULL) {
 453:Middlewares/Third_Party/LwIP/src/core/pbuf.c ****     /* free remaining pbufs in chain */
 454:Middlewares/Third_Party/LwIP/src/core/pbuf.c ****     pbuf_free(q->next);
 455:Middlewares/Third_Party/LwIP/src/core/pbuf.c ****   }
ARM GAS  /var/folders/bg/n1lwdyp56391g865_v8nrmhm0000gn/T//cc4exhWb.s 			page 11


 456:Middlewares/Third_Party/LwIP/src/core/pbuf.c ****   /* q is last packet in chain */
 457:Middlewares/Third_Party/LwIP/src/core/pbuf.c ****   q->next = NULL;
 458:Middlewares/Third_Party/LwIP/src/core/pbuf.c **** 
 459:Middlewares/Third_Party/LwIP/src/core/pbuf.c **** }
 460:Middlewares/Third_Party/LwIP/src/core/pbuf.c **** 
 461:Middlewares/Third_Party/LwIP/src/core/pbuf.c **** /**
 462:Middlewares/Third_Party/LwIP/src/core/pbuf.c ****  * Adjusts the payload pointer to reveal headers in the payload.
 463:Middlewares/Third_Party/LwIP/src/core/pbuf.c ****  * @see pbuf_add_header.
 464:Middlewares/Third_Party/LwIP/src/core/pbuf.c ****  *
 465:Middlewares/Third_Party/LwIP/src/core/pbuf.c ****  * @param p pbuf to change the header size.
 466:Middlewares/Third_Party/LwIP/src/core/pbuf.c ****  * @param header_size_increment Number of bytes to increment header size.
 467:Middlewares/Third_Party/LwIP/src/core/pbuf.c ****  * @param force Allow 'header_size_increment > 0' for PBUF_REF/PBUF_ROM types
 468:Middlewares/Third_Party/LwIP/src/core/pbuf.c ****  *
 469:Middlewares/Third_Party/LwIP/src/core/pbuf.c ****  * @return non-zero on failure, zero on success.
 470:Middlewares/Third_Party/LwIP/src/core/pbuf.c ****  *
 471:Middlewares/Third_Party/LwIP/src/core/pbuf.c ****  */
 472:Middlewares/Third_Party/LwIP/src/core/pbuf.c **** static u8_t
 473:Middlewares/Third_Party/LwIP/src/core/pbuf.c **** pbuf_add_header_impl(struct pbuf *p, size_t header_size_increment, u8_t force)
 474:Middlewares/Third_Party/LwIP/src/core/pbuf.c **** {
 475:Middlewares/Third_Party/LwIP/src/core/pbuf.c ****   u16_t type_internal;
 476:Middlewares/Third_Party/LwIP/src/core/pbuf.c ****   void *payload;
 477:Middlewares/Third_Party/LwIP/src/core/pbuf.c ****   u16_t increment_magnitude;
 478:Middlewares/Third_Party/LwIP/src/core/pbuf.c **** 
 479:Middlewares/Third_Party/LwIP/src/core/pbuf.c ****   LWIP_ASSERT("p != NULL", p != NULL);
 480:Middlewares/Third_Party/LwIP/src/core/pbuf.c ****   if ((p == NULL) || (header_size_increment > 0xFFFF)) {
 481:Middlewares/Third_Party/LwIP/src/core/pbuf.c ****     return 1;
 482:Middlewares/Third_Party/LwIP/src/core/pbuf.c ****   }
 483:Middlewares/Third_Party/LwIP/src/core/pbuf.c ****   if (header_size_increment == 0) {
 484:Middlewares/Third_Party/LwIP/src/core/pbuf.c ****     return 0;
 485:Middlewares/Third_Party/LwIP/src/core/pbuf.c ****   }
 486:Middlewares/Third_Party/LwIP/src/core/pbuf.c **** 
 487:Middlewares/Third_Party/LwIP/src/core/pbuf.c ****   increment_magnitude = (u16_t)header_size_increment;
 488:Middlewares/Third_Party/LwIP/src/core/pbuf.c ****   /* Do not allow tot_len to wrap as a result. */
 489:Middlewares/Third_Party/LwIP/src/core/pbuf.c ****   if ((u16_t)(increment_magnitude + p->tot_len) < increment_magnitude) {
 490:Middlewares/Third_Party/LwIP/src/core/pbuf.c ****     return 1;
 491:Middlewares/Third_Party/LwIP/src/core/pbuf.c ****   }
 492:Middlewares/Third_Party/LwIP/src/core/pbuf.c **** 
 493:Middlewares/Third_Party/LwIP/src/core/pbuf.c ****   type_internal = p->type_internal;
 494:Middlewares/Third_Party/LwIP/src/core/pbuf.c **** 
 495:Middlewares/Third_Party/LwIP/src/core/pbuf.c ****   /* pbuf types containing payloads? */
 496:Middlewares/Third_Party/LwIP/src/core/pbuf.c ****   if (type_internal & PBUF_TYPE_FLAG_STRUCT_DATA_CONTIGUOUS) {
 497:Middlewares/Third_Party/LwIP/src/core/pbuf.c ****     /* set new payload pointer */
 498:Middlewares/Third_Party/LwIP/src/core/pbuf.c ****     payload = (u8_t *)p->payload - header_size_increment;
 499:Middlewares/Third_Party/LwIP/src/core/pbuf.c ****     /* boundary check fails? */
 500:Middlewares/Third_Party/LwIP/src/core/pbuf.c ****     if ((u8_t *)payload < (u8_t *)p + SIZEOF_STRUCT_PBUF) {
 501:Middlewares/Third_Party/LwIP/src/core/pbuf.c ****       LWIP_DEBUGF( PBUF_DEBUG | LWIP_DBG_TRACE,
 502:Middlewares/Third_Party/LwIP/src/core/pbuf.c ****                    ("pbuf_add_header: failed as %p < %p (not enough space for new header size)\n",
 503:Middlewares/Third_Party/LwIP/src/core/pbuf.c ****                     (void *)payload, (void *)((u8_t *)p + SIZEOF_STRUCT_PBUF)));
 504:Middlewares/Third_Party/LwIP/src/core/pbuf.c ****       /* bail out unsuccessfully */
 505:Middlewares/Third_Party/LwIP/src/core/pbuf.c ****       return 1;
 506:Middlewares/Third_Party/LwIP/src/core/pbuf.c ****     }
 507:Middlewares/Third_Party/LwIP/src/core/pbuf.c ****     /* pbuf types referring to external payloads? */
 508:Middlewares/Third_Party/LwIP/src/core/pbuf.c ****   } else {
 509:Middlewares/Third_Party/LwIP/src/core/pbuf.c ****     /* hide a header in the payload? */
 510:Middlewares/Third_Party/LwIP/src/core/pbuf.c ****     if (force) {
 511:Middlewares/Third_Party/LwIP/src/core/pbuf.c ****       payload = (u8_t *)p->payload - header_size_increment;
 512:Middlewares/Third_Party/LwIP/src/core/pbuf.c ****     } else {
ARM GAS  /var/folders/bg/n1lwdyp56391g865_v8nrmhm0000gn/T//cc4exhWb.s 			page 12


 513:Middlewares/Third_Party/LwIP/src/core/pbuf.c ****       /* cannot expand payload to front (yet!)
 514:Middlewares/Third_Party/LwIP/src/core/pbuf.c ****        * bail out unsuccessfully */
 515:Middlewares/Third_Party/LwIP/src/core/pbuf.c ****       return 1;
 516:Middlewares/Third_Party/LwIP/src/core/pbuf.c ****     }
 517:Middlewares/Third_Party/LwIP/src/core/pbuf.c ****   }
 518:Middlewares/Third_Party/LwIP/src/core/pbuf.c ****   LWIP_DEBUGF(PBUF_DEBUG | LWIP_DBG_TRACE, ("pbuf_add_header: old %p new %p (%"U16_F")\n",
 519:Middlewares/Third_Party/LwIP/src/core/pbuf.c ****               (void *)p->payload, (void *)payload, increment_magnitude));
 520:Middlewares/Third_Party/LwIP/src/core/pbuf.c **** 
 521:Middlewares/Third_Party/LwIP/src/core/pbuf.c ****   /* modify pbuf fields */
 522:Middlewares/Third_Party/LwIP/src/core/pbuf.c ****   p->payload = payload;
 523:Middlewares/Third_Party/LwIP/src/core/pbuf.c ****   p->len = (u16_t)(p->len + increment_magnitude);
 524:Middlewares/Third_Party/LwIP/src/core/pbuf.c ****   p->tot_len = (u16_t)(p->tot_len + increment_magnitude);
 525:Middlewares/Third_Party/LwIP/src/core/pbuf.c **** 
 526:Middlewares/Third_Party/LwIP/src/core/pbuf.c **** 
 527:Middlewares/Third_Party/LwIP/src/core/pbuf.c ****   return 0;
 528:Middlewares/Third_Party/LwIP/src/core/pbuf.c **** }
 529:Middlewares/Third_Party/LwIP/src/core/pbuf.c **** 
 530:Middlewares/Third_Party/LwIP/src/core/pbuf.c **** /**
 531:Middlewares/Third_Party/LwIP/src/core/pbuf.c ****  * Adjusts the payload pointer to reveal headers in the payload.
 532:Middlewares/Third_Party/LwIP/src/core/pbuf.c ****  *
 533:Middlewares/Third_Party/LwIP/src/core/pbuf.c ****  * Adjusts the ->payload pointer so that space for a header
 534:Middlewares/Third_Party/LwIP/src/core/pbuf.c ****  * appears in the pbuf payload.
 535:Middlewares/Third_Party/LwIP/src/core/pbuf.c ****  *
 536:Middlewares/Third_Party/LwIP/src/core/pbuf.c ****  * The ->payload, ->tot_len and ->len fields are adjusted.
 537:Middlewares/Third_Party/LwIP/src/core/pbuf.c ****  *
 538:Middlewares/Third_Party/LwIP/src/core/pbuf.c ****  * @param p pbuf to change the header size.
 539:Middlewares/Third_Party/LwIP/src/core/pbuf.c ****  * @param header_size_increment Number of bytes to increment header size which
 540:Middlewares/Third_Party/LwIP/src/core/pbuf.c ****  *          increases the size of the pbuf. New space is on the front.
 541:Middlewares/Third_Party/LwIP/src/core/pbuf.c ****  *          If header_size_increment is 0, this function does nothing and returns successful.
 542:Middlewares/Third_Party/LwIP/src/core/pbuf.c ****  *
 543:Middlewares/Third_Party/LwIP/src/core/pbuf.c ****  * PBUF_ROM and PBUF_REF type buffers cannot have their sizes increased, so
 544:Middlewares/Third_Party/LwIP/src/core/pbuf.c ****  * the call will fail. A check is made that the increase in header size does
 545:Middlewares/Third_Party/LwIP/src/core/pbuf.c ****  * not move the payload pointer in front of the start of the buffer.
 546:Middlewares/Third_Party/LwIP/src/core/pbuf.c ****  *
 547:Middlewares/Third_Party/LwIP/src/core/pbuf.c ****  * @return non-zero on failure, zero on success.
 548:Middlewares/Third_Party/LwIP/src/core/pbuf.c ****  *
 549:Middlewares/Third_Party/LwIP/src/core/pbuf.c ****  */
 550:Middlewares/Third_Party/LwIP/src/core/pbuf.c **** u8_t
 551:Middlewares/Third_Party/LwIP/src/core/pbuf.c **** pbuf_add_header(struct pbuf *p, size_t header_size_increment)
 552:Middlewares/Third_Party/LwIP/src/core/pbuf.c **** {
 553:Middlewares/Third_Party/LwIP/src/core/pbuf.c ****   return pbuf_add_header_impl(p, header_size_increment, 0);
 554:Middlewares/Third_Party/LwIP/src/core/pbuf.c **** }
 555:Middlewares/Third_Party/LwIP/src/core/pbuf.c **** 
 556:Middlewares/Third_Party/LwIP/src/core/pbuf.c **** /**
 557:Middlewares/Third_Party/LwIP/src/core/pbuf.c ****  * Same as @ref pbuf_add_header but does not check if 'header_size > 0' is allowed.
 558:Middlewares/Third_Party/LwIP/src/core/pbuf.c ****  * This is used internally only, to allow PBUF_REF for RX.
 559:Middlewares/Third_Party/LwIP/src/core/pbuf.c ****  */
 560:Middlewares/Third_Party/LwIP/src/core/pbuf.c **** u8_t
 561:Middlewares/Third_Party/LwIP/src/core/pbuf.c **** pbuf_add_header_force(struct pbuf *p, size_t header_size_increment)
 562:Middlewares/Third_Party/LwIP/src/core/pbuf.c **** {
 563:Middlewares/Third_Party/LwIP/src/core/pbuf.c ****   return pbuf_add_header_impl(p, header_size_increment, 1);
 564:Middlewares/Third_Party/LwIP/src/core/pbuf.c **** }
 565:Middlewares/Third_Party/LwIP/src/core/pbuf.c **** 
 566:Middlewares/Third_Party/LwIP/src/core/pbuf.c **** /**
 567:Middlewares/Third_Party/LwIP/src/core/pbuf.c ****  * Adjusts the payload pointer to hide headers in the payload.
 568:Middlewares/Third_Party/LwIP/src/core/pbuf.c ****  *
 569:Middlewares/Third_Party/LwIP/src/core/pbuf.c ****  * Adjusts the ->payload pointer so that space for a header
ARM GAS  /var/folders/bg/n1lwdyp56391g865_v8nrmhm0000gn/T//cc4exhWb.s 			page 13


 570:Middlewares/Third_Party/LwIP/src/core/pbuf.c ****  * disappears in the pbuf payload.
 571:Middlewares/Third_Party/LwIP/src/core/pbuf.c ****  *
 572:Middlewares/Third_Party/LwIP/src/core/pbuf.c ****  * The ->payload, ->tot_len and ->len fields are adjusted.
 573:Middlewares/Third_Party/LwIP/src/core/pbuf.c ****  *
 574:Middlewares/Third_Party/LwIP/src/core/pbuf.c ****  * @param p pbuf to change the header size.
 575:Middlewares/Third_Party/LwIP/src/core/pbuf.c ****  * @param header_size_decrement Number of bytes to decrement header size which
 576:Middlewares/Third_Party/LwIP/src/core/pbuf.c ****  *          decreases the size of the pbuf.
 577:Middlewares/Third_Party/LwIP/src/core/pbuf.c ****  *          If header_size_decrement is 0, this function does nothing and returns successful.
 578:Middlewares/Third_Party/LwIP/src/core/pbuf.c ****  * @return non-zero on failure, zero on success.
 579:Middlewares/Third_Party/LwIP/src/core/pbuf.c ****  *
 580:Middlewares/Third_Party/LwIP/src/core/pbuf.c ****  */
 581:Middlewares/Third_Party/LwIP/src/core/pbuf.c **** u8_t
 582:Middlewares/Third_Party/LwIP/src/core/pbuf.c **** pbuf_remove_header(struct pbuf *p, size_t header_size_decrement)
 583:Middlewares/Third_Party/LwIP/src/core/pbuf.c **** {
 584:Middlewares/Third_Party/LwIP/src/core/pbuf.c ****   void *payload;
 585:Middlewares/Third_Party/LwIP/src/core/pbuf.c ****   u16_t increment_magnitude;
 586:Middlewares/Third_Party/LwIP/src/core/pbuf.c **** 
 587:Middlewares/Third_Party/LwIP/src/core/pbuf.c ****   LWIP_ASSERT("p != NULL", p != NULL);
 588:Middlewares/Third_Party/LwIP/src/core/pbuf.c ****   if ((p == NULL) || (header_size_decrement > 0xFFFF)) {
 589:Middlewares/Third_Party/LwIP/src/core/pbuf.c ****     return 1;
 590:Middlewares/Third_Party/LwIP/src/core/pbuf.c ****   }
 591:Middlewares/Third_Party/LwIP/src/core/pbuf.c ****   if (header_size_decrement == 0) {
 592:Middlewares/Third_Party/LwIP/src/core/pbuf.c ****     return 0;
 593:Middlewares/Third_Party/LwIP/src/core/pbuf.c ****   }
 594:Middlewares/Third_Party/LwIP/src/core/pbuf.c **** 
 595:Middlewares/Third_Party/LwIP/src/core/pbuf.c ****   increment_magnitude = (u16_t)header_size_decrement;
 596:Middlewares/Third_Party/LwIP/src/core/pbuf.c ****   /* Check that we aren't going to move off the end of the pbuf */
 597:Middlewares/Third_Party/LwIP/src/core/pbuf.c ****   LWIP_ERROR("increment_magnitude <= p->len", (increment_magnitude <= p->len), return 1;);
 598:Middlewares/Third_Party/LwIP/src/core/pbuf.c **** 
 599:Middlewares/Third_Party/LwIP/src/core/pbuf.c ****   /* remember current payload pointer */
 600:Middlewares/Third_Party/LwIP/src/core/pbuf.c ****   payload = p->payload;
 601:Middlewares/Third_Party/LwIP/src/core/pbuf.c ****   LWIP_UNUSED_ARG(payload); /* only used in LWIP_DEBUGF below */
 602:Middlewares/Third_Party/LwIP/src/core/pbuf.c **** 
 603:Middlewares/Third_Party/LwIP/src/core/pbuf.c ****   /* increase payload pointer (guarded by length check above) */
 604:Middlewares/Third_Party/LwIP/src/core/pbuf.c ****   p->payload = (u8_t *)p->payload + header_size_decrement;
 605:Middlewares/Third_Party/LwIP/src/core/pbuf.c ****   /* modify pbuf length fields */
 606:Middlewares/Third_Party/LwIP/src/core/pbuf.c ****   p->len = (u16_t)(p->len - increment_magnitude);
 607:Middlewares/Third_Party/LwIP/src/core/pbuf.c ****   p->tot_len = (u16_t)(p->tot_len - increment_magnitude);
 608:Middlewares/Third_Party/LwIP/src/core/pbuf.c **** 
 609:Middlewares/Third_Party/LwIP/src/core/pbuf.c ****   LWIP_DEBUGF(PBUF_DEBUG | LWIP_DBG_TRACE, ("pbuf_remove_header: old %p new %p (%"U16_F")\n",
 610:Middlewares/Third_Party/LwIP/src/core/pbuf.c ****               (void *)payload, (void *)p->payload, increment_magnitude));
 611:Middlewares/Third_Party/LwIP/src/core/pbuf.c **** 
 612:Middlewares/Third_Party/LwIP/src/core/pbuf.c ****   return 0;
 613:Middlewares/Third_Party/LwIP/src/core/pbuf.c **** }
 614:Middlewares/Third_Party/LwIP/src/core/pbuf.c **** 
 615:Middlewares/Third_Party/LwIP/src/core/pbuf.c **** static u8_t
 616:Middlewares/Third_Party/LwIP/src/core/pbuf.c **** pbuf_header_impl(struct pbuf *p, s16_t header_size_increment, u8_t force)
 617:Middlewares/Third_Party/LwIP/src/core/pbuf.c **** {
 618:Middlewares/Third_Party/LwIP/src/core/pbuf.c ****   if (header_size_increment < 0) {
 619:Middlewares/Third_Party/LwIP/src/core/pbuf.c ****     return pbuf_remove_header(p, (size_t) - header_size_increment);
 620:Middlewares/Third_Party/LwIP/src/core/pbuf.c ****   } else {
 621:Middlewares/Third_Party/LwIP/src/core/pbuf.c ****     return pbuf_add_header_impl(p, (size_t)header_size_increment, force);
 622:Middlewares/Third_Party/LwIP/src/core/pbuf.c ****   }
 623:Middlewares/Third_Party/LwIP/src/core/pbuf.c **** }
 624:Middlewares/Third_Party/LwIP/src/core/pbuf.c **** 
 625:Middlewares/Third_Party/LwIP/src/core/pbuf.c **** /**
 626:Middlewares/Third_Party/LwIP/src/core/pbuf.c ****  * Adjusts the payload pointer to hide or reveal headers in the payload.
ARM GAS  /var/folders/bg/n1lwdyp56391g865_v8nrmhm0000gn/T//cc4exhWb.s 			page 14


 627:Middlewares/Third_Party/LwIP/src/core/pbuf.c ****  *
 628:Middlewares/Third_Party/LwIP/src/core/pbuf.c ****  * Adjusts the ->payload pointer so that space for a header
 629:Middlewares/Third_Party/LwIP/src/core/pbuf.c ****  * (dis)appears in the pbuf payload.
 630:Middlewares/Third_Party/LwIP/src/core/pbuf.c ****  *
 631:Middlewares/Third_Party/LwIP/src/core/pbuf.c ****  * The ->payload, ->tot_len and ->len fields are adjusted.
 632:Middlewares/Third_Party/LwIP/src/core/pbuf.c ****  *
 633:Middlewares/Third_Party/LwIP/src/core/pbuf.c ****  * @param p pbuf to change the header size.
 634:Middlewares/Third_Party/LwIP/src/core/pbuf.c ****  * @param header_size_increment Number of bytes to increment header size which
 635:Middlewares/Third_Party/LwIP/src/core/pbuf.c ****  * increases the size of the pbuf. New space is on the front.
 636:Middlewares/Third_Party/LwIP/src/core/pbuf.c ****  * (Using a negative value decreases the header size.)
 637:Middlewares/Third_Party/LwIP/src/core/pbuf.c ****  * If header_size_increment is 0, this function does nothing and returns successful.
 638:Middlewares/Third_Party/LwIP/src/core/pbuf.c ****  *
 639:Middlewares/Third_Party/LwIP/src/core/pbuf.c ****  * PBUF_ROM and PBUF_REF type buffers cannot have their sizes increased, so
 640:Middlewares/Third_Party/LwIP/src/core/pbuf.c ****  * the call will fail. A check is made that the increase in header size does
 641:Middlewares/Third_Party/LwIP/src/core/pbuf.c ****  * not move the payload pointer in front of the start of the buffer.
 642:Middlewares/Third_Party/LwIP/src/core/pbuf.c ****  * @return non-zero on failure, zero on success.
 643:Middlewares/Third_Party/LwIP/src/core/pbuf.c ****  *
 644:Middlewares/Third_Party/LwIP/src/core/pbuf.c ****  */
 645:Middlewares/Third_Party/LwIP/src/core/pbuf.c **** u8_t
 646:Middlewares/Third_Party/LwIP/src/core/pbuf.c **** pbuf_header(struct pbuf *p, s16_t header_size_increment)
 647:Middlewares/Third_Party/LwIP/src/core/pbuf.c **** {
 648:Middlewares/Third_Party/LwIP/src/core/pbuf.c ****   return pbuf_header_impl(p, header_size_increment, 0);
 649:Middlewares/Third_Party/LwIP/src/core/pbuf.c **** }
 650:Middlewares/Third_Party/LwIP/src/core/pbuf.c **** 
 651:Middlewares/Third_Party/LwIP/src/core/pbuf.c **** /**
 652:Middlewares/Third_Party/LwIP/src/core/pbuf.c ****  * Same as pbuf_header but does not check if 'header_size > 0' is allowed.
 653:Middlewares/Third_Party/LwIP/src/core/pbuf.c ****  * This is used internally only, to allow PBUF_REF for RX.
 654:Middlewares/Third_Party/LwIP/src/core/pbuf.c ****  */
 655:Middlewares/Third_Party/LwIP/src/core/pbuf.c **** u8_t
 656:Middlewares/Third_Party/LwIP/src/core/pbuf.c **** pbuf_header_force(struct pbuf *p, s16_t header_size_increment)
 657:Middlewares/Third_Party/LwIP/src/core/pbuf.c **** {
 658:Middlewares/Third_Party/LwIP/src/core/pbuf.c ****   return pbuf_header_impl(p, header_size_increment, 1);
 659:Middlewares/Third_Party/LwIP/src/core/pbuf.c **** }
 660:Middlewares/Third_Party/LwIP/src/core/pbuf.c **** 
 661:Middlewares/Third_Party/LwIP/src/core/pbuf.c **** /** Similar to pbuf_header(-size) but de-refs header pbufs for (size >= p->len)
 662:Middlewares/Third_Party/LwIP/src/core/pbuf.c ****  *
 663:Middlewares/Third_Party/LwIP/src/core/pbuf.c ****  * @param q pbufs to operate on
 664:Middlewares/Third_Party/LwIP/src/core/pbuf.c ****  * @param size The number of bytes to remove from the beginning of the pbuf list.
 665:Middlewares/Third_Party/LwIP/src/core/pbuf.c ****  *             While size >= p->len, pbufs are freed.
 666:Middlewares/Third_Party/LwIP/src/core/pbuf.c ****  *        ATTENTION: this is the opposite direction as @ref pbuf_header, but
 667:Middlewares/Third_Party/LwIP/src/core/pbuf.c ****  *                   takes an u16_t not s16_t!
 668:Middlewares/Third_Party/LwIP/src/core/pbuf.c ****  * @return the new head pbuf
 669:Middlewares/Third_Party/LwIP/src/core/pbuf.c ****  */
 670:Middlewares/Third_Party/LwIP/src/core/pbuf.c **** struct pbuf *
 671:Middlewares/Third_Party/LwIP/src/core/pbuf.c **** pbuf_free_header(struct pbuf *q, u16_t size)
 672:Middlewares/Third_Party/LwIP/src/core/pbuf.c **** {
 673:Middlewares/Third_Party/LwIP/src/core/pbuf.c ****   struct pbuf *p = q;
 674:Middlewares/Third_Party/LwIP/src/core/pbuf.c ****   u16_t free_left = size;
 675:Middlewares/Third_Party/LwIP/src/core/pbuf.c ****   while (free_left && p) {
 676:Middlewares/Third_Party/LwIP/src/core/pbuf.c ****     if (free_left >= p->len) {
 677:Middlewares/Third_Party/LwIP/src/core/pbuf.c ****       struct pbuf *f = p;
 678:Middlewares/Third_Party/LwIP/src/core/pbuf.c ****       free_left = (u16_t)(free_left - p->len);
 679:Middlewares/Third_Party/LwIP/src/core/pbuf.c ****       p = p->next;
 680:Middlewares/Third_Party/LwIP/src/core/pbuf.c ****       f->next = 0;
 681:Middlewares/Third_Party/LwIP/src/core/pbuf.c ****       pbuf_free(f);
 682:Middlewares/Third_Party/LwIP/src/core/pbuf.c ****     } else {
 683:Middlewares/Third_Party/LwIP/src/core/pbuf.c ****       pbuf_remove_header(p, free_left);
ARM GAS  /var/folders/bg/n1lwdyp56391g865_v8nrmhm0000gn/T//cc4exhWb.s 			page 15


 684:Middlewares/Third_Party/LwIP/src/core/pbuf.c ****       free_left = 0;
 685:Middlewares/Third_Party/LwIP/src/core/pbuf.c ****     }
 686:Middlewares/Third_Party/LwIP/src/core/pbuf.c ****   }
 687:Middlewares/Third_Party/LwIP/src/core/pbuf.c ****   return p;
 688:Middlewares/Third_Party/LwIP/src/core/pbuf.c **** }
 689:Middlewares/Third_Party/LwIP/src/core/pbuf.c **** 
 690:Middlewares/Third_Party/LwIP/src/core/pbuf.c **** /**
 691:Middlewares/Third_Party/LwIP/src/core/pbuf.c ****  * @ingroup pbuf
 692:Middlewares/Third_Party/LwIP/src/core/pbuf.c ****  * Dereference a pbuf chain or queue and deallocate any no-longer-used
 693:Middlewares/Third_Party/LwIP/src/core/pbuf.c ****  * pbufs at the head of this chain or queue.
 694:Middlewares/Third_Party/LwIP/src/core/pbuf.c ****  *
 695:Middlewares/Third_Party/LwIP/src/core/pbuf.c ****  * Decrements the pbuf reference count. If it reaches zero, the pbuf is
 696:Middlewares/Third_Party/LwIP/src/core/pbuf.c ****  * deallocated.
 697:Middlewares/Third_Party/LwIP/src/core/pbuf.c ****  *
 698:Middlewares/Third_Party/LwIP/src/core/pbuf.c ****  * For a pbuf chain, this is repeated for each pbuf in the chain,
 699:Middlewares/Third_Party/LwIP/src/core/pbuf.c ****  * up to the first pbuf which has a non-zero reference count after
 700:Middlewares/Third_Party/LwIP/src/core/pbuf.c ****  * decrementing. So, when all reference counts are one, the whole
 701:Middlewares/Third_Party/LwIP/src/core/pbuf.c ****  * chain is free'd.
 702:Middlewares/Third_Party/LwIP/src/core/pbuf.c ****  *
 703:Middlewares/Third_Party/LwIP/src/core/pbuf.c ****  * @param p The pbuf (chain) to be dereferenced.
 704:Middlewares/Third_Party/LwIP/src/core/pbuf.c ****  *
 705:Middlewares/Third_Party/LwIP/src/core/pbuf.c ****  * @return the number of pbufs that were de-allocated
 706:Middlewares/Third_Party/LwIP/src/core/pbuf.c ****  * from the head of the chain.
 707:Middlewares/Third_Party/LwIP/src/core/pbuf.c ****  *
 708:Middlewares/Third_Party/LwIP/src/core/pbuf.c ****  * @note MUST NOT be called on a packet queue (Not verified to work yet).
 709:Middlewares/Third_Party/LwIP/src/core/pbuf.c ****  * @note the reference counter of a pbuf equals the number of pointers
 710:Middlewares/Third_Party/LwIP/src/core/pbuf.c ****  * that refer to the pbuf (or into the pbuf).
 711:Middlewares/Third_Party/LwIP/src/core/pbuf.c ****  *
 712:Middlewares/Third_Party/LwIP/src/core/pbuf.c ****  * @internal examples:
 713:Middlewares/Third_Party/LwIP/src/core/pbuf.c ****  *
 714:Middlewares/Third_Party/LwIP/src/core/pbuf.c ****  * Assuming existing chains a->b->c with the following reference
 715:Middlewares/Third_Party/LwIP/src/core/pbuf.c ****  * counts, calling pbuf_free(a) results in:
 716:Middlewares/Third_Party/LwIP/src/core/pbuf.c ****  *
 717:Middlewares/Third_Party/LwIP/src/core/pbuf.c ****  * 1->2->3 becomes ...1->3
 718:Middlewares/Third_Party/LwIP/src/core/pbuf.c ****  * 3->3->3 becomes 2->3->3
 719:Middlewares/Third_Party/LwIP/src/core/pbuf.c ****  * 1->1->2 becomes ......1
 720:Middlewares/Third_Party/LwIP/src/core/pbuf.c ****  * 2->1->1 becomes 1->1->1
 721:Middlewares/Third_Party/LwIP/src/core/pbuf.c ****  * 1->1->1 becomes .......
 722:Middlewares/Third_Party/LwIP/src/core/pbuf.c ****  *
 723:Middlewares/Third_Party/LwIP/src/core/pbuf.c ****  */
 724:Middlewares/Third_Party/LwIP/src/core/pbuf.c **** u8_t
 725:Middlewares/Third_Party/LwIP/src/core/pbuf.c **** pbuf_free(struct pbuf *p)
 726:Middlewares/Third_Party/LwIP/src/core/pbuf.c **** {
 727:Middlewares/Third_Party/LwIP/src/core/pbuf.c ****   u8_t alloc_src;
 728:Middlewares/Third_Party/LwIP/src/core/pbuf.c ****   struct pbuf *q;
 729:Middlewares/Third_Party/LwIP/src/core/pbuf.c ****   u8_t count;
 730:Middlewares/Third_Party/LwIP/src/core/pbuf.c **** 
 731:Middlewares/Third_Party/LwIP/src/core/pbuf.c ****   if (p == NULL) {
 732:Middlewares/Third_Party/LwIP/src/core/pbuf.c ****     LWIP_ASSERT("p != NULL", p != NULL);
 733:Middlewares/Third_Party/LwIP/src/core/pbuf.c ****     /* if assertions are disabled, proceed with debug output */
 734:Middlewares/Third_Party/LwIP/src/core/pbuf.c ****     LWIP_DEBUGF(PBUF_DEBUG | LWIP_DBG_LEVEL_SERIOUS,
 735:Middlewares/Third_Party/LwIP/src/core/pbuf.c ****                 ("pbuf_free(p == NULL) was called.\n"));
 736:Middlewares/Third_Party/LwIP/src/core/pbuf.c ****     return 0;
 737:Middlewares/Third_Party/LwIP/src/core/pbuf.c ****   }
 738:Middlewares/Third_Party/LwIP/src/core/pbuf.c ****   LWIP_DEBUGF(PBUF_DEBUG | LWIP_DBG_TRACE, ("pbuf_free(%p)\n", (void *)p));
 739:Middlewares/Third_Party/LwIP/src/core/pbuf.c **** 
 740:Middlewares/Third_Party/LwIP/src/core/pbuf.c ****   PERF_START;
ARM GAS  /var/folders/bg/n1lwdyp56391g865_v8nrmhm0000gn/T//cc4exhWb.s 			page 16


 741:Middlewares/Third_Party/LwIP/src/core/pbuf.c **** 
 742:Middlewares/Third_Party/LwIP/src/core/pbuf.c ****   count = 0;
 743:Middlewares/Third_Party/LwIP/src/core/pbuf.c ****   /* de-allocate all consecutive pbufs from the head of the chain that
 744:Middlewares/Third_Party/LwIP/src/core/pbuf.c ****    * obtain a zero reference count after decrementing*/
 745:Middlewares/Third_Party/LwIP/src/core/pbuf.c ****   while (p != NULL) {
 746:Middlewares/Third_Party/LwIP/src/core/pbuf.c ****     LWIP_PBUF_REF_T ref;
 747:Middlewares/Third_Party/LwIP/src/core/pbuf.c ****     SYS_ARCH_DECL_PROTECT(old_level);
 748:Middlewares/Third_Party/LwIP/src/core/pbuf.c ****     /* Since decrementing ref cannot be guaranteed to be a single machine operation
 749:Middlewares/Third_Party/LwIP/src/core/pbuf.c ****      * we must protect it. We put the new ref into a local variable to prevent
 750:Middlewares/Third_Party/LwIP/src/core/pbuf.c ****      * further protection. */
 751:Middlewares/Third_Party/LwIP/src/core/pbuf.c ****     SYS_ARCH_PROTECT(old_level);
 752:Middlewares/Third_Party/LwIP/src/core/pbuf.c ****     /* all pbufs in a chain are referenced at least once */
 753:Middlewares/Third_Party/LwIP/src/core/pbuf.c ****     LWIP_ASSERT("pbuf_free: p->ref > 0", p->ref > 0);
 754:Middlewares/Third_Party/LwIP/src/core/pbuf.c ****     /* decrease reference count (number of pointers to pbuf) */
 755:Middlewares/Third_Party/LwIP/src/core/pbuf.c ****     ref = --(p->ref);
 756:Middlewares/Third_Party/LwIP/src/core/pbuf.c ****     SYS_ARCH_UNPROTECT(old_level);
 757:Middlewares/Third_Party/LwIP/src/core/pbuf.c ****     /* this pbuf is no longer referenced to? */
 758:Middlewares/Third_Party/LwIP/src/core/pbuf.c ****     if (ref == 0) {
 759:Middlewares/Third_Party/LwIP/src/core/pbuf.c ****       /* remember next pbuf in chain for next iteration */
 760:Middlewares/Third_Party/LwIP/src/core/pbuf.c ****       q = p->next;
 761:Middlewares/Third_Party/LwIP/src/core/pbuf.c ****       LWIP_DEBUGF( PBUF_DEBUG | LWIP_DBG_TRACE, ("pbuf_free: deallocating %p\n", (void *)p));
 762:Middlewares/Third_Party/LwIP/src/core/pbuf.c ****       alloc_src = pbuf_get_allocsrc(p);
 763:Middlewares/Third_Party/LwIP/src/core/pbuf.c **** #if LWIP_SUPPORT_CUSTOM_PBUF
 764:Middlewares/Third_Party/LwIP/src/core/pbuf.c ****       /* is this a custom pbuf? */
 765:Middlewares/Third_Party/LwIP/src/core/pbuf.c ****       if ((p->flags & PBUF_FLAG_IS_CUSTOM) != 0) {
 766:Middlewares/Third_Party/LwIP/src/core/pbuf.c ****         struct pbuf_custom *pc = (struct pbuf_custom *)p;
 767:Middlewares/Third_Party/LwIP/src/core/pbuf.c ****         LWIP_ASSERT("pc->custom_free_function != NULL", pc->custom_free_function != NULL);
 768:Middlewares/Third_Party/LwIP/src/core/pbuf.c ****         pc->custom_free_function(p);
 769:Middlewares/Third_Party/LwIP/src/core/pbuf.c ****       } else
 770:Middlewares/Third_Party/LwIP/src/core/pbuf.c **** #endif /* LWIP_SUPPORT_CUSTOM_PBUF */
 771:Middlewares/Third_Party/LwIP/src/core/pbuf.c ****       {
 772:Middlewares/Third_Party/LwIP/src/core/pbuf.c ****         /* is this a pbuf from the pool? */
 773:Middlewares/Third_Party/LwIP/src/core/pbuf.c ****         if (alloc_src == PBUF_TYPE_ALLOC_SRC_MASK_STD_MEMP_PBUF_POOL) {
 774:Middlewares/Third_Party/LwIP/src/core/pbuf.c ****           memp_free(MEMP_PBUF_POOL, p);
 775:Middlewares/Third_Party/LwIP/src/core/pbuf.c ****           /* is this a ROM or RAM referencing pbuf? */
 776:Middlewares/Third_Party/LwIP/src/core/pbuf.c ****         } else if (alloc_src == PBUF_TYPE_ALLOC_SRC_MASK_STD_MEMP_PBUF) {
 777:Middlewares/Third_Party/LwIP/src/core/pbuf.c ****           memp_free(MEMP_PBUF, p);
 778:Middlewares/Third_Party/LwIP/src/core/pbuf.c ****           /* type == PBUF_RAM */
 779:Middlewares/Third_Party/LwIP/src/core/pbuf.c ****         } else if (alloc_src == PBUF_TYPE_ALLOC_SRC_MASK_STD_HEAP) {
 780:Middlewares/Third_Party/LwIP/src/core/pbuf.c ****           mem_free(p);
 781:Middlewares/Third_Party/LwIP/src/core/pbuf.c ****         } else {
 782:Middlewares/Third_Party/LwIP/src/core/pbuf.c ****           /* @todo: support freeing other types */
 783:Middlewares/Third_Party/LwIP/src/core/pbuf.c ****           LWIP_ASSERT("invalid pbuf type", 0);
 784:Middlewares/Third_Party/LwIP/src/core/pbuf.c ****         }
 785:Middlewares/Third_Party/LwIP/src/core/pbuf.c ****       }
 786:Middlewares/Third_Party/LwIP/src/core/pbuf.c ****       count++;
 787:Middlewares/Third_Party/LwIP/src/core/pbuf.c ****       /* proceed to next pbuf */
 788:Middlewares/Third_Party/LwIP/src/core/pbuf.c ****       p = q;
 789:Middlewares/Third_Party/LwIP/src/core/pbuf.c ****       /* p->ref > 0, this pbuf is still referenced to */
 790:Middlewares/Third_Party/LwIP/src/core/pbuf.c ****       /* (and so the remaining pbufs in chain as well) */
 791:Middlewares/Third_Party/LwIP/src/core/pbuf.c ****     } else {
 792:Middlewares/Third_Party/LwIP/src/core/pbuf.c ****       LWIP_DEBUGF( PBUF_DEBUG | LWIP_DBG_TRACE, ("pbuf_free: %p has ref %"U16_F", ending here.\n", 
 793:Middlewares/Third_Party/LwIP/src/core/pbuf.c ****       /* stop walking through the chain */
 794:Middlewares/Third_Party/LwIP/src/core/pbuf.c ****       p = NULL;
 795:Middlewares/Third_Party/LwIP/src/core/pbuf.c ****     }
 796:Middlewares/Third_Party/LwIP/src/core/pbuf.c ****   }
 797:Middlewares/Third_Party/LwIP/src/core/pbuf.c ****   PERF_STOP("pbuf_free");
ARM GAS  /var/folders/bg/n1lwdyp56391g865_v8nrmhm0000gn/T//cc4exhWb.s 			page 17


 798:Middlewares/Third_Party/LwIP/src/core/pbuf.c ****   /* return number of de-allocated pbufs */
 799:Middlewares/Third_Party/LwIP/src/core/pbuf.c ****   return count;
 800:Middlewares/Third_Party/LwIP/src/core/pbuf.c **** }
 801:Middlewares/Third_Party/LwIP/src/core/pbuf.c **** 
 802:Middlewares/Third_Party/LwIP/src/core/pbuf.c **** /**
 803:Middlewares/Third_Party/LwIP/src/core/pbuf.c ****  * Count number of pbufs in a chain
 804:Middlewares/Third_Party/LwIP/src/core/pbuf.c ****  *
 805:Middlewares/Third_Party/LwIP/src/core/pbuf.c ****  * @param p first pbuf of chain
 806:Middlewares/Third_Party/LwIP/src/core/pbuf.c ****  * @return the number of pbufs in a chain
 807:Middlewares/Third_Party/LwIP/src/core/pbuf.c ****  */
 808:Middlewares/Third_Party/LwIP/src/core/pbuf.c **** u16_t
 809:Middlewares/Third_Party/LwIP/src/core/pbuf.c **** pbuf_clen(const struct pbuf *p)
 810:Middlewares/Third_Party/LwIP/src/core/pbuf.c **** {
 811:Middlewares/Third_Party/LwIP/src/core/pbuf.c ****   u16_t len;
 812:Middlewares/Third_Party/LwIP/src/core/pbuf.c **** 
 813:Middlewares/Third_Party/LwIP/src/core/pbuf.c ****   len = 0;
 814:Middlewares/Third_Party/LwIP/src/core/pbuf.c ****   while (p != NULL) {
 815:Middlewares/Third_Party/LwIP/src/core/pbuf.c ****     ++len;
 816:Middlewares/Third_Party/LwIP/src/core/pbuf.c ****     p = p->next;
 817:Middlewares/Third_Party/LwIP/src/core/pbuf.c ****   }
 818:Middlewares/Third_Party/LwIP/src/core/pbuf.c ****   return len;
 819:Middlewares/Third_Party/LwIP/src/core/pbuf.c **** }
 820:Middlewares/Third_Party/LwIP/src/core/pbuf.c **** 
 821:Middlewares/Third_Party/LwIP/src/core/pbuf.c **** /**
 822:Middlewares/Third_Party/LwIP/src/core/pbuf.c ****  * @ingroup pbuf
 823:Middlewares/Third_Party/LwIP/src/core/pbuf.c ****  * Increment the reference count of the pbuf.
 824:Middlewares/Third_Party/LwIP/src/core/pbuf.c ****  *
 825:Middlewares/Third_Party/LwIP/src/core/pbuf.c ****  * @param p pbuf to increase reference counter of
 826:Middlewares/Third_Party/LwIP/src/core/pbuf.c ****  *
 827:Middlewares/Third_Party/LwIP/src/core/pbuf.c ****  */
 828:Middlewares/Third_Party/LwIP/src/core/pbuf.c **** void
 829:Middlewares/Third_Party/LwIP/src/core/pbuf.c **** pbuf_ref(struct pbuf *p)
 830:Middlewares/Third_Party/LwIP/src/core/pbuf.c **** {
 831:Middlewares/Third_Party/LwIP/src/core/pbuf.c ****   /* pbuf given? */
 832:Middlewares/Third_Party/LwIP/src/core/pbuf.c ****   if (p != NULL) {
 833:Middlewares/Third_Party/LwIP/src/core/pbuf.c ****     SYS_ARCH_SET(p->ref, (LWIP_PBUF_REF_T)(p->ref + 1));
 834:Middlewares/Third_Party/LwIP/src/core/pbuf.c ****     LWIP_ASSERT("pbuf ref overflow", p->ref > 0);
 835:Middlewares/Third_Party/LwIP/src/core/pbuf.c ****   }
 836:Middlewares/Third_Party/LwIP/src/core/pbuf.c **** }
 837:Middlewares/Third_Party/LwIP/src/core/pbuf.c **** 
 838:Middlewares/Third_Party/LwIP/src/core/pbuf.c **** /**
 839:Middlewares/Third_Party/LwIP/src/core/pbuf.c ****  * @ingroup pbuf
 840:Middlewares/Third_Party/LwIP/src/core/pbuf.c ****  * Concatenate two pbufs (each may be a pbuf chain) and take over
 841:Middlewares/Third_Party/LwIP/src/core/pbuf.c ****  * the caller's reference of the tail pbuf.
 842:Middlewares/Third_Party/LwIP/src/core/pbuf.c ****  *
 843:Middlewares/Third_Party/LwIP/src/core/pbuf.c ****  * @note The caller MAY NOT reference the tail pbuf afterwards.
 844:Middlewares/Third_Party/LwIP/src/core/pbuf.c ****  * Use pbuf_chain() for that purpose.
 845:Middlewares/Third_Party/LwIP/src/core/pbuf.c ****  *
 846:Middlewares/Third_Party/LwIP/src/core/pbuf.c ****  * This function explicitly does not check for tot_len overflow to prevent
 847:Middlewares/Third_Party/LwIP/src/core/pbuf.c ****  * failing to queue too long pbufs. This can produce invalid pbufs, so
 848:Middlewares/Third_Party/LwIP/src/core/pbuf.c ****  * handle with care!
 849:Middlewares/Third_Party/LwIP/src/core/pbuf.c ****  *
 850:Middlewares/Third_Party/LwIP/src/core/pbuf.c ****  * @see pbuf_chain()
 851:Middlewares/Third_Party/LwIP/src/core/pbuf.c ****  */
 852:Middlewares/Third_Party/LwIP/src/core/pbuf.c **** void
 853:Middlewares/Third_Party/LwIP/src/core/pbuf.c **** pbuf_cat(struct pbuf *h, struct pbuf *t)
 854:Middlewares/Third_Party/LwIP/src/core/pbuf.c **** {
ARM GAS  /var/folders/bg/n1lwdyp56391g865_v8nrmhm0000gn/T//cc4exhWb.s 			page 18


 855:Middlewares/Third_Party/LwIP/src/core/pbuf.c ****   struct pbuf *p;
 856:Middlewares/Third_Party/LwIP/src/core/pbuf.c **** 
 857:Middlewares/Third_Party/LwIP/src/core/pbuf.c ****   LWIP_ERROR("(h != NULL) && (t != NULL) (programmer violates API)",
 858:Middlewares/Third_Party/LwIP/src/core/pbuf.c ****              ((h != NULL) && (t != NULL)), return;);
 859:Middlewares/Third_Party/LwIP/src/core/pbuf.c **** 
 860:Middlewares/Third_Party/LwIP/src/core/pbuf.c ****   /* proceed to last pbuf of chain */
 861:Middlewares/Third_Party/LwIP/src/core/pbuf.c ****   for (p = h; p->next != NULL; p = p->next) {
 862:Middlewares/Third_Party/LwIP/src/core/pbuf.c ****     /* add total length of second chain to all totals of first chain */
 863:Middlewares/Third_Party/LwIP/src/core/pbuf.c ****     p->tot_len = (u16_t)(p->tot_len + t->tot_len);
 864:Middlewares/Third_Party/LwIP/src/core/pbuf.c ****   }
 865:Middlewares/Third_Party/LwIP/src/core/pbuf.c ****   /* { p is last pbuf of first h chain, p->next == NULL } */
 866:Middlewares/Third_Party/LwIP/src/core/pbuf.c ****   LWIP_ASSERT("p->tot_len == p->len (of last pbuf in chain)", p->tot_len == p->len);
 867:Middlewares/Third_Party/LwIP/src/core/pbuf.c ****   LWIP_ASSERT("p->next == NULL", p->next == NULL);
 868:Middlewares/Third_Party/LwIP/src/core/pbuf.c ****   /* add total length of second chain to last pbuf total of first chain */
 869:Middlewares/Third_Party/LwIP/src/core/pbuf.c ****   p->tot_len = (u16_t)(p->tot_len + t->tot_len);
 870:Middlewares/Third_Party/LwIP/src/core/pbuf.c ****   /* chain last pbuf of head (p) with first of tail (t) */
 871:Middlewares/Third_Party/LwIP/src/core/pbuf.c ****   p->next = t;
 872:Middlewares/Third_Party/LwIP/src/core/pbuf.c ****   /* p->next now references t, but the caller will drop its reference to t,
 873:Middlewares/Third_Party/LwIP/src/core/pbuf.c ****    * so netto there is no change to the reference count of t.
 874:Middlewares/Third_Party/LwIP/src/core/pbuf.c ****    */
 875:Middlewares/Third_Party/LwIP/src/core/pbuf.c **** }
 876:Middlewares/Third_Party/LwIP/src/core/pbuf.c **** 
 877:Middlewares/Third_Party/LwIP/src/core/pbuf.c **** /**
 878:Middlewares/Third_Party/LwIP/src/core/pbuf.c ****  * @ingroup pbuf
 879:Middlewares/Third_Party/LwIP/src/core/pbuf.c ****  * Chain two pbufs (or pbuf chains) together.
 880:Middlewares/Third_Party/LwIP/src/core/pbuf.c ****  *
 881:Middlewares/Third_Party/LwIP/src/core/pbuf.c ****  * The caller MUST call pbuf_free(t) once it has stopped
 882:Middlewares/Third_Party/LwIP/src/core/pbuf.c ****  * using it. Use pbuf_cat() instead if you no longer use t.
 883:Middlewares/Third_Party/LwIP/src/core/pbuf.c ****  *
 884:Middlewares/Third_Party/LwIP/src/core/pbuf.c ****  * @param h head pbuf (chain)
 885:Middlewares/Third_Party/LwIP/src/core/pbuf.c ****  * @param t tail pbuf (chain)
 886:Middlewares/Third_Party/LwIP/src/core/pbuf.c ****  * @note The pbufs MUST belong to the same packet.
 887:Middlewares/Third_Party/LwIP/src/core/pbuf.c ****  * @note MAY NOT be called on a packet queue.
 888:Middlewares/Third_Party/LwIP/src/core/pbuf.c ****  *
 889:Middlewares/Third_Party/LwIP/src/core/pbuf.c ****  * The ->tot_len fields of all pbufs of the head chain are adjusted.
 890:Middlewares/Third_Party/LwIP/src/core/pbuf.c ****  * The ->next field of the last pbuf of the head chain is adjusted.
 891:Middlewares/Third_Party/LwIP/src/core/pbuf.c ****  * The ->ref field of the first pbuf of the tail chain is adjusted.
 892:Middlewares/Third_Party/LwIP/src/core/pbuf.c ****  *
 893:Middlewares/Third_Party/LwIP/src/core/pbuf.c ****  */
 894:Middlewares/Third_Party/LwIP/src/core/pbuf.c **** void
 895:Middlewares/Third_Party/LwIP/src/core/pbuf.c **** pbuf_chain(struct pbuf *h, struct pbuf *t)
 896:Middlewares/Third_Party/LwIP/src/core/pbuf.c **** {
 897:Middlewares/Third_Party/LwIP/src/core/pbuf.c ****   pbuf_cat(h, t);
 898:Middlewares/Third_Party/LwIP/src/core/pbuf.c ****   /* t is now referenced by h */
 899:Middlewares/Third_Party/LwIP/src/core/pbuf.c ****   pbuf_ref(t);
 900:Middlewares/Third_Party/LwIP/src/core/pbuf.c ****   LWIP_DEBUGF(PBUF_DEBUG | LWIP_DBG_TRACE, ("pbuf_chain: %p references %p\n", (void *)h, (void *)t)
 901:Middlewares/Third_Party/LwIP/src/core/pbuf.c **** }
 902:Middlewares/Third_Party/LwIP/src/core/pbuf.c **** 
 903:Middlewares/Third_Party/LwIP/src/core/pbuf.c **** /**
 904:Middlewares/Third_Party/LwIP/src/core/pbuf.c ****  * Dechains the first pbuf from its succeeding pbufs in the chain.
 905:Middlewares/Third_Party/LwIP/src/core/pbuf.c ****  *
 906:Middlewares/Third_Party/LwIP/src/core/pbuf.c ****  * Makes p->tot_len field equal to p->len.
 907:Middlewares/Third_Party/LwIP/src/core/pbuf.c ****  * @param p pbuf to dechain
 908:Middlewares/Third_Party/LwIP/src/core/pbuf.c ****  * @return remainder of the pbuf chain, or NULL if it was de-allocated.
 909:Middlewares/Third_Party/LwIP/src/core/pbuf.c ****  * @note May not be called on a packet queue.
 910:Middlewares/Third_Party/LwIP/src/core/pbuf.c ****  */
 911:Middlewares/Third_Party/LwIP/src/core/pbuf.c **** struct pbuf *
ARM GAS  /var/folders/bg/n1lwdyp56391g865_v8nrmhm0000gn/T//cc4exhWb.s 			page 19


 912:Middlewares/Third_Party/LwIP/src/core/pbuf.c **** pbuf_dechain(struct pbuf *p)
 913:Middlewares/Third_Party/LwIP/src/core/pbuf.c **** {
 914:Middlewares/Third_Party/LwIP/src/core/pbuf.c ****   struct pbuf *q;
 915:Middlewares/Third_Party/LwIP/src/core/pbuf.c ****   u8_t tail_gone = 1;
 916:Middlewares/Third_Party/LwIP/src/core/pbuf.c ****   /* tail */
 917:Middlewares/Third_Party/LwIP/src/core/pbuf.c ****   q = p->next;
 918:Middlewares/Third_Party/LwIP/src/core/pbuf.c ****   /* pbuf has successor in chain? */
 919:Middlewares/Third_Party/LwIP/src/core/pbuf.c ****   if (q != NULL) {
 920:Middlewares/Third_Party/LwIP/src/core/pbuf.c ****     /* assert tot_len invariant: (p->tot_len == p->len + (p->next? p->next->tot_len: 0) */
 921:Middlewares/Third_Party/LwIP/src/core/pbuf.c ****     LWIP_ASSERT("p->tot_len == p->len + q->tot_len", q->tot_len == p->tot_len - p->len);
 922:Middlewares/Third_Party/LwIP/src/core/pbuf.c ****     /* enforce invariant if assertion is disabled */
 923:Middlewares/Third_Party/LwIP/src/core/pbuf.c ****     q->tot_len = (u16_t)(p->tot_len - p->len);
 924:Middlewares/Third_Party/LwIP/src/core/pbuf.c ****     /* decouple pbuf from remainder */
 925:Middlewares/Third_Party/LwIP/src/core/pbuf.c ****     p->next = NULL;
 926:Middlewares/Third_Party/LwIP/src/core/pbuf.c ****     /* total length of pbuf p is its own length only */
 927:Middlewares/Third_Party/LwIP/src/core/pbuf.c ****     p->tot_len = p->len;
 928:Middlewares/Third_Party/LwIP/src/core/pbuf.c ****     /* q is no longer referenced by p, free it */
 929:Middlewares/Third_Party/LwIP/src/core/pbuf.c ****     LWIP_DEBUGF(PBUF_DEBUG | LWIP_DBG_TRACE, ("pbuf_dechain: unreferencing %p\n", (void *)q));
 930:Middlewares/Third_Party/LwIP/src/core/pbuf.c ****     tail_gone = pbuf_free(q);
 931:Middlewares/Third_Party/LwIP/src/core/pbuf.c ****     if (tail_gone > 0) {
 932:Middlewares/Third_Party/LwIP/src/core/pbuf.c ****       LWIP_DEBUGF(PBUF_DEBUG | LWIP_DBG_TRACE,
 933:Middlewares/Third_Party/LwIP/src/core/pbuf.c ****                   ("pbuf_dechain: deallocated %p (as it is no longer referenced)\n", (void *)q));
 934:Middlewares/Third_Party/LwIP/src/core/pbuf.c ****     }
 935:Middlewares/Third_Party/LwIP/src/core/pbuf.c ****     /* return remaining tail or NULL if deallocated */
 936:Middlewares/Third_Party/LwIP/src/core/pbuf.c ****   }
 937:Middlewares/Third_Party/LwIP/src/core/pbuf.c ****   /* assert tot_len invariant: (p->tot_len == p->len + (p->next? p->next->tot_len: 0) */
 938:Middlewares/Third_Party/LwIP/src/core/pbuf.c ****   LWIP_ASSERT("p->tot_len == p->len", p->tot_len == p->len);
 939:Middlewares/Third_Party/LwIP/src/core/pbuf.c ****   return ((tail_gone > 0) ? NULL : q);
 940:Middlewares/Third_Party/LwIP/src/core/pbuf.c **** }
 941:Middlewares/Third_Party/LwIP/src/core/pbuf.c **** 
 942:Middlewares/Third_Party/LwIP/src/core/pbuf.c **** /**
 943:Middlewares/Third_Party/LwIP/src/core/pbuf.c ****  * @ingroup pbuf
 944:Middlewares/Third_Party/LwIP/src/core/pbuf.c ****  * Create PBUF_RAM copies of pbufs.
 945:Middlewares/Third_Party/LwIP/src/core/pbuf.c ****  *
 946:Middlewares/Third_Party/LwIP/src/core/pbuf.c ****  * Used to queue packets on behalf of the lwIP stack, such as
 947:Middlewares/Third_Party/LwIP/src/core/pbuf.c ****  * ARP based queueing.
 948:Middlewares/Third_Party/LwIP/src/core/pbuf.c ****  *
 949:Middlewares/Third_Party/LwIP/src/core/pbuf.c ****  * @note You MUST explicitly use p = pbuf_take(p);
 950:Middlewares/Third_Party/LwIP/src/core/pbuf.c ****  *
 951:Middlewares/Third_Party/LwIP/src/core/pbuf.c ****  * @note Only one packet is copied, no packet queue!
 952:Middlewares/Third_Party/LwIP/src/core/pbuf.c ****  *
 953:Middlewares/Third_Party/LwIP/src/core/pbuf.c ****  * @param p_to pbuf destination of the copy
 954:Middlewares/Third_Party/LwIP/src/core/pbuf.c ****  * @param p_from pbuf source of the copy
 955:Middlewares/Third_Party/LwIP/src/core/pbuf.c ****  *
 956:Middlewares/Third_Party/LwIP/src/core/pbuf.c ****  * @return ERR_OK if pbuf was copied
 957:Middlewares/Third_Party/LwIP/src/core/pbuf.c ****  *         ERR_ARG if one of the pbufs is NULL or p_to is not big
 958:Middlewares/Third_Party/LwIP/src/core/pbuf.c ****  *                 enough to hold p_from
 959:Middlewares/Third_Party/LwIP/src/core/pbuf.c ****  */
 960:Middlewares/Third_Party/LwIP/src/core/pbuf.c **** err_t
 961:Middlewares/Third_Party/LwIP/src/core/pbuf.c **** pbuf_copy(struct pbuf *p_to, const struct pbuf *p_from)
 962:Middlewares/Third_Party/LwIP/src/core/pbuf.c **** {
 963:Middlewares/Third_Party/LwIP/src/core/pbuf.c ****   size_t offset_to = 0, offset_from = 0, len;
 964:Middlewares/Third_Party/LwIP/src/core/pbuf.c **** 
 965:Middlewares/Third_Party/LwIP/src/core/pbuf.c ****   LWIP_DEBUGF(PBUF_DEBUG | LWIP_DBG_TRACE, ("pbuf_copy(%p, %p)\n",
 966:Middlewares/Third_Party/LwIP/src/core/pbuf.c ****               (const void *)p_to, (const void *)p_from));
 967:Middlewares/Third_Party/LwIP/src/core/pbuf.c **** 
 968:Middlewares/Third_Party/LwIP/src/core/pbuf.c ****   /* is the target big enough to hold the source? */
ARM GAS  /var/folders/bg/n1lwdyp56391g865_v8nrmhm0000gn/T//cc4exhWb.s 			page 20


 969:Middlewares/Third_Party/LwIP/src/core/pbuf.c ****   LWIP_ERROR("pbuf_copy: target not big enough to hold source", ((p_to != NULL) &&
 970:Middlewares/Third_Party/LwIP/src/core/pbuf.c ****              (p_from != NULL) && (p_to->tot_len >= p_from->tot_len)), return ERR_ARG;);
 971:Middlewares/Third_Party/LwIP/src/core/pbuf.c **** 
 972:Middlewares/Third_Party/LwIP/src/core/pbuf.c ****   /* iterate through pbuf chain */
 973:Middlewares/Third_Party/LwIP/src/core/pbuf.c ****   do {
 974:Middlewares/Third_Party/LwIP/src/core/pbuf.c ****     /* copy one part of the original chain */
 975:Middlewares/Third_Party/LwIP/src/core/pbuf.c ****     if ((p_to->len - offset_to) >= (p_from->len - offset_from)) {
 976:Middlewares/Third_Party/LwIP/src/core/pbuf.c ****       /* complete current p_from fits into current p_to */
 977:Middlewares/Third_Party/LwIP/src/core/pbuf.c ****       len = p_from->len - offset_from;
 978:Middlewares/Third_Party/LwIP/src/core/pbuf.c ****     } else {
 979:Middlewares/Third_Party/LwIP/src/core/pbuf.c ****       /* current p_from does not fit into current p_to */
 980:Middlewares/Third_Party/LwIP/src/core/pbuf.c ****       len = p_to->len - offset_to;
 981:Middlewares/Third_Party/LwIP/src/core/pbuf.c ****     }
 982:Middlewares/Third_Party/LwIP/src/core/pbuf.c ****     MEMCPY((u8_t *)p_to->payload + offset_to, (u8_t *)p_from->payload + offset_from, len);
 983:Middlewares/Third_Party/LwIP/src/core/pbuf.c ****     offset_to += len;
 984:Middlewares/Third_Party/LwIP/src/core/pbuf.c ****     offset_from += len;
 985:Middlewares/Third_Party/LwIP/src/core/pbuf.c ****     LWIP_ASSERT("offset_to <= p_to->len", offset_to <= p_to->len);
 986:Middlewares/Third_Party/LwIP/src/core/pbuf.c ****     LWIP_ASSERT("offset_from <= p_from->len", offset_from <= p_from->len);
 987:Middlewares/Third_Party/LwIP/src/core/pbuf.c ****     if (offset_from >= p_from->len) {
 988:Middlewares/Third_Party/LwIP/src/core/pbuf.c ****       /* on to next p_from (if any) */
 989:Middlewares/Third_Party/LwIP/src/core/pbuf.c ****       offset_from = 0;
 990:Middlewares/Third_Party/LwIP/src/core/pbuf.c ****       p_from = p_from->next;
 991:Middlewares/Third_Party/LwIP/src/core/pbuf.c ****     }
 992:Middlewares/Third_Party/LwIP/src/core/pbuf.c ****     if (offset_to == p_to->len) {
 993:Middlewares/Third_Party/LwIP/src/core/pbuf.c ****       /* on to next p_to (if any) */
 994:Middlewares/Third_Party/LwIP/src/core/pbuf.c ****       offset_to = 0;
 995:Middlewares/Third_Party/LwIP/src/core/pbuf.c ****       p_to = p_to->next;
 996:Middlewares/Third_Party/LwIP/src/core/pbuf.c ****       LWIP_ERROR("p_to != NULL", (p_to != NULL) || (p_from == NULL), return ERR_ARG;);
 997:Middlewares/Third_Party/LwIP/src/core/pbuf.c ****     }
 998:Middlewares/Third_Party/LwIP/src/core/pbuf.c **** 
 999:Middlewares/Third_Party/LwIP/src/core/pbuf.c ****     if ((p_from != NULL) && (p_from->len == p_from->tot_len)) {
1000:Middlewares/Third_Party/LwIP/src/core/pbuf.c ****       /* don't copy more than one packet! */
1001:Middlewares/Third_Party/LwIP/src/core/pbuf.c ****       LWIP_ERROR("pbuf_copy() does not allow packet queues!",
1002:Middlewares/Third_Party/LwIP/src/core/pbuf.c ****                  (p_from->next == NULL), return ERR_VAL;);
1003:Middlewares/Third_Party/LwIP/src/core/pbuf.c ****     }
1004:Middlewares/Third_Party/LwIP/src/core/pbuf.c ****     if ((p_to != NULL) && (p_to->len == p_to->tot_len)) {
1005:Middlewares/Third_Party/LwIP/src/core/pbuf.c ****       /* don't copy more than one packet! */
1006:Middlewares/Third_Party/LwIP/src/core/pbuf.c ****       LWIP_ERROR("pbuf_copy() does not allow packet queues!",
1007:Middlewares/Third_Party/LwIP/src/core/pbuf.c ****                  (p_to->next == NULL), return ERR_VAL;);
1008:Middlewares/Third_Party/LwIP/src/core/pbuf.c ****     }
1009:Middlewares/Third_Party/LwIP/src/core/pbuf.c ****   } while (p_from);
1010:Middlewares/Third_Party/LwIP/src/core/pbuf.c ****   LWIP_DEBUGF(PBUF_DEBUG | LWIP_DBG_TRACE, ("pbuf_copy: end of chain reached.\n"));
1011:Middlewares/Third_Party/LwIP/src/core/pbuf.c ****   return ERR_OK;
1012:Middlewares/Third_Party/LwIP/src/core/pbuf.c **** }
1013:Middlewares/Third_Party/LwIP/src/core/pbuf.c **** 
1014:Middlewares/Third_Party/LwIP/src/core/pbuf.c **** /**
1015:Middlewares/Third_Party/LwIP/src/core/pbuf.c ****  * @ingroup pbuf
1016:Middlewares/Third_Party/LwIP/src/core/pbuf.c ****  * Copy (part of) the contents of a packet buffer
1017:Middlewares/Third_Party/LwIP/src/core/pbuf.c ****  * to an application supplied buffer.
1018:Middlewares/Third_Party/LwIP/src/core/pbuf.c ****  *
1019:Middlewares/Third_Party/LwIP/src/core/pbuf.c ****  * @param buf the pbuf from which to copy data
1020:Middlewares/Third_Party/LwIP/src/core/pbuf.c ****  * @param dataptr the application supplied buffer
1021:Middlewares/Third_Party/LwIP/src/core/pbuf.c ****  * @param len length of data to copy (dataptr must be big enough). No more
1022:Middlewares/Third_Party/LwIP/src/core/pbuf.c ****  * than buf->tot_len will be copied, irrespective of len
1023:Middlewares/Third_Party/LwIP/src/core/pbuf.c ****  * @param offset offset into the packet buffer from where to begin copying len bytes
1024:Middlewares/Third_Party/LwIP/src/core/pbuf.c ****  * @return the number of bytes copied, or 0 on failure
1025:Middlewares/Third_Party/LwIP/src/core/pbuf.c ****  */
ARM GAS  /var/folders/bg/n1lwdyp56391g865_v8nrmhm0000gn/T//cc4exhWb.s 			page 21


1026:Middlewares/Third_Party/LwIP/src/core/pbuf.c **** u16_t
1027:Middlewares/Third_Party/LwIP/src/core/pbuf.c **** pbuf_copy_partial(const struct pbuf *buf, void *dataptr, u16_t len, u16_t offset)
1028:Middlewares/Third_Party/LwIP/src/core/pbuf.c **** {
1029:Middlewares/Third_Party/LwIP/src/core/pbuf.c ****   const struct pbuf *p;
1030:Middlewares/Third_Party/LwIP/src/core/pbuf.c ****   u16_t left = 0;
1031:Middlewares/Third_Party/LwIP/src/core/pbuf.c ****   u16_t buf_copy_len;
1032:Middlewares/Third_Party/LwIP/src/core/pbuf.c ****   u16_t copied_total = 0;
1033:Middlewares/Third_Party/LwIP/src/core/pbuf.c **** 
1034:Middlewares/Third_Party/LwIP/src/core/pbuf.c ****   LWIP_ERROR("pbuf_copy_partial: invalid buf", (buf != NULL), return 0;);
1035:Middlewares/Third_Party/LwIP/src/core/pbuf.c ****   LWIP_ERROR("pbuf_copy_partial: invalid dataptr", (dataptr != NULL), return 0;);
1036:Middlewares/Third_Party/LwIP/src/core/pbuf.c **** 
1037:Middlewares/Third_Party/LwIP/src/core/pbuf.c ****   /* Note some systems use byte copy if dataptr or one of the pbuf payload pointers are unaligned. 
1038:Middlewares/Third_Party/LwIP/src/core/pbuf.c ****   for (p = buf; len != 0 && p != NULL; p = p->next) {
1039:Middlewares/Third_Party/LwIP/src/core/pbuf.c ****     if ((offset != 0) && (offset >= p->len)) {
1040:Middlewares/Third_Party/LwIP/src/core/pbuf.c ****       /* don't copy from this buffer -> on to the next */
1041:Middlewares/Third_Party/LwIP/src/core/pbuf.c ****       offset = (u16_t)(offset - p->len);
1042:Middlewares/Third_Party/LwIP/src/core/pbuf.c ****     } else {
1043:Middlewares/Third_Party/LwIP/src/core/pbuf.c ****       /* copy from this buffer. maybe only partially. */
1044:Middlewares/Third_Party/LwIP/src/core/pbuf.c ****       buf_copy_len = (u16_t)(p->len - offset);
1045:Middlewares/Third_Party/LwIP/src/core/pbuf.c ****       if (buf_copy_len > len) {
1046:Middlewares/Third_Party/LwIP/src/core/pbuf.c ****         buf_copy_len = len;
1047:Middlewares/Third_Party/LwIP/src/core/pbuf.c ****       }
1048:Middlewares/Third_Party/LwIP/src/core/pbuf.c ****       /* copy the necessary parts of the buffer */
1049:Middlewares/Third_Party/LwIP/src/core/pbuf.c ****       MEMCPY(&((char *)dataptr)[left], &((char *)p->payload)[offset], buf_copy_len);
1050:Middlewares/Third_Party/LwIP/src/core/pbuf.c ****       copied_total = (u16_t)(copied_total + buf_copy_len);
1051:Middlewares/Third_Party/LwIP/src/core/pbuf.c ****       left = (u16_t)(left + buf_copy_len);
1052:Middlewares/Third_Party/LwIP/src/core/pbuf.c ****       len = (u16_t)(len - buf_copy_len);
1053:Middlewares/Third_Party/LwIP/src/core/pbuf.c ****       offset = 0;
1054:Middlewares/Third_Party/LwIP/src/core/pbuf.c ****     }
1055:Middlewares/Third_Party/LwIP/src/core/pbuf.c ****   }
1056:Middlewares/Third_Party/LwIP/src/core/pbuf.c ****   return copied_total;
1057:Middlewares/Third_Party/LwIP/src/core/pbuf.c **** }
1058:Middlewares/Third_Party/LwIP/src/core/pbuf.c **** 
1059:Middlewares/Third_Party/LwIP/src/core/pbuf.c **** /**
1060:Middlewares/Third_Party/LwIP/src/core/pbuf.c ****  * @ingroup pbuf
1061:Middlewares/Third_Party/LwIP/src/core/pbuf.c ****  * Get part of a pbuf's payload as contiguous memory. The returned memory is
1062:Middlewares/Third_Party/LwIP/src/core/pbuf.c ****  * either a pointer into the pbuf's payload or, if split over multiple pbufs,
1063:Middlewares/Third_Party/LwIP/src/core/pbuf.c ****  * a copy into the user-supplied buffer.
1064:Middlewares/Third_Party/LwIP/src/core/pbuf.c ****  *
1065:Middlewares/Third_Party/LwIP/src/core/pbuf.c ****  * @param p the pbuf from which to copy data
1066:Middlewares/Third_Party/LwIP/src/core/pbuf.c ****  * @param buffer the application supplied buffer
1067:Middlewares/Third_Party/LwIP/src/core/pbuf.c ****  * @param bufsize size of the application supplied buffer
1068:Middlewares/Third_Party/LwIP/src/core/pbuf.c ****  * @param len length of data to copy (dataptr must be big enough). No more
1069:Middlewares/Third_Party/LwIP/src/core/pbuf.c ****  * than buf->tot_len will be copied, irrespective of len
1070:Middlewares/Third_Party/LwIP/src/core/pbuf.c ****  * @param offset offset into the packet buffer from where to begin copying len bytes
1071:Middlewares/Third_Party/LwIP/src/core/pbuf.c ****  * @return the number of bytes copied, or 0 on failure
1072:Middlewares/Third_Party/LwIP/src/core/pbuf.c ****  */
1073:Middlewares/Third_Party/LwIP/src/core/pbuf.c **** void *
1074:Middlewares/Third_Party/LwIP/src/core/pbuf.c **** pbuf_get_contiguous(const struct pbuf *p, void *buffer, size_t bufsize, u16_t len, u16_t offset)
1075:Middlewares/Third_Party/LwIP/src/core/pbuf.c **** {
1076:Middlewares/Third_Party/LwIP/src/core/pbuf.c ****   const struct pbuf *q;
1077:Middlewares/Third_Party/LwIP/src/core/pbuf.c ****   u16_t out_offset;
1078:Middlewares/Third_Party/LwIP/src/core/pbuf.c **** 
1079:Middlewares/Third_Party/LwIP/src/core/pbuf.c ****   LWIP_ERROR("pbuf_get_contiguous: invalid buf", (p != NULL), return NULL;);
1080:Middlewares/Third_Party/LwIP/src/core/pbuf.c ****   LWIP_ERROR("pbuf_get_contiguous: invalid dataptr", (buffer != NULL), return NULL;);
1081:Middlewares/Third_Party/LwIP/src/core/pbuf.c ****   LWIP_ERROR("pbuf_get_contiguous: invalid dataptr", (bufsize >= len), return NULL;);
1082:Middlewares/Third_Party/LwIP/src/core/pbuf.c **** 
ARM GAS  /var/folders/bg/n1lwdyp56391g865_v8nrmhm0000gn/T//cc4exhWb.s 			page 22


1083:Middlewares/Third_Party/LwIP/src/core/pbuf.c ****   q = pbuf_skip_const(p, offset, &out_offset);
1084:Middlewares/Third_Party/LwIP/src/core/pbuf.c ****   if (q != NULL) {
1085:Middlewares/Third_Party/LwIP/src/core/pbuf.c ****     if (q->len >= (out_offset + len)) {
1086:Middlewares/Third_Party/LwIP/src/core/pbuf.c ****       /* all data in this pbuf, return zero-copy */
1087:Middlewares/Third_Party/LwIP/src/core/pbuf.c ****       return (u8_t *)q->payload + out_offset;
1088:Middlewares/Third_Party/LwIP/src/core/pbuf.c ****     }
1089:Middlewares/Third_Party/LwIP/src/core/pbuf.c ****     /* need to copy */
1090:Middlewares/Third_Party/LwIP/src/core/pbuf.c ****     if (pbuf_copy_partial(q, buffer, len, out_offset) != len) {
1091:Middlewares/Third_Party/LwIP/src/core/pbuf.c ****       /* copying failed: pbuf is too short */
1092:Middlewares/Third_Party/LwIP/src/core/pbuf.c ****       return NULL;
1093:Middlewares/Third_Party/LwIP/src/core/pbuf.c ****     }
1094:Middlewares/Third_Party/LwIP/src/core/pbuf.c ****     return buffer;
1095:Middlewares/Third_Party/LwIP/src/core/pbuf.c ****   }
1096:Middlewares/Third_Party/LwIP/src/core/pbuf.c ****   /* pbuf is too short (offset does not fit in) */
1097:Middlewares/Third_Party/LwIP/src/core/pbuf.c ****   return NULL;
1098:Middlewares/Third_Party/LwIP/src/core/pbuf.c **** }
1099:Middlewares/Third_Party/LwIP/src/core/pbuf.c **** 
1100:Middlewares/Third_Party/LwIP/src/core/pbuf.c **** #if LWIP_TCP && TCP_QUEUE_OOSEQ && LWIP_WND_SCALE
1101:Middlewares/Third_Party/LwIP/src/core/pbuf.c **** /**
1102:Middlewares/Third_Party/LwIP/src/core/pbuf.c ****  * This method modifies a 'pbuf chain', so that its total length is
1103:Middlewares/Third_Party/LwIP/src/core/pbuf.c ****  * smaller than 64K. The remainder of the original pbuf chain is stored
1104:Middlewares/Third_Party/LwIP/src/core/pbuf.c ****  * in *rest.
1105:Middlewares/Third_Party/LwIP/src/core/pbuf.c ****  * This function never creates new pbufs, but splits an existing chain
1106:Middlewares/Third_Party/LwIP/src/core/pbuf.c ****  * in two parts. The tot_len of the modified packet queue will likely be
1107:Middlewares/Third_Party/LwIP/src/core/pbuf.c ****  * smaller than 64K.
1108:Middlewares/Third_Party/LwIP/src/core/pbuf.c ****  * 'packet queues' are not supported by this function.
1109:Middlewares/Third_Party/LwIP/src/core/pbuf.c ****  *
1110:Middlewares/Third_Party/LwIP/src/core/pbuf.c ****  * @param p the pbuf queue to be split
1111:Middlewares/Third_Party/LwIP/src/core/pbuf.c ****  * @param rest pointer to store the remainder (after the first 64K)
1112:Middlewares/Third_Party/LwIP/src/core/pbuf.c ****  */
1113:Middlewares/Third_Party/LwIP/src/core/pbuf.c **** void pbuf_split_64k(struct pbuf *p, struct pbuf **rest)
1114:Middlewares/Third_Party/LwIP/src/core/pbuf.c **** {
1115:Middlewares/Third_Party/LwIP/src/core/pbuf.c ****   *rest = NULL;
1116:Middlewares/Third_Party/LwIP/src/core/pbuf.c ****   if ((p != NULL) && (p->next != NULL)) {
1117:Middlewares/Third_Party/LwIP/src/core/pbuf.c ****     u16_t tot_len_front = p->len;
1118:Middlewares/Third_Party/LwIP/src/core/pbuf.c ****     struct pbuf *i = p;
1119:Middlewares/Third_Party/LwIP/src/core/pbuf.c ****     struct pbuf *r = p->next;
1120:Middlewares/Third_Party/LwIP/src/core/pbuf.c **** 
1121:Middlewares/Third_Party/LwIP/src/core/pbuf.c ****     /* continue until the total length (summed up as u16_t) overflows */
1122:Middlewares/Third_Party/LwIP/src/core/pbuf.c ****     while ((r != NULL) && ((u16_t)(tot_len_front + r->len) >= tot_len_front)) {
1123:Middlewares/Third_Party/LwIP/src/core/pbuf.c ****       tot_len_front = (u16_t)(tot_len_front + r->len);
1124:Middlewares/Third_Party/LwIP/src/core/pbuf.c ****       i = r;
1125:Middlewares/Third_Party/LwIP/src/core/pbuf.c ****       r = r->next;
1126:Middlewares/Third_Party/LwIP/src/core/pbuf.c ****     }
1127:Middlewares/Third_Party/LwIP/src/core/pbuf.c ****     /* i now points to last packet of the first segment. Set next
1128:Middlewares/Third_Party/LwIP/src/core/pbuf.c ****        pointer to NULL */
1129:Middlewares/Third_Party/LwIP/src/core/pbuf.c ****     i->next = NULL;
1130:Middlewares/Third_Party/LwIP/src/core/pbuf.c **** 
1131:Middlewares/Third_Party/LwIP/src/core/pbuf.c ****     if (r != NULL) {
1132:Middlewares/Third_Party/LwIP/src/core/pbuf.c ****       /* Update the tot_len field in the first part */
1133:Middlewares/Third_Party/LwIP/src/core/pbuf.c ****       for (i = p; i != NULL; i = i->next) {
1134:Middlewares/Third_Party/LwIP/src/core/pbuf.c ****         i->tot_len = (u16_t)(i->tot_len - r->tot_len);
1135:Middlewares/Third_Party/LwIP/src/core/pbuf.c ****         LWIP_ASSERT("tot_len/len mismatch in last pbuf",
1136:Middlewares/Third_Party/LwIP/src/core/pbuf.c ****                     (i->next != NULL) || (i->tot_len == i->len));
1137:Middlewares/Third_Party/LwIP/src/core/pbuf.c ****       }
1138:Middlewares/Third_Party/LwIP/src/core/pbuf.c ****       if (p->flags & PBUF_FLAG_TCP_FIN) {
1139:Middlewares/Third_Party/LwIP/src/core/pbuf.c ****         r->flags |= PBUF_FLAG_TCP_FIN;
ARM GAS  /var/folders/bg/n1lwdyp56391g865_v8nrmhm0000gn/T//cc4exhWb.s 			page 23


1140:Middlewares/Third_Party/LwIP/src/core/pbuf.c ****       }
1141:Middlewares/Third_Party/LwIP/src/core/pbuf.c **** 
1142:Middlewares/Third_Party/LwIP/src/core/pbuf.c ****       /* tot_len field in rest does not need modifications */
1143:Middlewares/Third_Party/LwIP/src/core/pbuf.c ****       /* reference counters do not need modifications */
1144:Middlewares/Third_Party/LwIP/src/core/pbuf.c ****       *rest = r;
1145:Middlewares/Third_Party/LwIP/src/core/pbuf.c ****     }
1146:Middlewares/Third_Party/LwIP/src/core/pbuf.c ****   }
1147:Middlewares/Third_Party/LwIP/src/core/pbuf.c **** }
1148:Middlewares/Third_Party/LwIP/src/core/pbuf.c **** #endif /* LWIP_TCP && TCP_QUEUE_OOSEQ && LWIP_WND_SCALE */
1149:Middlewares/Third_Party/LwIP/src/core/pbuf.c **** 
1150:Middlewares/Third_Party/LwIP/src/core/pbuf.c **** /* Actual implementation of pbuf_skip() but returning const pointer... */
1151:Middlewares/Third_Party/LwIP/src/core/pbuf.c **** static const struct pbuf *
1152:Middlewares/Third_Party/LwIP/src/core/pbuf.c **** pbuf_skip_const(const struct pbuf *in, u16_t in_offset, u16_t *out_offset)
1153:Middlewares/Third_Party/LwIP/src/core/pbuf.c **** {
 121              		.loc 1 1153 1 is_stmt 1 view -0
 122              		.cfi_startproc
 123              		@ args = 0, pretend = 0, frame = 0
 124              		@ frame_needed = 0, uses_anonymous_args = 0
 125              		@ link register save eliminated.
1154:Middlewares/Third_Party/LwIP/src/core/pbuf.c ****   u16_t offset_left = in_offset;
 126              		.loc 1 1154 3 view .LVU30
1155:Middlewares/Third_Party/LwIP/src/core/pbuf.c ****   const struct pbuf *q = in;
 127              		.loc 1 1155 3 view .LVU31
1156:Middlewares/Third_Party/LwIP/src/core/pbuf.c **** 
1157:Middlewares/Third_Party/LwIP/src/core/pbuf.c ****   /* get the correct pbuf */
1158:Middlewares/Third_Party/LwIP/src/core/pbuf.c ****   while ((q != NULL) && (q->len <= offset_left)) {
 128              		.loc 1 1158 3 view .LVU32
 129              		.loc 1 1158 9 is_stmt 0 view .LVU33
 130 0000 02E0     		b	.L7
 131              	.LVL4:
 132              	.L9:
1159:Middlewares/Third_Party/LwIP/src/core/pbuf.c ****     offset_left = (u16_t)(offset_left - q->len);
 133              		.loc 1 1159 5 is_stmt 1 view .LVU34
 134              		.loc 1 1159 17 is_stmt 0 view .LVU35
 135 0002 C91A     		subs	r1, r1, r3
 136              	.LVL5:
 137              		.loc 1 1159 17 view .LVU36
 138 0004 89B2     		uxth	r1, r1
 139              	.LVL6:
1160:Middlewares/Third_Party/LwIP/src/core/pbuf.c ****     q = q->next;
 140              		.loc 1 1160 5 is_stmt 1 view .LVU37
 141              		.loc 1 1160 7 is_stmt 0 view .LVU38
 142 0006 0068     		ldr	r0, [r0]
 143              	.LVL7:
 144              	.L7:
1158:Middlewares/Third_Party/LwIP/src/core/pbuf.c ****     offset_left = (u16_t)(offset_left - q->len);
 145              		.loc 1 1158 9 is_stmt 1 view .LVU39
 146 0008 10B1     		cbz	r0, .L8
1158:Middlewares/Third_Party/LwIP/src/core/pbuf.c ****     offset_left = (u16_t)(offset_left - q->len);
 147              		.loc 1 1158 27 is_stmt 0 discriminator 1 view .LVU40
 148 000a 4389     		ldrh	r3, [r0, #10]
1158:Middlewares/Third_Party/LwIP/src/core/pbuf.c ****     offset_left = (u16_t)(offset_left - q->len);
 149              		.loc 1 1158 22 discriminator 1 view .LVU41
 150 000c 8B42     		cmp	r3, r1
 151 000e F8D9     		bls	.L9
 152              	.L8:
1161:Middlewares/Third_Party/LwIP/src/core/pbuf.c ****   }
ARM GAS  /var/folders/bg/n1lwdyp56391g865_v8nrmhm0000gn/T//cc4exhWb.s 			page 24


1162:Middlewares/Third_Party/LwIP/src/core/pbuf.c ****   if (out_offset != NULL) {
 153              		.loc 1 1162 3 is_stmt 1 view .LVU42
 154              		.loc 1 1162 6 is_stmt 0 view .LVU43
 155 0010 02B1     		cbz	r2, .L10
1163:Middlewares/Third_Party/LwIP/src/core/pbuf.c ****     *out_offset = offset_left;
 156              		.loc 1 1163 5 is_stmt 1 view .LVU44
 157              		.loc 1 1163 17 is_stmt 0 view .LVU45
 158 0012 1180     		strh	r1, [r2]	@ movhi
 159              	.L10:
1164:Middlewares/Third_Party/LwIP/src/core/pbuf.c ****   }
1165:Middlewares/Third_Party/LwIP/src/core/pbuf.c ****   return q;
 160              		.loc 1 1165 3 is_stmt 1 view .LVU46
1166:Middlewares/Third_Party/LwIP/src/core/pbuf.c **** }
 161              		.loc 1 1166 1 is_stmt 0 view .LVU47
 162 0014 7047     		bx	lr
 163              		.cfi_endproc
 164              	.LFE191:
 166              		.section	.rodata.pbuf_add_header_impl.str1.4,"aMS",%progbits,1
 167              		.align	2
 168              	.LC0:
 169 0000 4D696464 		.ascii	"Middlewares/Third_Party/LwIP/src/core/pbuf.c\000"
 169      6C657761 
 169      7265732F 
 169      54686972 
 169      645F5061 
 170 002d 000000   		.align	2
 171              	.LC1:
 172 0030 7020213D 		.ascii	"p != NULL\000"
 172      204E554C 
 172      4C00
 173 003a 0000     		.align	2
 174              	.LC2:
 175 003c 41737365 		.ascii	"Assertion \"%s\" failed at line %d in %s\012\000"
 175      7274696F 
 175      6E202225 
 175      73222066 
 175      61696C65 
 176              		.section	.text.pbuf_add_header_impl,"ax",%progbits
 177              		.align	1
 178              		.syntax unified
 179              		.thumb
 180              		.thumb_func
 181              		.fpu fpv5-d16
 183              	pbuf_add_header_impl:
 184              	.LVL8:
 185              	.LFB174:
 474:Middlewares/Third_Party/LwIP/src/core/pbuf.c ****   u16_t type_internal;
 186              		.loc 1 474 1 is_stmt 1 view -0
 187              		.cfi_startproc
 188              		@ args = 0, pretend = 0, frame = 0
 189              		@ frame_needed = 0, uses_anonymous_args = 0
 474:Middlewares/Third_Party/LwIP/src/core/pbuf.c ****   u16_t type_internal;
 190              		.loc 1 474 1 is_stmt 0 view .LVU49
 191 0000 70B5     		push	{r4, r5, r6, lr}
 192              	.LCFI2:
 193              		.cfi_def_cfa_offset 16
 194              		.cfi_offset 4, -16
ARM GAS  /var/folders/bg/n1lwdyp56391g865_v8nrmhm0000gn/T//cc4exhWb.s 			page 25


 195              		.cfi_offset 5, -12
 196              		.cfi_offset 6, -8
 197              		.cfi_offset 14, -4
 198 0002 0C46     		mov	r4, r1
 199 0004 1646     		mov	r6, r2
 475:Middlewares/Third_Party/LwIP/src/core/pbuf.c ****   void *payload;
 200              		.loc 1 475 3 is_stmt 1 view .LVU50
 476:Middlewares/Third_Party/LwIP/src/core/pbuf.c ****   u16_t increment_magnitude;
 201              		.loc 1 476 3 view .LVU51
 477:Middlewares/Third_Party/LwIP/src/core/pbuf.c **** 
 202              		.loc 1 477 3 view .LVU52
 479:Middlewares/Third_Party/LwIP/src/core/pbuf.c ****   if ((p == NULL) || (header_size_increment > 0xFFFF)) {
 203              		.loc 1 479 3 view .LVU53
 479:Middlewares/Third_Party/LwIP/src/core/pbuf.c ****   if ((p == NULL) || (header_size_increment > 0xFFFF)) {
 204              		.loc 1 479 3 view .LVU54
 205 0006 0546     		mov	r5, r0
 206 0008 C8B1     		cbz	r0, .L22
 207              	.LVL9:
 208              	.L12:
 479:Middlewares/Third_Party/LwIP/src/core/pbuf.c ****   if ((p == NULL) || (header_size_increment > 0xFFFF)) {
 209              		.loc 1 479 3 discriminator 3 view .LVU55
 479:Middlewares/Third_Party/LwIP/src/core/pbuf.c ****   if ((p == NULL) || (header_size_increment > 0xFFFF)) {
 210              		.loc 1 479 3 discriminator 3 view .LVU56
 480:Middlewares/Third_Party/LwIP/src/core/pbuf.c ****     return 1;
 211              		.loc 1 480 3 discriminator 3 view .LVU57
 480:Middlewares/Third_Party/LwIP/src/core/pbuf.c ****     return 1;
 212              		.loc 1 480 6 is_stmt 0 discriminator 3 view .LVU58
 213 000a 002D     		cmp	r5, #0
 214 000c 18BF     		it	ne
 215 000e B4F5803F 		cmpne	r4, #65536
 216 0012 24D2     		bcs	.L16
 483:Middlewares/Third_Party/LwIP/src/core/pbuf.c ****     return 0;
 217              		.loc 1 483 3 is_stmt 1 view .LVU59
 483:Middlewares/Third_Party/LwIP/src/core/pbuf.c ****     return 0;
 218              		.loc 1 483 6 is_stmt 0 view .LVU60
 219 0014 2CB3     		cbz	r4, .L17
 487:Middlewares/Third_Party/LwIP/src/core/pbuf.c ****   /* Do not allow tot_len to wrap as a result. */
 220              		.loc 1 487 3 is_stmt 1 view .LVU61
 487:Middlewares/Third_Party/LwIP/src/core/pbuf.c ****   /* Do not allow tot_len to wrap as a result. */
 221              		.loc 1 487 23 is_stmt 0 view .LVU62
 222 0016 A2B2     		uxth	r2, r4
 223              	.LVL10:
 489:Middlewares/Third_Party/LwIP/src/core/pbuf.c ****     return 1;
 224              		.loc 1 489 3 is_stmt 1 view .LVU63
 489:Middlewares/Third_Party/LwIP/src/core/pbuf.c ****     return 1;
 225              		.loc 1 489 38 is_stmt 0 view .LVU64
 226 0018 2B89     		ldrh	r3, [r5, #8]
 489:Middlewares/Third_Party/LwIP/src/core/pbuf.c ****     return 1;
 227              		.loc 1 489 7 view .LVU65
 228 001a 1344     		add	r3, r3, r2
 229 001c 9BB2     		uxth	r3, r3
 489:Middlewares/Third_Party/LwIP/src/core/pbuf.c ****     return 1;
 230              		.loc 1 489 6 view .LVU66
 231 001e 9342     		cmp	r3, r2
 232 0020 21D3     		bcc	.L18
 493:Middlewares/Third_Party/LwIP/src/core/pbuf.c **** 
 233              		.loc 1 493 3 is_stmt 1 view .LVU67
ARM GAS  /var/folders/bg/n1lwdyp56391g865_v8nrmhm0000gn/T//cc4exhWb.s 			page 26


 234              	.LVL11:
 496:Middlewares/Third_Party/LwIP/src/core/pbuf.c ****     /* set new payload pointer */
 235              		.loc 1 496 3 view .LVU68
 496:Middlewares/Third_Party/LwIP/src/core/pbuf.c ****     /* set new payload pointer */
 236              		.loc 1 496 6 is_stmt 0 view .LVU69
 237 0022 95F90C10 		ldrsb	r1, [r5, #12]
 238 0026 0029     		cmp	r1, #0
 239 0028 11DB     		blt	.L23
 510:Middlewares/Third_Party/LwIP/src/core/pbuf.c ****       payload = (u8_t *)p->payload - header_size_increment;
 240              		.loc 1 510 5 is_stmt 1 view .LVU70
 510:Middlewares/Third_Party/LwIP/src/core/pbuf.c ****       payload = (u8_t *)p->payload - header_size_increment;
 241              		.loc 1 510 8 is_stmt 0 view .LVU71
 242 002a F6B1     		cbz	r6, .L20
 511:Middlewares/Third_Party/LwIP/src/core/pbuf.c ****     } else {
 243              		.loc 1 511 7 is_stmt 1 view .LVU72
 511:Middlewares/Third_Party/LwIP/src/core/pbuf.c ****     } else {
 244              		.loc 1 511 26 is_stmt 0 view .LVU73
 245 002c 6968     		ldr	r1, [r5, #4]
 511:Middlewares/Third_Party/LwIP/src/core/pbuf.c ****     } else {
 246              		.loc 1 511 15 view .LVU74
 247 002e 0C1B     		subs	r4, r1, r4
 248              	.LVL12:
 249              	.L15:
 519:Middlewares/Third_Party/LwIP/src/core/pbuf.c **** 
 250              		.loc 1 519 73 is_stmt 1 view .LVU75
 522:Middlewares/Third_Party/LwIP/src/core/pbuf.c ****   p->len = (u16_t)(p->len + increment_magnitude);
 251              		.loc 1 522 3 view .LVU76
 522:Middlewares/Third_Party/LwIP/src/core/pbuf.c ****   p->len = (u16_t)(p->len + increment_magnitude);
 252              		.loc 1 522 14 is_stmt 0 view .LVU77
 253 0030 6C60     		str	r4, [r5, #4]
 523:Middlewares/Third_Party/LwIP/src/core/pbuf.c ****   p->tot_len = (u16_t)(p->tot_len + increment_magnitude);
 254              		.loc 1 523 3 is_stmt 1 view .LVU78
 523:Middlewares/Third_Party/LwIP/src/core/pbuf.c ****   p->tot_len = (u16_t)(p->tot_len + increment_magnitude);
 255              		.loc 1 523 21 is_stmt 0 view .LVU79
 256 0032 6989     		ldrh	r1, [r5, #10]
 523:Middlewares/Third_Party/LwIP/src/core/pbuf.c ****   p->tot_len = (u16_t)(p->tot_len + increment_magnitude);
 257              		.loc 1 523 12 view .LVU80
 258 0034 0A44     		add	r2, r2, r1
 259              	.LVL13:
 523:Middlewares/Third_Party/LwIP/src/core/pbuf.c ****   p->tot_len = (u16_t)(p->tot_len + increment_magnitude);
 260              		.loc 1 523 10 view .LVU81
 261 0036 6A81     		strh	r2, [r5, #10]	@ movhi
 524:Middlewares/Third_Party/LwIP/src/core/pbuf.c **** 
 262              		.loc 1 524 3 is_stmt 1 view .LVU82
 524:Middlewares/Third_Party/LwIP/src/core/pbuf.c **** 
 263              		.loc 1 524 14 is_stmt 0 view .LVU83
 264 0038 2B81     		strh	r3, [r5, #8]	@ movhi
 527:Middlewares/Third_Party/LwIP/src/core/pbuf.c **** }
 265              		.loc 1 527 3 is_stmt 1 view .LVU84
 527:Middlewares/Third_Party/LwIP/src/core/pbuf.c **** }
 266              		.loc 1 527 10 is_stmt 0 view .LVU85
 267 003a 0020     		movs	r0, #0
 268 003c 10E0     		b	.L13
 269              	.LVL14:
 270              	.L22:
 479:Middlewares/Third_Party/LwIP/src/core/pbuf.c ****   if ((p == NULL) || (header_size_increment > 0xFFFF)) {
 271              		.loc 1 479 3 is_stmt 1 discriminator 1 view .LVU86
ARM GAS  /var/folders/bg/n1lwdyp56391g865_v8nrmhm0000gn/T//cc4exhWb.s 			page 27


 479:Middlewares/Third_Party/LwIP/src/core/pbuf.c ****   if ((p == NULL) || (header_size_increment > 0xFFFF)) {
 272              		.loc 1 479 3 discriminator 1 view .LVU87
 273 003e 0C4B     		ldr	r3, .L24
 274 0040 40F2DF12 		movw	r2, #479
 275              	.LVL15:
 479:Middlewares/Third_Party/LwIP/src/core/pbuf.c ****   if ((p == NULL) || (header_size_increment > 0xFFFF)) {
 276              		.loc 1 479 3 is_stmt 0 discriminator 1 view .LVU88
 277 0044 0B49     		ldr	r1, .L24+4
 278              	.LVL16:
 479:Middlewares/Third_Party/LwIP/src/core/pbuf.c ****   if ((p == NULL) || (header_size_increment > 0xFFFF)) {
 279              		.loc 1 479 3 discriminator 1 view .LVU89
 280 0046 0C48     		ldr	r0, .L24+8
 281              	.LVL17:
 479:Middlewares/Third_Party/LwIP/src/core/pbuf.c ****   if ((p == NULL) || (header_size_increment > 0xFFFF)) {
 282              		.loc 1 479 3 discriminator 1 view .LVU90
 283 0048 FFF7FEFF 		bl	printf
 284              	.LVL18:
 285 004c DDE7     		b	.L12
 286              	.LVL19:
 287              	.L23:
 498:Middlewares/Third_Party/LwIP/src/core/pbuf.c ****     /* boundary check fails? */
 288              		.loc 1 498 5 is_stmt 1 view .LVU91
 498:Middlewares/Third_Party/LwIP/src/core/pbuf.c ****     /* boundary check fails? */
 289              		.loc 1 498 24 is_stmt 0 view .LVU92
 290 004e 6968     		ldr	r1, [r5, #4]
 498:Middlewares/Third_Party/LwIP/src/core/pbuf.c ****     /* boundary check fails? */
 291              		.loc 1 498 13 view .LVU93
 292 0050 0C1B     		subs	r4, r1, r4
 293              	.LVL20:
 500:Middlewares/Third_Party/LwIP/src/core/pbuf.c ****       LWIP_DEBUGF( PBUF_DEBUG | LWIP_DBG_TRACE,
 294              		.loc 1 500 5 is_stmt 1 view .LVU94
 500:Middlewares/Third_Party/LwIP/src/core/pbuf.c ****       LWIP_DEBUGF( PBUF_DEBUG | LWIP_DBG_TRACE,
 295              		.loc 1 500 37 is_stmt 0 view .LVU95
 296 0052 05F11001 		add	r1, r5, #16
 500:Middlewares/Third_Party/LwIP/src/core/pbuf.c ****       LWIP_DEBUGF( PBUF_DEBUG | LWIP_DBG_TRACE,
 297              		.loc 1 500 8 view .LVU96
 298 0056 A142     		cmp	r1, r4
 299 0058 EAD9     		bls	.L15
 505:Middlewares/Third_Party/LwIP/src/core/pbuf.c ****     }
 300              		.loc 1 505 14 view .LVU97
 301 005a 0120     		movs	r0, #1
 302 005c 00E0     		b	.L13
 303              	.LVL21:
 304              	.L16:
 481:Middlewares/Third_Party/LwIP/src/core/pbuf.c ****   }
 305              		.loc 1 481 12 view .LVU98
 306 005e 0120     		movs	r0, #1
 307              	.LVL22:
 308              	.L13:
 528:Middlewares/Third_Party/LwIP/src/core/pbuf.c **** 
 309              		.loc 1 528 1 view .LVU99
 310 0060 70BD     		pop	{r4, r5, r6, pc}
 311              	.LVL23:
 312              	.L17:
 484:Middlewares/Third_Party/LwIP/src/core/pbuf.c ****   }
 313              		.loc 1 484 12 view .LVU100
 314 0062 0020     		movs	r0, #0
ARM GAS  /var/folders/bg/n1lwdyp56391g865_v8nrmhm0000gn/T//cc4exhWb.s 			page 28


 315 0064 FCE7     		b	.L13
 316              	.LVL24:
 317              	.L18:
 490:Middlewares/Third_Party/LwIP/src/core/pbuf.c ****   }
 318              		.loc 1 490 12 view .LVU101
 319 0066 0120     		movs	r0, #1
 320 0068 FAE7     		b	.L13
 321              	.LVL25:
 322              	.L20:
 515:Middlewares/Third_Party/LwIP/src/core/pbuf.c ****     }
 323              		.loc 1 515 14 view .LVU102
 324 006a 0120     		movs	r0, #1
 325 006c F8E7     		b	.L13
 326              	.L25:
 327 006e 00BF     		.align	2
 328              	.L24:
 329 0070 00000000 		.word	.LC0
 330 0074 30000000 		.word	.LC1
 331 0078 3C000000 		.word	.LC2
 332              		.cfi_endproc
 333              	.LFE174:
 335              		.section	.text.pbuf_free_ooseq,"ax",%progbits
 336              		.align	1
 337              		.global	pbuf_free_ooseq
 338              		.syntax unified
 339              		.thumb
 340              		.thumb_func
 341              		.fpu fpv5-d16
 343              	pbuf_free_ooseq:
 344              	.LFB167:
 129:Middlewares/Third_Party/LwIP/src/core/pbuf.c ****   struct tcp_pcb *pcb;
 345              		.loc 1 129 1 is_stmt 1 view -0
 346              		.cfi_startproc
 347              		@ args = 0, pretend = 0, frame = 0
 348              		@ frame_needed = 0, uses_anonymous_args = 0
 349 0000 08B5     		push	{r3, lr}
 350              	.LCFI3:
 351              		.cfi_def_cfa_offset 8
 352              		.cfi_offset 3, -8
 353              		.cfi_offset 14, -4
 130:Middlewares/Third_Party/LwIP/src/core/pbuf.c ****   SYS_ARCH_SET(pbuf_free_ooseq_pending, 0);
 354              		.loc 1 130 3 view .LVU104
 131:Middlewares/Third_Party/LwIP/src/core/pbuf.c **** 
 355              		.loc 1 131 3 view .LVU105
 131:Middlewares/Third_Party/LwIP/src/core/pbuf.c **** 
 356              		.loc 1 131 3 view .LVU106
 131:Middlewares/Third_Party/LwIP/src/core/pbuf.c **** 
 357              		.loc 1 131 3 view .LVU107
 131:Middlewares/Third_Party/LwIP/src/core/pbuf.c **** 
 358              		.loc 1 131 3 view .LVU108
 359 0002 074B     		ldr	r3, .L32
 360 0004 0022     		movs	r2, #0
 361 0006 1A70     		strb	r2, [r3]
 131:Middlewares/Third_Party/LwIP/src/core/pbuf.c **** 
 362              		.loc 1 131 3 view .LVU109
 131:Middlewares/Third_Party/LwIP/src/core/pbuf.c **** 
 363              		.loc 1 131 3 view .LVU110
ARM GAS  /var/folders/bg/n1lwdyp56391g865_v8nrmhm0000gn/T//cc4exhWb.s 			page 29


 133:Middlewares/Third_Party/LwIP/src/core/pbuf.c ****     if (pcb->ooseq != NULL) {
 364              		.loc 1 133 3 view .LVU111
 133:Middlewares/Third_Party/LwIP/src/core/pbuf.c ****     if (pcb->ooseq != NULL) {
 365              		.loc 1 133 12 is_stmt 0 view .LVU112
 366 0008 064B     		ldr	r3, .L32+4
 367 000a 1868     		ldr	r0, [r3]
 368              	.LVL26:
 133:Middlewares/Third_Party/LwIP/src/core/pbuf.c ****     if (pcb->ooseq != NULL) {
 369              		.loc 1 133 3 view .LVU113
 370 000c 00E0     		b	.L27
 371              	.L28:
 133:Middlewares/Third_Party/LwIP/src/core/pbuf.c ****     if (pcb->ooseq != NULL) {
 372              		.loc 1 133 44 is_stmt 1 discriminator 2 view .LVU114
 133:Middlewares/Third_Party/LwIP/src/core/pbuf.c ****     if (pcb->ooseq != NULL) {
 373              		.loc 1 133 48 is_stmt 0 discriminator 2 view .LVU115
 374 000e C068     		ldr	r0, [r0, #12]
 375              	.LVL27:
 376              	.L27:
 133:Middlewares/Third_Party/LwIP/src/core/pbuf.c ****     if (pcb->ooseq != NULL) {
 377              		.loc 1 133 31 is_stmt 1 discriminator 1 view .LVU116
 133:Middlewares/Third_Party/LwIP/src/core/pbuf.c ****     if (pcb->ooseq != NULL) {
 378              		.loc 1 133 3 is_stmt 0 discriminator 1 view .LVU117
 379 0010 20B1     		cbz	r0, .L26
 134:Middlewares/Third_Party/LwIP/src/core/pbuf.c ****       /** Free the ooseq pbufs of one PCB only */
 380              		.loc 1 134 5 is_stmt 1 view .LVU118
 134:Middlewares/Third_Party/LwIP/src/core/pbuf.c ****       /** Free the ooseq pbufs of one PCB only */
 381              		.loc 1 134 12 is_stmt 0 view .LVU119
 382 0012 436F     		ldr	r3, [r0, #116]
 134:Middlewares/Third_Party/LwIP/src/core/pbuf.c ****       /** Free the ooseq pbufs of one PCB only */
 383              		.loc 1 134 8 view .LVU120
 384 0014 002B     		cmp	r3, #0
 385 0016 FAD0     		beq	.L28
 136:Middlewares/Third_Party/LwIP/src/core/pbuf.c ****       tcp_free_ooseq(pcb);
 386              		.loc 1 136 101 is_stmt 1 view .LVU121
 137:Middlewares/Third_Party/LwIP/src/core/pbuf.c ****       return;
 387              		.loc 1 137 7 view .LVU122
 388 0018 FFF7FEFF 		bl	tcp_free_ooseq
 389              	.LVL28:
 138:Middlewares/Third_Party/LwIP/src/core/pbuf.c ****     }
 390              		.loc 1 138 7 view .LVU123
 391              	.L26:
 141:Middlewares/Third_Party/LwIP/src/core/pbuf.c **** 
 392              		.loc 1 141 1 is_stmt 0 view .LVU124
 393 001c 08BD     		pop	{r3, pc}
 394              	.L33:
 395 001e 00BF     		.align	2
 396              	.L32:
 397 0020 00000000 		.word	.LANCHOR0
 398 0024 00000000 		.word	tcp_active_pcbs
 399              		.cfi_endproc
 400              	.LFE167:
 402              		.section	.rodata.pbuf_alloc_reference.str1.4,"aMS",%progbits,1
 403              		.align	2
 404              	.LC3:
 405 0000 696E7661 		.ascii	"invalid pbuf_type\000"
 405      6C696420 
 405      70627566 
ARM GAS  /var/folders/bg/n1lwdyp56391g865_v8nrmhm0000gn/T//cc4exhWb.s 			page 30


 405      5F747970 
 405      6500
 406              		.section	.text.pbuf_alloc_reference,"ax",%progbits
 407              		.align	1
 408              		.global	pbuf_alloc_reference
 409              		.syntax unified
 410              		.thumb
 411              		.thumb_func
 412              		.fpu fpv5-d16
 414              	pbuf_alloc_reference:
 415              	.LVL29:
 416              	.LFB171:
 328:Middlewares/Third_Party/LwIP/src/core/pbuf.c ****   struct pbuf *p;
 417              		.loc 1 328 1 is_stmt 1 view -0
 418              		.cfi_startproc
 419              		@ args = 0, pretend = 0, frame = 0
 420              		@ frame_needed = 0, uses_anonymous_args = 0
 328:Middlewares/Third_Party/LwIP/src/core/pbuf.c ****   struct pbuf *p;
 421              		.loc 1 328 1 is_stmt 0 view .LVU126
 422 0000 F0B5     		push	{r4, r5, r6, r7, lr}
 423              	.LCFI4:
 424              		.cfi_def_cfa_offset 20
 425              		.cfi_offset 4, -20
 426              		.cfi_offset 5, -16
 427              		.cfi_offset 6, -12
 428              		.cfi_offset 7, -8
 429              		.cfi_offset 14, -4
 430 0002 83B0     		sub	sp, sp, #12
 431              	.LCFI5:
 432              		.cfi_def_cfa_offset 32
 433 0004 0646     		mov	r6, r0
 434 0006 0D46     		mov	r5, r1
 435 0008 1446     		mov	r4, r2
 329:Middlewares/Third_Party/LwIP/src/core/pbuf.c ****   LWIP_ASSERT("invalid pbuf_type", (type == PBUF_REF) || (type == PBUF_ROM));
 436              		.loc 1 329 3 is_stmt 1 view .LVU127
 330:Middlewares/Third_Party/LwIP/src/core/pbuf.c ****   /* only allocate memory for the pbuf structure */
 437              		.loc 1 330 3 view .LVU128
 330:Middlewares/Third_Party/LwIP/src/core/pbuf.c ****   /* only allocate memory for the pbuf structure */
 438              		.loc 1 330 3 view .LVU129
 439 000a 412A     		cmp	r2, #65
 440 000c 18BF     		it	ne
 441 000e 012A     		cmpne	r2, #1
 442 0010 0FD1     		bne	.L38
 443              	.LVL30:
 444              	.L35:
 330:Middlewares/Third_Party/LwIP/src/core/pbuf.c ****   /* only allocate memory for the pbuf structure */
 445              		.loc 1 330 3 discriminator 3 view .LVU130
 330:Middlewares/Third_Party/LwIP/src/core/pbuf.c ****   /* only allocate memory for the pbuf structure */
 446              		.loc 1 330 3 discriminator 3 view .LVU131
 332:Middlewares/Third_Party/LwIP/src/core/pbuf.c ****   if (p == NULL) {
 447              		.loc 1 332 3 discriminator 3 view .LVU132
 332:Middlewares/Third_Party/LwIP/src/core/pbuf.c ****   if (p == NULL) {
 448              		.loc 1 332 22 is_stmt 0 discriminator 3 view .LVU133
 449 0012 0720     		movs	r0, #7
 450 0014 FFF7FEFF 		bl	memp_malloc
 451              	.LVL31:
 333:Middlewares/Third_Party/LwIP/src/core/pbuf.c ****     LWIP_DEBUGF(PBUF_DEBUG | LWIP_DBG_LEVEL_SERIOUS,
ARM GAS  /var/folders/bg/n1lwdyp56391g865_v8nrmhm0000gn/T//cc4exhWb.s 			page 31


 452              		.loc 1 333 3 is_stmt 1 discriminator 3 view .LVU134
 333:Middlewares/Third_Party/LwIP/src/core/pbuf.c ****     LWIP_DEBUGF(PBUF_DEBUG | LWIP_DBG_LEVEL_SERIOUS,
 453              		.loc 1 333 6 is_stmt 0 discriminator 3 view .LVU135
 454 0018 0746     		mov	r7, r0
 455 001a 38B1     		cbz	r0, .L34
 339:Middlewares/Third_Party/LwIP/src/core/pbuf.c ****   return p;
 456              		.loc 1 339 3 is_stmt 1 view .LVU136
 457 001c 0023     		movs	r3, #0
 458 001e 0193     		str	r3, [sp, #4]
 459 0020 0094     		str	r4, [sp]
 460 0022 2B46     		mov	r3, r5
 461 0024 2A46     		mov	r2, r5
 462 0026 3146     		mov	r1, r6
 463 0028 FFF7FEFF 		bl	pbuf_init_alloced_pbuf
 464              	.LVL32:
 340:Middlewares/Third_Party/LwIP/src/core/pbuf.c **** }
 465              		.loc 1 340 3 view .LVU137
 466              	.L34:
 341:Middlewares/Third_Party/LwIP/src/core/pbuf.c **** 
 467              		.loc 1 341 1 is_stmt 0 view .LVU138
 468 002c 3846     		mov	r0, r7
 469 002e 03B0     		add	sp, sp, #12
 470              	.LCFI6:
 471              		.cfi_remember_state
 472              		.cfi_def_cfa_offset 20
 473              		@ sp needed
 474 0030 F0BD     		pop	{r4, r5, r6, r7, pc}
 475              	.LVL33:
 476              	.L38:
 477              	.LCFI7:
 478              		.cfi_restore_state
 330:Middlewares/Third_Party/LwIP/src/core/pbuf.c ****   /* only allocate memory for the pbuf structure */
 479              		.loc 1 330 3 is_stmt 1 discriminator 1 view .LVU139
 330:Middlewares/Third_Party/LwIP/src/core/pbuf.c ****   /* only allocate memory for the pbuf structure */
 480              		.loc 1 330 3 discriminator 1 view .LVU140
 481 0032 044B     		ldr	r3, .L39
 482 0034 4FF4A572 		mov	r2, #330
 483              	.LVL34:
 330:Middlewares/Third_Party/LwIP/src/core/pbuf.c ****   /* only allocate memory for the pbuf structure */
 484              		.loc 1 330 3 is_stmt 0 discriminator 1 view .LVU141
 485 0038 0349     		ldr	r1, .L39+4
 486              	.LVL35:
 330:Middlewares/Third_Party/LwIP/src/core/pbuf.c ****   /* only allocate memory for the pbuf structure */
 487              		.loc 1 330 3 discriminator 1 view .LVU142
 488 003a 0448     		ldr	r0, .L39+8
 489              	.LVL36:
 330:Middlewares/Third_Party/LwIP/src/core/pbuf.c ****   /* only allocate memory for the pbuf structure */
 490              		.loc 1 330 3 discriminator 1 view .LVU143
 491 003c FFF7FEFF 		bl	printf
 492              	.LVL37:
 493 0040 E7E7     		b	.L35
 494              	.L40:
 495 0042 00BF     		.align	2
 496              	.L39:
 497 0044 00000000 		.word	.LC0
 498 0048 00000000 		.word	.LC3
 499 004c 3C000000 		.word	.LC2
ARM GAS  /var/folders/bg/n1lwdyp56391g865_v8nrmhm0000gn/T//cc4exhWb.s 			page 32


 500              		.cfi_endproc
 501              	.LFE171:
 503              		.section	.text.pbuf_alloced_custom,"ax",%progbits
 504              		.align	1
 505              		.global	pbuf_alloced_custom
 506              		.syntax unified
 507              		.thumb
 508              		.thumb_func
 509              		.fpu fpv5-d16
 511              	pbuf_alloced_custom:
 512              	.LVL38:
 513              	.LFB172:
 365:Middlewares/Third_Party/LwIP/src/core/pbuf.c ****   u16_t offset = (u16_t)l;
 514              		.loc 1 365 1 is_stmt 1 view -0
 515              		.cfi_startproc
 516              		@ args = 8, pretend = 0, frame = 0
 517              		@ frame_needed = 0, uses_anonymous_args = 0
 365:Middlewares/Third_Party/LwIP/src/core/pbuf.c ****   u16_t offset = (u16_t)l;
 518              		.loc 1 365 1 is_stmt 0 view .LVU145
 519 0000 30B5     		push	{r4, r5, lr}
 520              	.LCFI8:
 521              		.cfi_def_cfa_offset 12
 522              		.cfi_offset 4, -12
 523              		.cfi_offset 5, -8
 524              		.cfi_offset 14, -4
 525 0002 83B0     		sub	sp, sp, #12
 526              	.LCFI9:
 527              		.cfi_def_cfa_offset 24
 528 0004 8E46     		mov	lr, r1
 529 0006 1C46     		mov	r4, r3
 530 0008 0699     		ldr	r1, [sp, #24]
 531              	.LVL39:
 366:Middlewares/Third_Party/LwIP/src/core/pbuf.c ****   void *payload;
 532              		.loc 1 366 3 is_stmt 1 view .LVU146
 367:Middlewares/Third_Party/LwIP/src/core/pbuf.c ****   LWIP_DEBUGF(PBUF_DEBUG | LWIP_DBG_TRACE, ("pbuf_alloced_custom(length=%"U16_F")\n", length));
 533              		.loc 1 367 3 view .LVU147
 368:Middlewares/Third_Party/LwIP/src/core/pbuf.c **** 
 534              		.loc 1 368 95 view .LVU148
 370:Middlewares/Third_Party/LwIP/src/core/pbuf.c ****     LWIP_DEBUGF(PBUF_DEBUG | LWIP_DBG_LEVEL_WARNING, ("pbuf_alloced_custom(length=%"U16_F") buffer 
 535              		.loc 1 370 3 view .LVU149
 370:Middlewares/Third_Party/LwIP/src/core/pbuf.c ****     LWIP_DEBUGF(PBUF_DEBUG | LWIP_DBG_LEVEL_WARNING, ("pbuf_alloced_custom(length=%"U16_F") buffer 
 536              		.loc 1 370 7 is_stmt 0 view .LVU150
 537 000a 00F1030C 		add	ip, r0, #3
 538 000e 2CF0030C 		bic	ip, ip, #3
 370:Middlewares/Third_Party/LwIP/src/core/pbuf.c ****     LWIP_DEBUGF(PBUF_DEBUG | LWIP_DBG_LEVEL_WARNING, ("pbuf_alloced_custom(length=%"U16_F") buffer 
 539              		.loc 1 370 35 view .LVU151
 540 0012 0EEB0C00 		add	r0, lr, ip
 541              	.LVL40:
 370:Middlewares/Third_Party/LwIP/src/core/pbuf.c ****     LWIP_DEBUGF(PBUF_DEBUG | LWIP_DBG_LEVEL_WARNING, ("pbuf_alloced_custom(length=%"U16_F") buffer 
 542              		.loc 1 370 6 view .LVU152
 543 0016 BDF81C30 		ldrh	r3, [sp, #28]
 544              	.LVL41:
 370:Middlewares/Third_Party/LwIP/src/core/pbuf.c ****     LWIP_DEBUGF(PBUF_DEBUG | LWIP_DBG_LEVEL_WARNING, ("pbuf_alloced_custom(length=%"U16_F") buffer 
 545              		.loc 1 370 6 view .LVU153
 546 001a 9842     		cmp	r0, r3
 547 001c 0DD8     		bhi	.L44
 375:Middlewares/Third_Party/LwIP/src/core/pbuf.c ****     payload = (u8_t *)payload_mem + LWIP_MEM_ALIGN_SIZE(offset);
ARM GAS  /var/folders/bg/n1lwdyp56391g865_v8nrmhm0000gn/T//cc4exhWb.s 			page 33


 548              		.loc 1 375 3 is_stmt 1 view .LVU154
 375:Middlewares/Third_Party/LwIP/src/core/pbuf.c ****     payload = (u8_t *)payload_mem + LWIP_MEM_ALIGN_SIZE(offset);
 549              		.loc 1 375 6 is_stmt 0 view .LVU155
 550 001e 01B1     		cbz	r1, .L43
 376:Middlewares/Third_Party/LwIP/src/core/pbuf.c ****   } else {
 551              		.loc 1 376 5 is_stmt 1 view .LVU156
 376:Middlewares/Third_Party/LwIP/src/core/pbuf.c ****   } else {
 552              		.loc 1 376 13 is_stmt 0 view .LVU157
 553 0020 6144     		add	r1, r1, ip
 554              	.LVL42:
 555              	.L43:
 380:Middlewares/Third_Party/LwIP/src/core/pbuf.c ****   return &p->pbuf;
 556              		.loc 1 380 3 is_stmt 1 view .LVU158
 557 0022 2546     		mov	r5, r4
 558 0024 0223     		movs	r3, #2
 559 0026 0193     		str	r3, [sp, #4]
 560 0028 0092     		str	r2, [sp]
 561 002a 7346     		mov	r3, lr
 562 002c 7246     		mov	r2, lr
 563              	.LVL43:
 380:Middlewares/Third_Party/LwIP/src/core/pbuf.c ****   return &p->pbuf;
 564              		.loc 1 380 3 is_stmt 0 view .LVU159
 565 002e 2046     		mov	r0, r4
 566 0030 FFF7FEFF 		bl	pbuf_init_alloced_pbuf
 567              	.LVL44:
 381:Middlewares/Third_Party/LwIP/src/core/pbuf.c **** }
 568              		.loc 1 381 3 is_stmt 1 view .LVU160
 569              	.L41:
 382:Middlewares/Third_Party/LwIP/src/core/pbuf.c **** #endif /* LWIP_SUPPORT_CUSTOM_PBUF */
 570              		.loc 1 382 1 is_stmt 0 view .LVU161
 571 0034 2846     		mov	r0, r5
 572 0036 03B0     		add	sp, sp, #12
 573              	.LCFI10:
 574              		.cfi_remember_state
 575              		.cfi_def_cfa_offset 12
 576              		@ sp needed
 577 0038 30BD     		pop	{r4, r5, pc}
 578              	.LVL45:
 579              	.L44:
 580              	.LCFI11:
 581              		.cfi_restore_state
 372:Middlewares/Third_Party/LwIP/src/core/pbuf.c ****   }
 582              		.loc 1 372 12 view .LVU162
 583 003a 0025     		movs	r5, #0
 584 003c FAE7     		b	.L41
 585              		.cfi_endproc
 586              	.LFE172:
 588              		.section	.text.pbuf_add_header,"ax",%progbits
 589              		.align	1
 590              		.global	pbuf_add_header
 591              		.syntax unified
 592              		.thumb
 593              		.thumb_func
 594              		.fpu fpv5-d16
 596              	pbuf_add_header:
 597              	.LVL46:
 598              	.LFB175:
ARM GAS  /var/folders/bg/n1lwdyp56391g865_v8nrmhm0000gn/T//cc4exhWb.s 			page 34


 552:Middlewares/Third_Party/LwIP/src/core/pbuf.c ****   return pbuf_add_header_impl(p, header_size_increment, 0);
 599              		.loc 1 552 1 is_stmt 1 view -0
 600              		.cfi_startproc
 601              		@ args = 0, pretend = 0, frame = 0
 602              		@ frame_needed = 0, uses_anonymous_args = 0
 552:Middlewares/Third_Party/LwIP/src/core/pbuf.c ****   return pbuf_add_header_impl(p, header_size_increment, 0);
 603              		.loc 1 552 1 is_stmt 0 view .LVU164
 604 0000 08B5     		push	{r3, lr}
 605              	.LCFI12:
 606              		.cfi_def_cfa_offset 8
 607              		.cfi_offset 3, -8
 608              		.cfi_offset 14, -4
 553:Middlewares/Third_Party/LwIP/src/core/pbuf.c **** }
 609              		.loc 1 553 3 is_stmt 1 view .LVU165
 553:Middlewares/Third_Party/LwIP/src/core/pbuf.c **** }
 610              		.loc 1 553 10 is_stmt 0 view .LVU166
 611 0002 0022     		movs	r2, #0
 612 0004 FFF7FEFF 		bl	pbuf_add_header_impl
 613              	.LVL47:
 554:Middlewares/Third_Party/LwIP/src/core/pbuf.c **** 
 614              		.loc 1 554 1 view .LVU167
 615 0008 08BD     		pop	{r3, pc}
 616              		.cfi_endproc
 617              	.LFE175:
 619              		.section	.text.pbuf_add_header_force,"ax",%progbits
 620              		.align	1
 621              		.global	pbuf_add_header_force
 622              		.syntax unified
 623              		.thumb
 624              		.thumb_func
 625              		.fpu fpv5-d16
 627              	pbuf_add_header_force:
 628              	.LVL48:
 629              	.LFB176:
 562:Middlewares/Third_Party/LwIP/src/core/pbuf.c ****   return pbuf_add_header_impl(p, header_size_increment, 1);
 630              		.loc 1 562 1 is_stmt 1 view -0
 631              		.cfi_startproc
 632              		@ args = 0, pretend = 0, frame = 0
 633              		@ frame_needed = 0, uses_anonymous_args = 0
 562:Middlewares/Third_Party/LwIP/src/core/pbuf.c ****   return pbuf_add_header_impl(p, header_size_increment, 1);
 634              		.loc 1 562 1 is_stmt 0 view .LVU169
 635 0000 08B5     		push	{r3, lr}
 636              	.LCFI13:
 637              		.cfi_def_cfa_offset 8
 638              		.cfi_offset 3, -8
 639              		.cfi_offset 14, -4
 563:Middlewares/Third_Party/LwIP/src/core/pbuf.c **** }
 640              		.loc 1 563 3 is_stmt 1 view .LVU170
 563:Middlewares/Third_Party/LwIP/src/core/pbuf.c **** }
 641              		.loc 1 563 10 is_stmt 0 view .LVU171
 642 0002 0122     		movs	r2, #1
 643 0004 FFF7FEFF 		bl	pbuf_add_header_impl
 644              	.LVL49:
 564:Middlewares/Third_Party/LwIP/src/core/pbuf.c **** 
 645              		.loc 1 564 1 view .LVU172
 646 0008 08BD     		pop	{r3, pc}
 647              		.cfi_endproc
ARM GAS  /var/folders/bg/n1lwdyp56391g865_v8nrmhm0000gn/T//cc4exhWb.s 			page 35


 648              	.LFE176:
 650              		.section	.rodata.pbuf_remove_header.str1.4,"aMS",%progbits,1
 651              		.align	2
 652              	.LC4:
 653 0000 696E6372 		.ascii	"increment_magnitude <= p->len\000"
 653      656D656E 
 653      745F6D61 
 653      676E6974 
 653      75646520 
 654              		.section	.text.pbuf_remove_header,"ax",%progbits
 655              		.align	1
 656              		.global	pbuf_remove_header
 657              		.syntax unified
 658              		.thumb
 659              		.thumb_func
 660              		.fpu fpv5-d16
 662              	pbuf_remove_header:
 663              	.LVL50:
 664              	.LFB177:
 583:Middlewares/Third_Party/LwIP/src/core/pbuf.c ****   void *payload;
 665              		.loc 1 583 1 is_stmt 1 view -0
 666              		.cfi_startproc
 667              		@ args = 0, pretend = 0, frame = 0
 668              		@ frame_needed = 0, uses_anonymous_args = 0
 583:Middlewares/Third_Party/LwIP/src/core/pbuf.c ****   void *payload;
 669              		.loc 1 583 1 is_stmt 0 view .LVU174
 670 0000 38B5     		push	{r3, r4, r5, lr}
 671              	.LCFI14:
 672              		.cfi_def_cfa_offset 16
 673              		.cfi_offset 3, -16
 674              		.cfi_offset 4, -12
 675              		.cfi_offset 5, -8
 676              		.cfi_offset 14, -4
 677 0002 0C46     		mov	r4, r1
 584:Middlewares/Third_Party/LwIP/src/core/pbuf.c ****   u16_t increment_magnitude;
 678              		.loc 1 584 3 is_stmt 1 view .LVU175
 585:Middlewares/Third_Party/LwIP/src/core/pbuf.c **** 
 679              		.loc 1 585 3 view .LVU176
 587:Middlewares/Third_Party/LwIP/src/core/pbuf.c ****   if ((p == NULL) || (header_size_decrement > 0xFFFF)) {
 680              		.loc 1 587 3 view .LVU177
 587:Middlewares/Third_Party/LwIP/src/core/pbuf.c ****   if ((p == NULL) || (header_size_decrement > 0xFFFF)) {
 681              		.loc 1 587 3 view .LVU178
 682 0004 0546     		mov	r5, r0
 683 0006 98B1     		cbz	r0, .L57
 684              	.LVL51:
 685              	.L51:
 587:Middlewares/Third_Party/LwIP/src/core/pbuf.c ****   if ((p == NULL) || (header_size_decrement > 0xFFFF)) {
 686              		.loc 1 587 3 discriminator 3 view .LVU179
 587:Middlewares/Third_Party/LwIP/src/core/pbuf.c ****   if ((p == NULL) || (header_size_decrement > 0xFFFF)) {
 687              		.loc 1 587 3 discriminator 3 view .LVU180
 588:Middlewares/Third_Party/LwIP/src/core/pbuf.c ****     return 1;
 688              		.loc 1 588 3 discriminator 3 view .LVU181
 588:Middlewares/Third_Party/LwIP/src/core/pbuf.c ****     return 1;
 689              		.loc 1 588 6 is_stmt 0 discriminator 3 view .LVU182
 690 0008 002D     		cmp	r5, #0
 691 000a 18BF     		it	ne
 692 000c B4F5803F 		cmpne	r4, #65536
ARM GAS  /var/folders/bg/n1lwdyp56391g865_v8nrmhm0000gn/T//cc4exhWb.s 			page 36


 693 0010 1FD2     		bcs	.L54
 591:Middlewares/Third_Party/LwIP/src/core/pbuf.c ****     return 0;
 694              		.loc 1 591 3 is_stmt 1 view .LVU183
 591:Middlewares/Third_Party/LwIP/src/core/pbuf.c ****     return 0;
 695              		.loc 1 591 6 is_stmt 0 view .LVU184
 696 0012 04B3     		cbz	r4, .L55
 595:Middlewares/Third_Party/LwIP/src/core/pbuf.c ****   /* Check that we aren't going to move off the end of the pbuf */
 697              		.loc 1 595 3 is_stmt 1 view .LVU185
 595:Middlewares/Third_Party/LwIP/src/core/pbuf.c ****   /* Check that we aren't going to move off the end of the pbuf */
 698              		.loc 1 595 23 is_stmt 0 view .LVU186
 699 0014 A2B2     		uxth	r2, r4
 700              	.LVL52:
 597:Middlewares/Third_Party/LwIP/src/core/pbuf.c **** 
 701              		.loc 1 597 3 is_stmt 1 view .LVU187
 597:Middlewares/Third_Party/LwIP/src/core/pbuf.c **** 
 702              		.loc 1 597 3 view .LVU188
 703 0016 6B89     		ldrh	r3, [r5, #10]
 704 0018 9342     		cmp	r3, r2
 705 001a 11D3     		bcc	.L58
 597:Middlewares/Third_Party/LwIP/src/core/pbuf.c **** 
 706              		.loc 1 597 3 discriminator 2 view .LVU189
 597:Middlewares/Third_Party/LwIP/src/core/pbuf.c **** 
 707              		.loc 1 597 3 discriminator 2 view .LVU190
 600:Middlewares/Third_Party/LwIP/src/core/pbuf.c ****   LWIP_UNUSED_ARG(payload); /* only used in LWIP_DEBUGF below */
 708              		.loc 1 600 3 discriminator 2 view .LVU191
 600:Middlewares/Third_Party/LwIP/src/core/pbuf.c ****   LWIP_UNUSED_ARG(payload); /* only used in LWIP_DEBUGF below */
 709              		.loc 1 600 11 is_stmt 0 discriminator 2 view .LVU192
 710 001c 6968     		ldr	r1, [r5, #4]
 711              	.LVL53:
 601:Middlewares/Third_Party/LwIP/src/core/pbuf.c **** 
 712              		.loc 1 601 3 is_stmt 1 discriminator 2 view .LVU193
 604:Middlewares/Third_Party/LwIP/src/core/pbuf.c ****   /* modify pbuf length fields */
 713              		.loc 1 604 3 discriminator 2 view .LVU194
 604:Middlewares/Third_Party/LwIP/src/core/pbuf.c ****   /* modify pbuf length fields */
 714              		.loc 1 604 35 is_stmt 0 discriminator 2 view .LVU195
 715 001e 2144     		add	r1, r1, r4
 716              	.LVL54:
 604:Middlewares/Third_Party/LwIP/src/core/pbuf.c ****   /* modify pbuf length fields */
 717              		.loc 1 604 14 discriminator 2 view .LVU196
 718 0020 6960     		str	r1, [r5, #4]
 719              	.LVL55:
 606:Middlewares/Third_Party/LwIP/src/core/pbuf.c ****   p->tot_len = (u16_t)(p->tot_len - increment_magnitude);
 720              		.loc 1 606 3 is_stmt 1 discriminator 2 view .LVU197
 606:Middlewares/Third_Party/LwIP/src/core/pbuf.c ****   p->tot_len = (u16_t)(p->tot_len - increment_magnitude);
 721              		.loc 1 606 12 is_stmt 0 discriminator 2 view .LVU198
 722 0022 9B1A     		subs	r3, r3, r2
 606:Middlewares/Third_Party/LwIP/src/core/pbuf.c ****   p->tot_len = (u16_t)(p->tot_len - increment_magnitude);
 723              		.loc 1 606 10 discriminator 2 view .LVU199
 724 0024 6B81     		strh	r3, [r5, #10]	@ movhi
 607:Middlewares/Third_Party/LwIP/src/core/pbuf.c **** 
 725              		.loc 1 607 3 is_stmt 1 discriminator 2 view .LVU200
 607:Middlewares/Third_Party/LwIP/src/core/pbuf.c **** 
 726              		.loc 1 607 25 is_stmt 0 discriminator 2 view .LVU201
 727 0026 2B89     		ldrh	r3, [r5, #8]
 607:Middlewares/Third_Party/LwIP/src/core/pbuf.c **** 
 728              		.loc 1 607 16 discriminator 2 view .LVU202
 729 0028 9A1A     		subs	r2, r3, r2
ARM GAS  /var/folders/bg/n1lwdyp56391g865_v8nrmhm0000gn/T//cc4exhWb.s 			page 37


 730              	.LVL56:
 607:Middlewares/Third_Party/LwIP/src/core/pbuf.c **** 
 731              		.loc 1 607 14 discriminator 2 view .LVU203
 732 002a 2A81     		strh	r2, [r5, #8]	@ movhi
 610:Middlewares/Third_Party/LwIP/src/core/pbuf.c **** 
 733              		.loc 1 610 73 is_stmt 1 discriminator 2 view .LVU204
 612:Middlewares/Third_Party/LwIP/src/core/pbuf.c **** }
 734              		.loc 1 612 3 discriminator 2 view .LVU205
 612:Middlewares/Third_Party/LwIP/src/core/pbuf.c **** }
 735              		.loc 1 612 10 is_stmt 0 discriminator 2 view .LVU206
 736 002c 0020     		movs	r0, #0
 737              	.LVL57:
 738              	.L52:
 613:Middlewares/Third_Party/LwIP/src/core/pbuf.c **** 
 739              		.loc 1 613 1 view .LVU207
 740 002e 38BD     		pop	{r3, r4, r5, pc}
 741              	.LVL58:
 742              	.L57:
 587:Middlewares/Third_Party/LwIP/src/core/pbuf.c ****   if ((p == NULL) || (header_size_decrement > 0xFFFF)) {
 743              		.loc 1 587 3 is_stmt 1 discriminator 1 view .LVU208
 587:Middlewares/Third_Party/LwIP/src/core/pbuf.c ****   if ((p == NULL) || (header_size_decrement > 0xFFFF)) {
 744              		.loc 1 587 3 discriminator 1 view .LVU209
 745 0030 0A4B     		ldr	r3, .L59
 746 0032 40F24B22 		movw	r2, #587
 747 0036 0A49     		ldr	r1, .L59+4
 748              	.LVL59:
 587:Middlewares/Third_Party/LwIP/src/core/pbuf.c ****   if ((p == NULL) || (header_size_decrement > 0xFFFF)) {
 749              		.loc 1 587 3 is_stmt 0 discriminator 1 view .LVU210
 750 0038 0A48     		ldr	r0, .L59+8
 751              	.LVL60:
 587:Middlewares/Third_Party/LwIP/src/core/pbuf.c ****   if ((p == NULL) || (header_size_decrement > 0xFFFF)) {
 752              		.loc 1 587 3 discriminator 1 view .LVU211
 753 003a FFF7FEFF 		bl	printf
 754              	.LVL61:
 755 003e E3E7     		b	.L51
 756              	.LVL62:
 757              	.L58:
 597:Middlewares/Third_Party/LwIP/src/core/pbuf.c **** 
 758              		.loc 1 597 3 is_stmt 1 discriminator 1 view .LVU212
 597:Middlewares/Third_Party/LwIP/src/core/pbuf.c **** 
 759              		.loc 1 597 3 discriminator 1 view .LVU213
 760 0040 064B     		ldr	r3, .L59
 761 0042 40F25522 		movw	r2, #597
 762              	.LVL63:
 597:Middlewares/Third_Party/LwIP/src/core/pbuf.c **** 
 763              		.loc 1 597 3 is_stmt 0 discriminator 1 view .LVU214
 764 0046 0849     		ldr	r1, .L59+12
 765 0048 0648     		ldr	r0, .L59+8
 766 004a FFF7FEFF 		bl	printf
 767              	.LVL64:
 597:Middlewares/Third_Party/LwIP/src/core/pbuf.c **** 
 768              		.loc 1 597 3 is_stmt 1 discriminator 1 view .LVU215
 597:Middlewares/Third_Party/LwIP/src/core/pbuf.c **** 
 769              		.loc 1 597 3 discriminator 1 view .LVU216
 770 004e 0120     		movs	r0, #1
 771 0050 EDE7     		b	.L52
 772              	.LVL65:
ARM GAS  /var/folders/bg/n1lwdyp56391g865_v8nrmhm0000gn/T//cc4exhWb.s 			page 38


 773              	.L54:
 589:Middlewares/Third_Party/LwIP/src/core/pbuf.c ****   }
 774              		.loc 1 589 12 is_stmt 0 view .LVU217
 775 0052 0120     		movs	r0, #1
 776 0054 EBE7     		b	.L52
 777              	.L55:
 592:Middlewares/Third_Party/LwIP/src/core/pbuf.c ****   }
 778              		.loc 1 592 12 view .LVU218
 779 0056 0020     		movs	r0, #0
 780 0058 E9E7     		b	.L52
 781              	.L60:
 782 005a 00BF     		.align	2
 783              	.L59:
 784 005c 00000000 		.word	.LC0
 785 0060 30000000 		.word	.LC1
 786 0064 3C000000 		.word	.LC2
 787 0068 00000000 		.word	.LC4
 788              		.cfi_endproc
 789              	.LFE177:
 791              		.section	.text.pbuf_header_impl,"ax",%progbits
 792              		.align	1
 793              		.syntax unified
 794              		.thumb
 795              		.thumb_func
 796              		.fpu fpv5-d16
 798              	pbuf_header_impl:
 799              	.LVL66:
 800              	.LFB178:
 617:Middlewares/Third_Party/LwIP/src/core/pbuf.c ****   if (header_size_increment < 0) {
 801              		.loc 1 617 1 is_stmt 1 view -0
 802              		.cfi_startproc
 803              		@ args = 0, pretend = 0, frame = 0
 804              		@ frame_needed = 0, uses_anonymous_args = 0
 617:Middlewares/Third_Party/LwIP/src/core/pbuf.c ****   if (header_size_increment < 0) {
 805              		.loc 1 617 1 is_stmt 0 view .LVU220
 806 0000 08B5     		push	{r3, lr}
 807              	.LCFI15:
 808              		.cfi_def_cfa_offset 8
 809              		.cfi_offset 3, -8
 810              		.cfi_offset 14, -4
 618:Middlewares/Third_Party/LwIP/src/core/pbuf.c ****     return pbuf_remove_header(p, (size_t) - header_size_increment);
 811              		.loc 1 618 3 is_stmt 1 view .LVU221
 618:Middlewares/Third_Party/LwIP/src/core/pbuf.c ****     return pbuf_remove_header(p, (size_t) - header_size_increment);
 812              		.loc 1 618 6 is_stmt 0 view .LVU222
 813 0002 0029     		cmp	r1, #0
 814              	.LVL67:
 618:Middlewares/Third_Party/LwIP/src/core/pbuf.c ****     return pbuf_remove_header(p, (size_t) - header_size_increment);
 815              		.loc 1 618 6 view .LVU223
 816 0004 02DB     		blt	.L65
 621:Middlewares/Third_Party/LwIP/src/core/pbuf.c ****   }
 817              		.loc 1 621 5 is_stmt 1 view .LVU224
 621:Middlewares/Third_Party/LwIP/src/core/pbuf.c ****   }
 818              		.loc 1 621 12 is_stmt 0 view .LVU225
 819 0006 FFF7FEFF 		bl	pbuf_add_header_impl
 820              	.LVL68:
 821              	.L63:
 623:Middlewares/Third_Party/LwIP/src/core/pbuf.c **** 
ARM GAS  /var/folders/bg/n1lwdyp56391g865_v8nrmhm0000gn/T//cc4exhWb.s 			page 39


 822              		.loc 1 623 1 view .LVU226
 823 000a 08BD     		pop	{r3, pc}
 824              	.LVL69:
 825              	.L65:
 619:Middlewares/Third_Party/LwIP/src/core/pbuf.c ****   } else {
 826              		.loc 1 619 5 is_stmt 1 view .LVU227
 619:Middlewares/Third_Party/LwIP/src/core/pbuf.c ****   } else {
 827              		.loc 1 619 12 is_stmt 0 view .LVU228
 828 000c 4942     		rsbs	r1, r1, #0
 829 000e FFF7FEFF 		bl	pbuf_remove_header
 830              	.LVL70:
 619:Middlewares/Third_Party/LwIP/src/core/pbuf.c ****   } else {
 831              		.loc 1 619 12 view .LVU229
 832 0012 FAE7     		b	.L63
 833              		.cfi_endproc
 834              	.LFE178:
 836              		.section	.text.pbuf_header,"ax",%progbits
 837              		.align	1
 838              		.global	pbuf_header
 839              		.syntax unified
 840              		.thumb
 841              		.thumb_func
 842              		.fpu fpv5-d16
 844              	pbuf_header:
 845              	.LVL71:
 846              	.LFB179:
 647:Middlewares/Third_Party/LwIP/src/core/pbuf.c ****   return pbuf_header_impl(p, header_size_increment, 0);
 847              		.loc 1 647 1 is_stmt 1 view -0
 848              		.cfi_startproc
 849              		@ args = 0, pretend = 0, frame = 0
 850              		@ frame_needed = 0, uses_anonymous_args = 0
 647:Middlewares/Third_Party/LwIP/src/core/pbuf.c ****   return pbuf_header_impl(p, header_size_increment, 0);
 851              		.loc 1 647 1 is_stmt 0 view .LVU231
 852 0000 08B5     		push	{r3, lr}
 853              	.LCFI16:
 854              		.cfi_def_cfa_offset 8
 855              		.cfi_offset 3, -8
 856              		.cfi_offset 14, -4
 648:Middlewares/Third_Party/LwIP/src/core/pbuf.c **** }
 857              		.loc 1 648 3 is_stmt 1 view .LVU232
 648:Middlewares/Third_Party/LwIP/src/core/pbuf.c **** }
 858              		.loc 1 648 10 is_stmt 0 view .LVU233
 859 0002 0022     		movs	r2, #0
 860 0004 FFF7FEFF 		bl	pbuf_header_impl
 861              	.LVL72:
 649:Middlewares/Third_Party/LwIP/src/core/pbuf.c **** 
 862              		.loc 1 649 1 view .LVU234
 863 0008 08BD     		pop	{r3, pc}
 864              		.cfi_endproc
 865              	.LFE179:
 867              		.section	.text.pbuf_header_force,"ax",%progbits
 868              		.align	1
 869              		.global	pbuf_header_force
 870              		.syntax unified
 871              		.thumb
 872              		.thumb_func
 873              		.fpu fpv5-d16
ARM GAS  /var/folders/bg/n1lwdyp56391g865_v8nrmhm0000gn/T//cc4exhWb.s 			page 40


 875              	pbuf_header_force:
 876              	.LVL73:
 877              	.LFB180:
 657:Middlewares/Third_Party/LwIP/src/core/pbuf.c ****   return pbuf_header_impl(p, header_size_increment, 1);
 878              		.loc 1 657 1 is_stmt 1 view -0
 879              		.cfi_startproc
 880              		@ args = 0, pretend = 0, frame = 0
 881              		@ frame_needed = 0, uses_anonymous_args = 0
 657:Middlewares/Third_Party/LwIP/src/core/pbuf.c ****   return pbuf_header_impl(p, header_size_increment, 1);
 882              		.loc 1 657 1 is_stmt 0 view .LVU236
 883 0000 08B5     		push	{r3, lr}
 884              	.LCFI17:
 885              		.cfi_def_cfa_offset 8
 886              		.cfi_offset 3, -8
 887              		.cfi_offset 14, -4
 658:Middlewares/Third_Party/LwIP/src/core/pbuf.c **** }
 888              		.loc 1 658 3 is_stmt 1 view .LVU237
 658:Middlewares/Third_Party/LwIP/src/core/pbuf.c **** }
 889              		.loc 1 658 10 is_stmt 0 view .LVU238
 890 0002 0122     		movs	r2, #1
 891 0004 FFF7FEFF 		bl	pbuf_header_impl
 892              	.LVL74:
 659:Middlewares/Third_Party/LwIP/src/core/pbuf.c **** 
 893              		.loc 1 659 1 view .LVU239
 894 0008 08BD     		pop	{r3, pc}
 895              		.cfi_endproc
 896              	.LFE180:
 898              		.section	.rodata.pbuf_free.str1.4,"aMS",%progbits,1
 899              		.align	2
 900              	.LC5:
 901 0000 70627566 		.ascii	"pbuf_free: p->ref > 0\000"
 901      5F667265 
 901      653A2070 
 901      2D3E7265 
 901      66203E20 
 902 0016 0000     		.align	2
 903              	.LC6:
 904 0018 70632D3E 		.ascii	"pc->custom_free_function != NULL\000"
 904      63757374 
 904      6F6D5F66 
 904      7265655F 
 904      66756E63 
 905 0039 000000   		.align	2
 906              	.LC7:
 907 003c 696E7661 		.ascii	"invalid pbuf type\000"
 907      6C696420 
 907      70627566 
 907      20747970 
 907      6500
 908              		.section	.text.pbuf_free,"ax",%progbits
 909              		.align	1
 910              		.global	pbuf_free
 911              		.syntax unified
 912              		.thumb
 913              		.thumb_func
 914              		.fpu fpv5-d16
 916              	pbuf_free:
ARM GAS  /var/folders/bg/n1lwdyp56391g865_v8nrmhm0000gn/T//cc4exhWb.s 			page 41


 917              	.LVL75:
 918              	.LFB182:
 726:Middlewares/Third_Party/LwIP/src/core/pbuf.c ****   u8_t alloc_src;
 919              		.loc 1 726 1 is_stmt 1 view -0
 920              		.cfi_startproc
 921              		@ args = 0, pretend = 0, frame = 0
 922              		@ frame_needed = 0, uses_anonymous_args = 0
 726:Middlewares/Third_Party/LwIP/src/core/pbuf.c ****   u8_t alloc_src;
 923              		.loc 1 726 1 is_stmt 0 view .LVU241
 924 0000 70B5     		push	{r4, r5, r6, lr}
 925              	.LCFI18:
 926              		.cfi_def_cfa_offset 16
 927              		.cfi_offset 4, -16
 928              		.cfi_offset 5, -12
 929              		.cfi_offset 6, -8
 930              		.cfi_offset 14, -4
 727:Middlewares/Third_Party/LwIP/src/core/pbuf.c ****   struct pbuf *q;
 931              		.loc 1 727 3 is_stmt 1 view .LVU242
 728:Middlewares/Third_Party/LwIP/src/core/pbuf.c ****   u8_t count;
 932              		.loc 1 728 3 view .LVU243
 729:Middlewares/Third_Party/LwIP/src/core/pbuf.c **** 
 933              		.loc 1 729 3 view .LVU244
 731:Middlewares/Third_Party/LwIP/src/core/pbuf.c ****     LWIP_ASSERT("p != NULL", p != NULL);
 934              		.loc 1 731 3 view .LVU245
 731:Middlewares/Third_Party/LwIP/src/core/pbuf.c ****     LWIP_ASSERT("p != NULL", p != NULL);
 935              		.loc 1 731 6 is_stmt 0 view .LVU246
 936 0002 10B1     		cbz	r0, .L83
 937 0004 0446     		mov	r4, r0
 742:Middlewares/Third_Party/LwIP/src/core/pbuf.c ****   /* de-allocate all consecutive pbufs from the head of the chain that
 938              		.loc 1 742 9 view .LVU247
 939 0006 0025     		movs	r5, #0
 940 0008 17E0     		b	.L71
 941              	.L83:
 732:Middlewares/Third_Party/LwIP/src/core/pbuf.c ****     /* if assertions are disabled, proceed with debug output */
 942              		.loc 1 732 5 is_stmt 1 discriminator 1 view .LVU248
 732:Middlewares/Third_Party/LwIP/src/core/pbuf.c ****     /* if assertions are disabled, proceed with debug output */
 943              		.loc 1 732 5 discriminator 1 view .LVU249
 732:Middlewares/Third_Party/LwIP/src/core/pbuf.c ****     /* if assertions are disabled, proceed with debug output */
 944              		.loc 1 732 5 discriminator 1 view .LVU250
 732:Middlewares/Third_Party/LwIP/src/core/pbuf.c ****     /* if assertions are disabled, proceed with debug output */
 945              		.loc 1 732 5 discriminator 1 view .LVU251
 946 000a 284B     		ldr	r3, .L87
 947 000c 4FF43772 		mov	r2, #732
 948 0010 2749     		ldr	r1, .L87+4
 949 0012 2848     		ldr	r0, .L87+8
 950              	.LVL76:
 732:Middlewares/Third_Party/LwIP/src/core/pbuf.c ****     /* if assertions are disabled, proceed with debug output */
 951              		.loc 1 732 5 is_stmt 0 discriminator 1 view .LVU252
 952 0014 FFF7FEFF 		bl	printf
 953              	.LVL77:
 732:Middlewares/Third_Party/LwIP/src/core/pbuf.c ****     /* if assertions are disabled, proceed with debug output */
 954              		.loc 1 732 5 is_stmt 1 discriminator 1 view .LVU253
 732:Middlewares/Third_Party/LwIP/src/core/pbuf.c ****     /* if assertions are disabled, proceed with debug output */
 955              		.loc 1 732 5 discriminator 1 view .LVU254
 735:Middlewares/Third_Party/LwIP/src/core/pbuf.c ****     return 0;
 956              		.loc 1 735 56 discriminator 1 view .LVU255
 736:Middlewares/Third_Party/LwIP/src/core/pbuf.c ****   }
ARM GAS  /var/folders/bg/n1lwdyp56391g865_v8nrmhm0000gn/T//cc4exhWb.s 			page 42


 957              		.loc 1 736 5 discriminator 1 view .LVU256
 736:Middlewares/Third_Party/LwIP/src/core/pbuf.c ****   }
 958              		.loc 1 736 12 is_stmt 0 discriminator 1 view .LVU257
 959 0018 0025     		movs	r5, #0
 960              	.LVL78:
 961              	.L72:
 800:Middlewares/Third_Party/LwIP/src/core/pbuf.c **** 
 962              		.loc 1 800 1 view .LVU258
 963 001a 2846     		mov	r0, r5
 964 001c 70BD     		pop	{r4, r5, r6, pc}
 965              	.LVL79:
 966              	.L84:
 967              	.LBB2:
 753:Middlewares/Third_Party/LwIP/src/core/pbuf.c ****     /* decrease reference count (number of pointers to pbuf) */
 968              		.loc 1 753 5 is_stmt 1 discriminator 1 view .LVU259
 753:Middlewares/Third_Party/LwIP/src/core/pbuf.c ****     /* decrease reference count (number of pointers to pbuf) */
 969              		.loc 1 753 5 discriminator 1 view .LVU260
 970 001e 234B     		ldr	r3, .L87
 971 0020 40F2F122 		movw	r2, #753
 972 0024 2449     		ldr	r1, .L87+12
 973 0026 2348     		ldr	r0, .L87+8
 974 0028 FFF7FEFF 		bl	printf
 975              	.LVL80:
 976 002c 0AE0     		b	.L73
 977              	.LVL81:
 978              	.L75:
 979              	.LBB3:
 767:Middlewares/Third_Party/LwIP/src/core/pbuf.c ****         pc->custom_free_function(p);
 980              		.loc 1 767 9 discriminator 3 view .LVU261
 767:Middlewares/Third_Party/LwIP/src/core/pbuf.c ****         pc->custom_free_function(p);
 981              		.loc 1 767 9 discriminator 3 view .LVU262
 768:Middlewares/Third_Party/LwIP/src/core/pbuf.c ****       } else
 982              		.loc 1 768 9 discriminator 3 view .LVU263
 768:Middlewares/Third_Party/LwIP/src/core/pbuf.c ****       } else
 983              		.loc 1 768 11 is_stmt 0 discriminator 3 view .LVU264
 984 002e 2369     		ldr	r3, [r4, #16]
 768:Middlewares/Third_Party/LwIP/src/core/pbuf.c ****       } else
 985              		.loc 1 768 9 discriminator 3 view .LVU265
 986 0030 2046     		mov	r0, r4
 987 0032 9847     		blx	r3
 988              	.LVL82:
 989              	.L76:
 768:Middlewares/Third_Party/LwIP/src/core/pbuf.c ****       } else
 990              		.loc 1 768 9 discriminator 3 view .LVU266
 991              	.LBE3:
 783:Middlewares/Third_Party/LwIP/src/core/pbuf.c ****         }
 992              		.loc 1 783 11 is_stmt 1 discriminator 3 view .LVU267
 783:Middlewares/Third_Party/LwIP/src/core/pbuf.c ****         }
 993              		.loc 1 783 11 discriminator 3 view .LVU268
 786:Middlewares/Third_Party/LwIP/src/core/pbuf.c ****       /* proceed to next pbuf */
 994              		.loc 1 786 7 discriminator 3 view .LVU269
 786:Middlewares/Third_Party/LwIP/src/core/pbuf.c ****       /* proceed to next pbuf */
 995              		.loc 1 786 12 is_stmt 0 discriminator 3 view .LVU270
 996 0034 0135     		adds	r5, r5, #1
 997              	.LVL83:
 786:Middlewares/Third_Party/LwIP/src/core/pbuf.c ****       /* proceed to next pbuf */
 998              		.loc 1 786 12 discriminator 3 view .LVU271
ARM GAS  /var/folders/bg/n1lwdyp56391g865_v8nrmhm0000gn/T//cc4exhWb.s 			page 43


 999 0036 EDB2     		uxtb	r5, r5
 1000              	.LVL84:
 788:Middlewares/Third_Party/LwIP/src/core/pbuf.c ****       /* p->ref > 0, this pbuf is still referenced to */
 1001              		.loc 1 788 7 is_stmt 1 discriminator 3 view .LVU272
 788:Middlewares/Third_Party/LwIP/src/core/pbuf.c ****       /* p->ref > 0, this pbuf is still referenced to */
 1002              		.loc 1 788 9 is_stmt 0 discriminator 3 view .LVU273
 1003 0038 3446     		mov	r4, r6
 1004              	.LVL85:
 1005              	.L71:
 788:Middlewares/Third_Party/LwIP/src/core/pbuf.c ****       /* p->ref > 0, this pbuf is still referenced to */
 1006              		.loc 1 788 9 discriminator 3 view .LVU274
 1007              	.LBE2:
 745:Middlewares/Third_Party/LwIP/src/core/pbuf.c ****     LWIP_PBUF_REF_T ref;
 1008              		.loc 1 745 9 is_stmt 1 view .LVU275
 1009 003a 002C     		cmp	r4, #0
 1010 003c EDD0     		beq	.L72
 1011              	.LBB5:
 746:Middlewares/Third_Party/LwIP/src/core/pbuf.c ****     SYS_ARCH_DECL_PROTECT(old_level);
 1012              		.loc 1 746 5 view .LVU276
 747:Middlewares/Third_Party/LwIP/src/core/pbuf.c ****     /* Since decrementing ref cannot be guaranteed to be a single machine operation
 1013              		.loc 1 747 37 view .LVU277
 751:Middlewares/Third_Party/LwIP/src/core/pbuf.c ****     /* all pbufs in a chain are referenced at least once */
 1014              		.loc 1 751 32 view .LVU278
 753:Middlewares/Third_Party/LwIP/src/core/pbuf.c ****     /* decrease reference count (number of pointers to pbuf) */
 1015              		.loc 1 753 5 view .LVU279
 753:Middlewares/Third_Party/LwIP/src/core/pbuf.c ****     /* decrease reference count (number of pointers to pbuf) */
 1016              		.loc 1 753 5 view .LVU280
 1017 003e A37B     		ldrb	r3, [r4, #14]	@ zero_extendqisi2
 1018 0040 002B     		cmp	r3, #0
 1019 0042 ECD0     		beq	.L84
 1020              	.L73:
 753:Middlewares/Third_Party/LwIP/src/core/pbuf.c ****     /* decrease reference count (number of pointers to pbuf) */
 1021              		.loc 1 753 5 discriminator 3 view .LVU281
 753:Middlewares/Third_Party/LwIP/src/core/pbuf.c ****     /* decrease reference count (number of pointers to pbuf) */
 1022              		.loc 1 753 5 discriminator 3 view .LVU282
 755:Middlewares/Third_Party/LwIP/src/core/pbuf.c ****     SYS_ARCH_UNPROTECT(old_level);
 1023              		.loc 1 755 5 discriminator 3 view .LVU283
 755:Middlewares/Third_Party/LwIP/src/core/pbuf.c ****     SYS_ARCH_UNPROTECT(old_level);
 1024              		.loc 1 755 15 is_stmt 0 discriminator 3 view .LVU284
 1025 0044 A37B     		ldrb	r3, [r4, #14]	@ zero_extendqisi2
 755:Middlewares/Third_Party/LwIP/src/core/pbuf.c ****     SYS_ARCH_UNPROTECT(old_level);
 1026              		.loc 1 755 11 discriminator 3 view .LVU285
 1027 0046 013B     		subs	r3, r3, #1
 1028 0048 DBB2     		uxtb	r3, r3
 755:Middlewares/Third_Party/LwIP/src/core/pbuf.c ****     SYS_ARCH_UNPROTECT(old_level);
 1029              		.loc 1 755 9 discriminator 3 view .LVU286
 1030 004a A373     		strb	r3, [r4, #14]
 1031              	.LVL86:
 756:Middlewares/Third_Party/LwIP/src/core/pbuf.c ****     /* this pbuf is no longer referenced to? */
 1032              		.loc 1 756 34 is_stmt 1 discriminator 3 view .LVU287
 758:Middlewares/Third_Party/LwIP/src/core/pbuf.c ****       /* remember next pbuf in chain for next iteration */
 1033              		.loc 1 758 5 discriminator 3 view .LVU288
 758:Middlewares/Third_Party/LwIP/src/core/pbuf.c ****       /* remember next pbuf in chain for next iteration */
 1034              		.loc 1 758 8 is_stmt 0 discriminator 3 view .LVU289
 1035 004c 002B     		cmp	r3, #0
 1036 004e E4D1     		bne	.L72
 760:Middlewares/Third_Party/LwIP/src/core/pbuf.c ****       LWIP_DEBUGF( PBUF_DEBUG | LWIP_DBG_TRACE, ("pbuf_free: deallocating %p\n", (void *)p));
ARM GAS  /var/folders/bg/n1lwdyp56391g865_v8nrmhm0000gn/T//cc4exhWb.s 			page 44


 1037              		.loc 1 760 7 is_stmt 1 view .LVU290
 760:Middlewares/Third_Party/LwIP/src/core/pbuf.c ****       LWIP_DEBUGF( PBUF_DEBUG | LWIP_DBG_TRACE, ("pbuf_free: deallocating %p\n", (void *)p));
 1038              		.loc 1 760 9 is_stmt 0 view .LVU291
 1039 0050 2668     		ldr	r6, [r4]
 1040              	.LVL87:
 761:Middlewares/Third_Party/LwIP/src/core/pbuf.c ****       alloc_src = pbuf_get_allocsrc(p);
 1041              		.loc 1 761 93 is_stmt 1 view .LVU292
 762:Middlewares/Third_Party/LwIP/src/core/pbuf.c **** #if LWIP_SUPPORT_CUSTOM_PBUF
 1042              		.loc 1 762 7 view .LVU293
 762:Middlewares/Third_Party/LwIP/src/core/pbuf.c **** #if LWIP_SUPPORT_CUSTOM_PBUF
 1043              		.loc 1 762 19 is_stmt 0 view .LVU294
 1044 0052 237B     		ldrb	r3, [r4, #12]	@ zero_extendqisi2
 1045              	.LVL88:
 762:Middlewares/Third_Party/LwIP/src/core/pbuf.c **** #if LWIP_SUPPORT_CUSTOM_PBUF
 1046              		.loc 1 762 17 view .LVU295
 1047 0054 03F00F03 		and	r3, r3, #15
 1048              	.LVL89:
 765:Middlewares/Third_Party/LwIP/src/core/pbuf.c ****         struct pbuf_custom *pc = (struct pbuf_custom *)p;
 1049              		.loc 1 765 7 is_stmt 1 view .LVU296
 765:Middlewares/Third_Party/LwIP/src/core/pbuf.c ****         struct pbuf_custom *pc = (struct pbuf_custom *)p;
 1050              		.loc 1 765 13 is_stmt 0 view .LVU297
 1051 0058 627B     		ldrb	r2, [r4, #13]	@ zero_extendqisi2
 765:Middlewares/Third_Party/LwIP/src/core/pbuf.c ****         struct pbuf_custom *pc = (struct pbuf_custom *)p;
 1052              		.loc 1 765 10 view .LVU298
 1053 005a 12F0020F 		tst	r2, #2
 1054 005e 0AD0     		beq	.L74
 1055              	.LBB4:
 766:Middlewares/Third_Party/LwIP/src/core/pbuf.c ****         LWIP_ASSERT("pc->custom_free_function != NULL", pc->custom_free_function != NULL);
 1056              		.loc 1 766 9 is_stmt 1 view .LVU299
 1057              	.LVL90:
 767:Middlewares/Third_Party/LwIP/src/core/pbuf.c ****         pc->custom_free_function(p);
 1058              		.loc 1 767 9 view .LVU300
 767:Middlewares/Third_Party/LwIP/src/core/pbuf.c ****         pc->custom_free_function(p);
 1059              		.loc 1 767 9 view .LVU301
 1060 0060 2369     		ldr	r3, [r4, #16]
 1061              	.LVL91:
 767:Middlewares/Third_Party/LwIP/src/core/pbuf.c ****         pc->custom_free_function(p);
 1062              		.loc 1 767 9 is_stmt 0 view .LVU302
 1063 0062 002B     		cmp	r3, #0
 1064 0064 E3D1     		bne	.L75
 767:Middlewares/Third_Party/LwIP/src/core/pbuf.c ****         pc->custom_free_function(p);
 1065              		.loc 1 767 9 is_stmt 1 discriminator 1 view .LVU303
 767:Middlewares/Third_Party/LwIP/src/core/pbuf.c ****         pc->custom_free_function(p);
 1066              		.loc 1 767 9 discriminator 1 view .LVU304
 1067 0066 114B     		ldr	r3, .L87
 1068 0068 40F2FF22 		movw	r2, #767
 1069 006c 1349     		ldr	r1, .L87+16
 1070 006e 1148     		ldr	r0, .L87+8
 1071 0070 FFF7FEFF 		bl	printf
 1072              	.LVL92:
 767:Middlewares/Third_Party/LwIP/src/core/pbuf.c ****         pc->custom_free_function(p);
 1073              		.loc 1 767 9 is_stmt 0 discriminator 1 view .LVU305
 1074 0074 DBE7     		b	.L75
 1075              	.LVL93:
 1076              	.L74:
 767:Middlewares/Third_Party/LwIP/src/core/pbuf.c ****         pc->custom_free_function(p);
 1077              		.loc 1 767 9 discriminator 1 view .LVU306
ARM GAS  /var/folders/bg/n1lwdyp56391g865_v8nrmhm0000gn/T//cc4exhWb.s 			page 45


 1078              	.LBE4:
 773:Middlewares/Third_Party/LwIP/src/core/pbuf.c ****           memp_free(MEMP_PBUF_POOL, p);
 1079              		.loc 1 773 9 is_stmt 1 view .LVU307
 773:Middlewares/Third_Party/LwIP/src/core/pbuf.c ****           memp_free(MEMP_PBUF_POOL, p);
 1080              		.loc 1 773 12 is_stmt 0 view .LVU308
 1081 0076 022B     		cmp	r3, #2
 1082 0078 06D0     		beq	.L85
 776:Middlewares/Third_Party/LwIP/src/core/pbuf.c ****           memp_free(MEMP_PBUF, p);
 1083              		.loc 1 776 16 is_stmt 1 view .LVU309
 776:Middlewares/Third_Party/LwIP/src/core/pbuf.c ****           memp_free(MEMP_PBUF, p);
 1084              		.loc 1 776 19 is_stmt 0 view .LVU310
 1085 007a 012B     		cmp	r3, #1
 1086 007c 09D0     		beq	.L86
 779:Middlewares/Third_Party/LwIP/src/core/pbuf.c ****           mem_free(p);
 1087              		.loc 1 779 16 is_stmt 1 view .LVU311
 779:Middlewares/Third_Party/LwIP/src/core/pbuf.c ****           mem_free(p);
 1088              		.loc 1 779 19 is_stmt 0 view .LVU312
 1089 007e 6BB9     		cbnz	r3, .L79
 780:Middlewares/Third_Party/LwIP/src/core/pbuf.c ****         } else {
 1090              		.loc 1 780 11 is_stmt 1 view .LVU313
 1091 0080 2046     		mov	r0, r4
 1092 0082 FFF7FEFF 		bl	mem_free
 1093              	.LVL94:
 780:Middlewares/Third_Party/LwIP/src/core/pbuf.c ****         } else {
 1094              		.loc 1 780 11 is_stmt 0 view .LVU314
 1095 0086 D5E7     		b	.L76
 1096              	.LVL95:
 1097              	.L85:
 774:Middlewares/Third_Party/LwIP/src/core/pbuf.c ****           /* is this a ROM or RAM referencing pbuf? */
 1098              		.loc 1 774 11 is_stmt 1 view .LVU315
 1099 0088 2146     		mov	r1, r4
 1100 008a 0820     		movs	r0, #8
 1101 008c FFF7FEFF 		bl	memp_free
 1102              	.LVL96:
 774:Middlewares/Third_Party/LwIP/src/core/pbuf.c ****           /* is this a ROM or RAM referencing pbuf? */
 1103              		.loc 1 774 11 is_stmt 0 view .LVU316
 1104 0090 D0E7     		b	.L76
 1105              	.LVL97:
 1106              	.L86:
 777:Middlewares/Third_Party/LwIP/src/core/pbuf.c ****           /* type == PBUF_RAM */
 1107              		.loc 1 777 11 is_stmt 1 view .LVU317
 1108 0092 2146     		mov	r1, r4
 1109 0094 0720     		movs	r0, #7
 1110 0096 FFF7FEFF 		bl	memp_free
 1111              	.LVL98:
 777:Middlewares/Third_Party/LwIP/src/core/pbuf.c ****           /* type == PBUF_RAM */
 1112              		.loc 1 777 11 is_stmt 0 view .LVU318
 1113 009a CBE7     		b	.L76
 1114              	.LVL99:
 1115              	.L79:
 783:Middlewares/Third_Party/LwIP/src/core/pbuf.c ****         }
 1116              		.loc 1 783 11 is_stmt 1 discriminator 1 view .LVU319
 783:Middlewares/Third_Party/LwIP/src/core/pbuf.c ****         }
 1117              		.loc 1 783 11 discriminator 1 view .LVU320
 783:Middlewares/Third_Party/LwIP/src/core/pbuf.c ****         }
 1118              		.loc 1 783 11 discriminator 1 view .LVU321
 783:Middlewares/Third_Party/LwIP/src/core/pbuf.c ****         }
ARM GAS  /var/folders/bg/n1lwdyp56391g865_v8nrmhm0000gn/T//cc4exhWb.s 			page 46


 1119              		.loc 1 783 11 discriminator 1 view .LVU322
 1120 009c 034B     		ldr	r3, .L87
 1121              	.LVL100:
 783:Middlewares/Third_Party/LwIP/src/core/pbuf.c ****         }
 1122              		.loc 1 783 11 is_stmt 0 discriminator 1 view .LVU323
 1123 009e 40F20F32 		movw	r2, #783
 1124 00a2 0749     		ldr	r1, .L87+20
 1125 00a4 0348     		ldr	r0, .L87+8
 1126 00a6 FFF7FEFF 		bl	printf
 1127              	.LVL101:
 783:Middlewares/Third_Party/LwIP/src/core/pbuf.c ****         }
 1128              		.loc 1 783 11 discriminator 1 view .LVU324
 1129 00aa C3E7     		b	.L76
 1130              	.L88:
 1131              		.align	2
 1132              	.L87:
 1133 00ac 00000000 		.word	.LC0
 1134 00b0 30000000 		.word	.LC1
 1135 00b4 3C000000 		.word	.LC2
 1136 00b8 00000000 		.word	.LC5
 1137 00bc 18000000 		.word	.LC6
 1138 00c0 3C000000 		.word	.LC7
 1139              	.LBE5:
 1140              		.cfi_endproc
 1141              	.LFE182:
 1143              		.section	.rodata.pbuf_alloc.str1.4,"aMS",%progbits,1
 1144              		.align	2
 1145              	.LC8:
 1146 0000 70627566 		.ascii	"pbuf_alloc: pbuf q->payload properly aligned\000"
 1146      5F616C6C 
 1146      6F633A20 
 1146      70627566 
 1146      20712D3E 
 1147 002d 000000   		.align	2
 1148              	.LC9:
 1149 0030 50425546 		.ascii	"PBUF_POOL_BUFSIZE must be bigger than MEM_ALIGNMENT"
 1149      5F504F4F 
 1149      4C5F4255 
 1149      4653495A 
 1149      45206D75 
 1150 0063 00       		.ascii	"\000"
 1151              		.align	2
 1152              	.LC10:
 1153 0064 70627566 		.ascii	"pbuf_alloc: pbuf->payload properly aligned\000"
 1153      5F616C6C 
 1153      6F633A20 
 1153      70627566 
 1153      2D3E7061 
 1154 008f 00       		.align	2
 1155              	.LC11:
 1156 0090 70627566 		.ascii	"pbuf_alloc: erroneous type\000"
 1156      5F616C6C 
 1156      6F633A20 
 1156      6572726F 
 1156      6E656F75 
 1157              		.section	.text.pbuf_alloc,"ax",%progbits
 1158              		.align	1
ARM GAS  /var/folders/bg/n1lwdyp56391g865_v8nrmhm0000gn/T//cc4exhWb.s 			page 47


 1159              		.global	pbuf_alloc
 1160              		.syntax unified
 1161              		.thumb
 1162              		.thumb_func
 1163              		.fpu fpv5-d16
 1165              	pbuf_alloc:
 1166              	.LVL102:
 1167              	.LFB170:
 225:Middlewares/Third_Party/LwIP/src/core/pbuf.c ****   struct pbuf *p;
 1168              		.loc 1 225 1 is_stmt 1 view -0
 1169              		.cfi_startproc
 1170              		@ args = 0, pretend = 0, frame = 0
 1171              		@ frame_needed = 0, uses_anonymous_args = 0
 225:Middlewares/Third_Party/LwIP/src/core/pbuf.c ****   struct pbuf *p;
 1172              		.loc 1 225 1 is_stmt 0 view .LVU326
 1173 0000 2DE9F047 		push	{r4, r5, r6, r7, r8, r9, r10, lr}
 1174              	.LCFI19:
 1175              		.cfi_def_cfa_offset 32
 1176              		.cfi_offset 4, -32
 1177              		.cfi_offset 5, -28
 1178              		.cfi_offset 6, -24
 1179              		.cfi_offset 7, -20
 1180              		.cfi_offset 8, -16
 1181              		.cfi_offset 9, -12
 1182              		.cfi_offset 10, -8
 1183              		.cfi_offset 14, -4
 1184 0004 82B0     		sub	sp, sp, #8
 1185              	.LCFI20:
 1186              		.cfi_def_cfa_offset 40
 1187 0006 0E46     		mov	r6, r1
 1188 0008 9046     		mov	r8, r2
 226:Middlewares/Third_Party/LwIP/src/core/pbuf.c ****   u16_t offset = (u16_t)layer;
 1189              		.loc 1 226 3 is_stmt 1 view .LVU327
 227:Middlewares/Third_Party/LwIP/src/core/pbuf.c ****   LWIP_DEBUGF(PBUF_DEBUG | LWIP_DBG_TRACE, ("pbuf_alloc(length=%"U16_F")\n", length));
 1190              		.loc 1 227 3 view .LVU328
 227:Middlewares/Third_Party/LwIP/src/core/pbuf.c ****   LWIP_DEBUGF(PBUF_DEBUG | LWIP_DBG_TRACE, ("pbuf_alloc(length=%"U16_F")\n", length));
 1191              		.loc 1 227 9 is_stmt 0 view .LVU329
 1192 000a 85B2     		uxth	r5, r0
 1193              	.LVL103:
 228:Middlewares/Third_Party/LwIP/src/core/pbuf.c **** 
 1194              		.loc 1 228 86 is_stmt 1 view .LVU330
 230:Middlewares/Third_Party/LwIP/src/core/pbuf.c ****     case PBUF_REF: /* fall through */
 1195              		.loc 1 230 3 view .LVU331
 1196 000c B2F5C17F 		cmp	r2, #386
 1197 0010 46D0     		beq	.L101
 1198 0012 0446     		mov	r4, r0
 1199 0014 0ED8     		bhi	.L91
 1200 0016 012A     		cmp	r2, #1
 1201 0018 02D0     		beq	.L92
 1202 001a 412A     		cmp	r2, #65
 1203 001c 40F08480 		bne	.L93
 1204              	.L92:
 233:Middlewares/Third_Party/LwIP/src/core/pbuf.c ****       break;
 1205              		.loc 1 233 7 view .LVU332
 233:Middlewares/Third_Party/LwIP/src/core/pbuf.c ****       break;
 1206              		.loc 1 233 11 is_stmt 0 view .LVU333
 1207 0020 4246     		mov	r2, r8
ARM GAS  /var/folders/bg/n1lwdyp56391g865_v8nrmhm0000gn/T//cc4exhWb.s 			page 48


 1208              	.LVL104:
 233:Middlewares/Third_Party/LwIP/src/core/pbuf.c ****       break;
 1209              		.loc 1 233 11 view .LVU334
 1210 0022 3146     		mov	r1, r6
 1211              	.LVL105:
 233:Middlewares/Third_Party/LwIP/src/core/pbuf.c ****       break;
 1212              		.loc 1 233 11 view .LVU335
 1213 0024 0020     		movs	r0, #0
 1214              	.LVL106:
 233:Middlewares/Third_Party/LwIP/src/core/pbuf.c ****       break;
 1215              		.loc 1 233 11 view .LVU336
 1216 0026 FFF7FEFF 		bl	pbuf_alloc_reference
 1217              	.LVL107:
 1218 002a 8146     		mov	r9, r0
 1219              	.LVL108:
 234:Middlewares/Third_Party/LwIP/src/core/pbuf.c ****     case PBUF_POOL: {
 1220              		.loc 1 234 7 is_stmt 1 view .LVU337
 1221              	.L89:
 300:Middlewares/Third_Party/LwIP/src/core/pbuf.c **** 
 1222              		.loc 1 300 1 is_stmt 0 view .LVU338
 1223 002c 4846     		mov	r0, r9
 1224 002e 02B0     		add	sp, sp, #8
 1225              	.LCFI21:
 1226              		.cfi_remember_state
 1227              		.cfi_def_cfa_offset 32
 1228              		@ sp needed
 1229 0030 BDE8F087 		pop	{r4, r5, r6, r7, r8, r9, r10, pc}
 1230              	.LVL109:
 1231              	.L91:
 1232              	.LCFI22:
 1233              		.cfi_restore_state
 230:Middlewares/Third_Party/LwIP/src/core/pbuf.c ****     case PBUF_REF: /* fall through */
 1234              		.loc 1 230 3 view .LVU339
 1235 0034 B2F5207F 		cmp	r2, #640
 1236 0038 76D1     		bne	.L93
 1237              	.LBB6:
 274:Middlewares/Third_Party/LwIP/src/core/pbuf.c ****       mem_size_t alloc_len = (mem_size_t)(LWIP_MEM_ALIGN_SIZE(SIZEOF_STRUCT_PBUF) + payload_len);
 1238              		.loc 1 274 7 is_stmt 1 view .LVU340
 274:Middlewares/Third_Party/LwIP/src/core/pbuf.c ****       mem_size_t alloc_len = (mem_size_t)(LWIP_MEM_ALIGN_SIZE(SIZEOF_STRUCT_PBUF) + payload_len);
 1239              		.loc 1 274 35 is_stmt 0 view .LVU341
 1240 003a 0335     		adds	r5, r5, #3
 1241              	.LVL110:
 274:Middlewares/Third_Party/LwIP/src/core/pbuf.c ****       mem_size_t alloc_len = (mem_size_t)(LWIP_MEM_ALIGN_SIZE(SIZEOF_STRUCT_PBUF) + payload_len);
 1242              		.loc 1 274 35 view .LVU342
 1243 003c 25F00305 		bic	r5, r5, #3
 1244              	.LVL111:
 274:Middlewares/Third_Party/LwIP/src/core/pbuf.c ****       mem_size_t alloc_len = (mem_size_t)(LWIP_MEM_ALIGN_SIZE(SIZEOF_STRUCT_PBUF) + payload_len);
 1245              		.loc 1 274 35 view .LVU343
 1246 0040 ADB2     		uxth	r5, r5
 274:Middlewares/Third_Party/LwIP/src/core/pbuf.c ****       mem_size_t alloc_len = (mem_size_t)(LWIP_MEM_ALIGN_SIZE(SIZEOF_STRUCT_PBUF) + payload_len);
 1247              		.loc 1 274 65 view .LVU344
 1248 0042 CA1C     		adds	r2, r1, #3
 1249              	.LVL112:
 274:Middlewares/Third_Party/LwIP/src/core/pbuf.c ****       mem_size_t alloc_len = (mem_size_t)(LWIP_MEM_ALIGN_SIZE(SIZEOF_STRUCT_PBUF) + payload_len);
 1250              		.loc 1 274 65 view .LVU345
 1251 0044 93B2     		uxth	r3, r2
 1252 0046 23F00303 		bic	r3, r3, #3
ARM GAS  /var/folders/bg/n1lwdyp56391g865_v8nrmhm0000gn/T//cc4exhWb.s 			page 49


 274:Middlewares/Third_Party/LwIP/src/core/pbuf.c ****       mem_size_t alloc_len = (mem_size_t)(LWIP_MEM_ALIGN_SIZE(SIZEOF_STRUCT_PBUF) + payload_len);
 1253              		.loc 1 274 13 view .LVU346
 1254 004a 1D44     		add	r5, r5, r3
 1255 004c ADB2     		uxth	r5, r5
 1256              	.LVL113:
 275:Middlewares/Third_Party/LwIP/src/core/pbuf.c **** 
 1257              		.loc 1 275 7 is_stmt 1 view .LVU347
 275:Middlewares/Third_Party/LwIP/src/core/pbuf.c **** 
 1258              		.loc 1 275 18 is_stmt 0 view .LVU348
 1259 004e 05F11000 		add	r0, r5, #16
 1260              	.LVL114:
 275:Middlewares/Third_Party/LwIP/src/core/pbuf.c **** 
 1261              		.loc 1 275 18 view .LVU349
 1262 0052 80B2     		uxth	r0, r0
 1263              	.LVL115:
 278:Middlewares/Third_Party/LwIP/src/core/pbuf.c ****           (alloc_len < LWIP_MEM_ALIGN_SIZE(length))) {
 1264              		.loc 1 278 7 is_stmt 1 view .LVU350
 278:Middlewares/Third_Party/LwIP/src/core/pbuf.c ****           (alloc_len < LWIP_MEM_ALIGN_SIZE(length))) {
 1265              		.loc 1 278 26 is_stmt 0 view .LVU351
 1266 0054 22F00302 		bic	r2, r2, #3
 278:Middlewares/Third_Party/LwIP/src/core/pbuf.c ****           (alloc_len < LWIP_MEM_ALIGN_SIZE(length))) {
 1267              		.loc 1 278 10 view .LVU352
 1268 0058 9542     		cmp	r5, r2
 1269 005a 6FD3     		bcc	.L103
 278:Middlewares/Third_Party/LwIP/src/core/pbuf.c ****           (alloc_len < LWIP_MEM_ALIGN_SIZE(length))) {
 1270              		.loc 1 278 55 discriminator 1 view .LVU353
 1271 005c 8242     		cmp	r2, r0
 1272 005e 70D8     		bhi	.L104
 284:Middlewares/Third_Party/LwIP/src/core/pbuf.c ****       if (p == NULL) {
 1273              		.loc 1 284 7 is_stmt 1 view .LVU354
 284:Middlewares/Third_Party/LwIP/src/core/pbuf.c ****       if (p == NULL) {
 1274              		.loc 1 284 26 is_stmt 0 view .LVU355
 1275 0060 FFF7FEFF 		bl	mem_malloc
 1276              	.LVL116:
 285:Middlewares/Third_Party/LwIP/src/core/pbuf.c ****         return NULL;
 1277              		.loc 1 285 7 is_stmt 1 view .LVU356
 285:Middlewares/Third_Party/LwIP/src/core/pbuf.c ****         return NULL;
 1278              		.loc 1 285 10 is_stmt 0 view .LVU357
 1279 0064 8146     		mov	r9, r0
 1280 0066 0028     		cmp	r0, #0
 1281 0068 E0D0     		beq	.L89
 288:Middlewares/Third_Party/LwIP/src/core/pbuf.c ****                              length, length, type, 0);
 1282              		.loc 1 288 7 is_stmt 1 view .LVU358
 288:Middlewares/Third_Party/LwIP/src/core/pbuf.c ****                              length, length, type, 0);
 1283              		.loc 1 288 33 is_stmt 0 view .LVU359
 1284 006a 04F11001 		add	r1, r4, #16
 1285 006e 0144     		add	r1, r1, r0
 1286 0070 0331     		adds	r1, r1, #3
 288:Middlewares/Third_Party/LwIP/src/core/pbuf.c ****                              length, length, type, 0);
 1287              		.loc 1 288 7 view .LVU360
 1288 0072 0023     		movs	r3, #0
 1289 0074 0193     		str	r3, [sp, #4]
 1290 0076 CDF80080 		str	r8, [sp]
 1291 007a 3346     		mov	r3, r6
 1292 007c 3246     		mov	r2, r6
 1293 007e 21F00301 		bic	r1, r1, #3
 1294 0082 FFF7FEFF 		bl	pbuf_init_alloced_pbuf
ARM GAS  /var/folders/bg/n1lwdyp56391g865_v8nrmhm0000gn/T//cc4exhWb.s 			page 50


 1295              	.LVL117:
 290:Middlewares/Third_Party/LwIP/src/core/pbuf.c ****                   ((mem_ptr_t)p->payload % MEM_ALIGNMENT) == 0);
 1296              		.loc 1 290 7 is_stmt 1 view .LVU361
 290:Middlewares/Third_Party/LwIP/src/core/pbuf.c ****                   ((mem_ptr_t)p->payload % MEM_ALIGNMENT) == 0);
 1297              		.loc 1 290 7 view .LVU362
 1298 0086 D9F80430 		ldr	r3, [r9, #4]
 1299 008a 13F0030F 		tst	r3, #3
 1300 008e CDD0     		beq	.L89
 290:Middlewares/Third_Party/LwIP/src/core/pbuf.c ****                   ((mem_ptr_t)p->payload % MEM_ALIGNMENT) == 0);
 1301              		.loc 1 290 7 discriminator 1 view .LVU363
 290:Middlewares/Third_Party/LwIP/src/core/pbuf.c ****                   ((mem_ptr_t)p->payload % MEM_ALIGNMENT) == 0);
 1302              		.loc 1 290 7 discriminator 1 view .LVU364
 1303 0090 2D4B     		ldr	r3, .L107
 1304 0092 4FF49172 		mov	r2, #290
 1305 0096 2D49     		ldr	r1, .L107+4
 1306 0098 2D48     		ldr	r0, .L107+8
 1307 009a FFF7FEFF 		bl	printf
 1308              	.LVL118:
 1309 009e C5E7     		b	.L89
 1310              	.LVL119:
 1311              	.L101:
 290:Middlewares/Third_Party/LwIP/src/core/pbuf.c ****                   ((mem_ptr_t)p->payload % MEM_ALIGNMENT) == 0);
 1312              		.loc 1 290 7 is_stmt 0 discriminator 1 view .LVU365
 1313              	.LBE6:
 230:Middlewares/Third_Party/LwIP/src/core/pbuf.c ****     case PBUF_REF: /* fall through */
 1314              		.loc 1 230 3 view .LVU366
 1315 00a0 0027     		movs	r7, #0
 1316 00a2 B946     		mov	r9, r7
 1317 00a4 13E0     		b	.L90
 1318              	.LVL120:
 1319              	.L106:
 1320              	.LBB7:
 1321              	.LBB8:
 245:Middlewares/Third_Party/LwIP/src/core/pbuf.c ****           /* free chain so far allocated */
 1322              		.loc 1 245 11 is_stmt 1 view .LVU367
 1323 00a6 FFF7FEFF 		bl	pbuf_pool_is_empty
 1324              	.LVL121:
 247:Middlewares/Third_Party/LwIP/src/core/pbuf.c ****             pbuf_free(p);
 1325              		.loc 1 247 11 view .LVU368
 247:Middlewares/Third_Party/LwIP/src/core/pbuf.c ****             pbuf_free(p);
 1326              		.loc 1 247 14 is_stmt 0 view .LVU369
 1327 00aa B9F1000F 		cmp	r9, #0
 1328 00ae 02D0     		beq	.L97
 248:Middlewares/Third_Party/LwIP/src/core/pbuf.c ****           }
 1329              		.loc 1 248 13 is_stmt 1 view .LVU370
 1330 00b0 4846     		mov	r0, r9
 1331 00b2 FFF7FEFF 		bl	pbuf_free
 1332              	.LVL122:
 1333              	.L97:
 251:Middlewares/Third_Party/LwIP/src/core/pbuf.c ****         }
 1334              		.loc 1 251 11 view .LVU371
 251:Middlewares/Third_Party/LwIP/src/core/pbuf.c ****         }
 1335              		.loc 1 251 18 is_stmt 0 view .LVU372
 1336 00b6 B946     		mov	r9, r7
 1337              	.LVL123:
 251:Middlewares/Third_Party/LwIP/src/core/pbuf.c ****         }
 1338              		.loc 1 251 18 view .LVU373
ARM GAS  /var/folders/bg/n1lwdyp56391g865_v8nrmhm0000gn/T//cc4exhWb.s 			page 51


 1339 00b8 B8E7     		b	.L89
 1340              	.LVL124:
 1341              	.L99:
 258:Middlewares/Third_Party/LwIP/src/core/pbuf.c ****                     (PBUF_POOL_BUFSIZE_ALIGNED - LWIP_MEM_ALIGN_SIZE(offset)) > 0 );
 1342              		.loc 1 258 9 is_stmt 1 discriminator 3 view .LVU374
 258:Middlewares/Third_Party/LwIP/src/core/pbuf.c ****                     (PBUF_POOL_BUFSIZE_ALIGNED - LWIP_MEM_ALIGN_SIZE(offset)) > 0 );
 1343              		.loc 1 258 9 discriminator 3 view .LVU375
 260:Middlewares/Third_Party/LwIP/src/core/pbuf.c ****           /* allocated head of pbuf chain (into p) */
 1344              		.loc 1 260 9 discriminator 3 view .LVU376
 260:Middlewares/Third_Party/LwIP/src/core/pbuf.c ****           /* allocated head of pbuf chain (into p) */
 1345              		.loc 1 260 12 is_stmt 0 discriminator 3 view .LVU377
 1346 00ba B9F1000F 		cmp	r9, #0
 1347 00be 31D0     		beq	.L102
 265:Middlewares/Third_Party/LwIP/src/core/pbuf.c ****         }
 1348              		.loc 1 265 11 is_stmt 1 view .LVU378
 265:Middlewares/Third_Party/LwIP/src/core/pbuf.c ****         }
 1349              		.loc 1 265 22 is_stmt 0 view .LVU379
 1350 00c0 CAF80070 		str	r7, [r10]
 1351              	.LVL125:
 1352              	.L100:
 267:Middlewares/Third_Party/LwIP/src/core/pbuf.c ****         rem_len = (u16_t)(rem_len - qlen);
 1353              		.loc 1 267 9 is_stmt 1 view .LVU380
 268:Middlewares/Third_Party/LwIP/src/core/pbuf.c ****         offset = 0;
 1354              		.loc 1 268 9 view .LVU381
 268:Middlewares/Third_Party/LwIP/src/core/pbuf.c ****         offset = 0;
 1355              		.loc 1 268 17 is_stmt 0 view .LVU382
 1356 00c4 361B     		subs	r6, r6, r4
 1357              	.LVL126:
 268:Middlewares/Third_Party/LwIP/src/core/pbuf.c ****         offset = 0;
 1358              		.loc 1 268 17 view .LVU383
 1359 00c6 B6B2     		uxth	r6, r6
 1360              	.LVL127:
 269:Middlewares/Third_Party/LwIP/src/core/pbuf.c ****       } while (rem_len > 0);
 1361              		.loc 1 269 9 is_stmt 1 view .LVU384
 269:Middlewares/Third_Party/LwIP/src/core/pbuf.c ****       } while (rem_len > 0);
 1362              		.loc 1 269 9 is_stmt 0 view .LVU385
 1363              	.LBE8:
 270:Middlewares/Third_Party/LwIP/src/core/pbuf.c ****       break;
 1364              		.loc 1 270 15 is_stmt 1 view .LVU386
 1365              	.LBB9:
 269:Middlewares/Third_Party/LwIP/src/core/pbuf.c ****       } while (rem_len > 0);
 1366              		.loc 1 269 16 is_stmt 0 view .LVU387
 1367 00c8 0025     		movs	r5, #0
 1368              	.LBE9:
 270:Middlewares/Third_Party/LwIP/src/core/pbuf.c ****       break;
 1369              		.loc 1 270 7 view .LVU388
 1370 00ca 002E     		cmp	r6, #0
 1371 00cc AED0     		beq	.L89
 1372              	.LVL128:
 1373              	.L90:
 241:Middlewares/Third_Party/LwIP/src/core/pbuf.c ****         u16_t qlen;
 1374              		.loc 1 241 7 is_stmt 1 view .LVU389
 1375              	.LBB10:
 242:Middlewares/Third_Party/LwIP/src/core/pbuf.c ****         q = (struct pbuf *)memp_malloc(MEMP_PBUF_POOL);
 1376              		.loc 1 242 9 view .LVU390
 243:Middlewares/Third_Party/LwIP/src/core/pbuf.c ****         if (q == NULL) {
 1377              		.loc 1 243 9 view .LVU391
ARM GAS  /var/folders/bg/n1lwdyp56391g865_v8nrmhm0000gn/T//cc4exhWb.s 			page 52


 1378 00ce BA46     		mov	r10, r7
 243:Middlewares/Third_Party/LwIP/src/core/pbuf.c ****         if (q == NULL) {
 1379              		.loc 1 243 28 is_stmt 0 view .LVU392
 1380 00d0 0820     		movs	r0, #8
 1381 00d2 FFF7FEFF 		bl	memp_malloc
 1382              	.LVL129:
 244:Middlewares/Third_Party/LwIP/src/core/pbuf.c ****           PBUF_POOL_IS_EMPTY();
 1383              		.loc 1 244 9 is_stmt 1 view .LVU393
 244:Middlewares/Third_Party/LwIP/src/core/pbuf.c ****           PBUF_POOL_IS_EMPTY();
 1384              		.loc 1 244 12 is_stmt 0 view .LVU394
 1385 00d6 0746     		mov	r7, r0
 1386              	.LVL130:
 244:Middlewares/Third_Party/LwIP/src/core/pbuf.c ****           PBUF_POOL_IS_EMPTY();
 1387              		.loc 1 244 12 view .LVU395
 1388 00d8 0028     		cmp	r0, #0
 1389 00da E4D0     		beq	.L106
 253:Middlewares/Third_Party/LwIP/src/core/pbuf.c ****         pbuf_init_alloced_pbuf(q, LWIP_MEM_ALIGN((void *)((u8_t *)q + SIZEOF_STRUCT_PBUF + offset))
 1390              		.loc 1 253 9 is_stmt 1 view .LVU396
 253:Middlewares/Third_Party/LwIP/src/core/pbuf.c ****         pbuf_init_alloced_pbuf(q, LWIP_MEM_ALIGN((void *)((u8_t *)q + SIZEOF_STRUCT_PBUF + offset))
 1391              		.loc 1 253 16 is_stmt 0 view .LVU397
 1392 00dc EC1C     		adds	r4, r5, #3
 1393 00de 24F00304 		bic	r4, r4, #3
 1394 00e2 A4B2     		uxth	r4, r4
 1395 00e4 C4F51474 		rsb	r4, r4, #592
 1396 00e8 A4B2     		uxth	r4, r4
 253:Middlewares/Third_Party/LwIP/src/core/pbuf.c ****         pbuf_init_alloced_pbuf(q, LWIP_MEM_ALIGN((void *)((u8_t *)q + SIZEOF_STRUCT_PBUF + offset))
 1397              		.loc 1 253 14 view .LVU398
 1398 00ea B442     		cmp	r4, r6
 1399 00ec 28BF     		it	cs
 1400 00ee 3446     		movcs	r4, r6
 1401              	.LVL131:
 254:Middlewares/Third_Party/LwIP/src/core/pbuf.c ****                                rem_len, qlen, type, 0);
 1402              		.loc 1 254 9 is_stmt 1 view .LVU399
 254:Middlewares/Third_Party/LwIP/src/core/pbuf.c ****                                rem_len, qlen, type, 0);
 1403              		.loc 1 254 35 is_stmt 0 view .LVU400
 1404 00f0 05F11001 		add	r1, r5, #16
 1405 00f4 0144     		add	r1, r1, r0
 1406 00f6 0331     		adds	r1, r1, #3
 254:Middlewares/Third_Party/LwIP/src/core/pbuf.c ****                                rem_len, qlen, type, 0);
 1407              		.loc 1 254 9 view .LVU401
 1408 00f8 0023     		movs	r3, #0
 1409 00fa 0193     		str	r3, [sp, #4]
 1410 00fc CDF80080 		str	r8, [sp]
 1411 0100 2346     		mov	r3, r4
 1412 0102 3246     		mov	r2, r6
 1413 0104 21F00301 		bic	r1, r1, #3
 1414 0108 FFF7FEFF 		bl	pbuf_init_alloced_pbuf
 1415              	.LVL132:
 256:Middlewares/Third_Party/LwIP/src/core/pbuf.c ****                     ((mem_ptr_t)q->payload % MEM_ALIGNMENT) == 0);
 1416              		.loc 1 256 9 is_stmt 1 view .LVU402
 256:Middlewares/Third_Party/LwIP/src/core/pbuf.c ****                     ((mem_ptr_t)q->payload % MEM_ALIGNMENT) == 0);
 1417              		.loc 1 256 9 view .LVU403
 1418 010c 7B68     		ldr	r3, [r7, #4]
 1419 010e 13F0030F 		tst	r3, #3
 1420 0112 D2D0     		beq	.L99
 256:Middlewares/Third_Party/LwIP/src/core/pbuf.c ****                     ((mem_ptr_t)q->payload % MEM_ALIGNMENT) == 0);
 1421              		.loc 1 256 9 discriminator 1 view .LVU404
ARM GAS  /var/folders/bg/n1lwdyp56391g865_v8nrmhm0000gn/T//cc4exhWb.s 			page 53


 256:Middlewares/Third_Party/LwIP/src/core/pbuf.c ****                     ((mem_ptr_t)q->payload % MEM_ALIGNMENT) == 0);
 1422              		.loc 1 256 9 discriminator 1 view .LVU405
 1423 0114 0C4B     		ldr	r3, .L107
 1424 0116 4FF48072 		mov	r2, #256
 1425 011a 0E49     		ldr	r1, .L107+12
 1426 011c 0C48     		ldr	r0, .L107+8
 1427 011e FFF7FEFF 		bl	printf
 1428              	.LVL133:
 256:Middlewares/Third_Party/LwIP/src/core/pbuf.c ****                     ((mem_ptr_t)q->payload % MEM_ALIGNMENT) == 0);
 1429              		.loc 1 256 9 discriminator 1 view .LVU406
 256:Middlewares/Third_Party/LwIP/src/core/pbuf.c ****                     ((mem_ptr_t)q->payload % MEM_ALIGNMENT) == 0);
 1430              		.loc 1 256 9 discriminator 1 view .LVU407
 258:Middlewares/Third_Party/LwIP/src/core/pbuf.c ****                     (PBUF_POOL_BUFSIZE_ALIGNED - LWIP_MEM_ALIGN_SIZE(offset)) > 0 );
 1431              		.loc 1 258 9 discriminator 1 view .LVU408
 258:Middlewares/Third_Party/LwIP/src/core/pbuf.c ****                     (PBUF_POOL_BUFSIZE_ALIGNED - LWIP_MEM_ALIGN_SIZE(offset)) > 0 );
 1432              		.loc 1 258 9 discriminator 1 view .LVU409
 1433 0122 CAE7     		b	.L99
 1434              	.L102:
 262:Middlewares/Third_Party/LwIP/src/core/pbuf.c ****         } else {
 1435              		.loc 1 262 13 is_stmt 0 view .LVU410
 1436 0124 B946     		mov	r9, r7
 1437              	.LVL134:
 262:Middlewares/Third_Party/LwIP/src/core/pbuf.c ****         } else {
 1438              		.loc 1 262 13 view .LVU411
 1439 0126 CDE7     		b	.L100
 1440              	.LVL135:
 1441              	.L93:
 262:Middlewares/Third_Party/LwIP/src/core/pbuf.c ****         } else {
 1442              		.loc 1 262 13 view .LVU412
 1443              	.LBE10:
 1444              	.LBE7:
 295:Middlewares/Third_Party/LwIP/src/core/pbuf.c ****       return NULL;
 1445              		.loc 1 295 7 is_stmt 1 discriminator 1 view .LVU413
 295:Middlewares/Third_Party/LwIP/src/core/pbuf.c ****       return NULL;
 1446              		.loc 1 295 7 discriminator 1 view .LVU414
 295:Middlewares/Third_Party/LwIP/src/core/pbuf.c ****       return NULL;
 1447              		.loc 1 295 7 discriminator 1 view .LVU415
 295:Middlewares/Third_Party/LwIP/src/core/pbuf.c ****       return NULL;
 1448              		.loc 1 295 7 discriminator 1 view .LVU416
 1449 0128 074B     		ldr	r3, .L107
 1450 012a 40F22712 		movw	r2, #295
 1451              	.LVL136:
 295:Middlewares/Third_Party/LwIP/src/core/pbuf.c ****       return NULL;
 1452              		.loc 1 295 7 is_stmt 0 discriminator 1 view .LVU417
 1453 012e 0A49     		ldr	r1, .L107+16
 1454              	.LVL137:
 295:Middlewares/Third_Party/LwIP/src/core/pbuf.c ****       return NULL;
 1455              		.loc 1 295 7 discriminator 1 view .LVU418
 1456 0130 0748     		ldr	r0, .L107+8
 1457              	.LVL138:
 295:Middlewares/Third_Party/LwIP/src/core/pbuf.c ****       return NULL;
 1458              		.loc 1 295 7 discriminator 1 view .LVU419
 1459 0132 FFF7FEFF 		bl	printf
 1460              	.LVL139:
 295:Middlewares/Third_Party/LwIP/src/core/pbuf.c ****       return NULL;
 1461              		.loc 1 295 7 is_stmt 1 discriminator 1 view .LVU420
 295:Middlewares/Third_Party/LwIP/src/core/pbuf.c ****       return NULL;
ARM GAS  /var/folders/bg/n1lwdyp56391g865_v8nrmhm0000gn/T//cc4exhWb.s 			page 54


 1462              		.loc 1 295 7 discriminator 1 view .LVU421
 296:Middlewares/Third_Party/LwIP/src/core/pbuf.c ****   }
 1463              		.loc 1 296 7 discriminator 1 view .LVU422
 296:Middlewares/Third_Party/LwIP/src/core/pbuf.c ****   }
 1464              		.loc 1 296 14 is_stmt 0 discriminator 1 view .LVU423
 1465 0136 4FF00009 		mov	r9, #0
 1466 013a 77E7     		b	.L89
 1467              	.LVL140:
 1468              	.L103:
 1469              	.LBB11:
 280:Middlewares/Third_Party/LwIP/src/core/pbuf.c ****       }
 1470              		.loc 1 280 16 view .LVU424
 1471 013c 4FF00009 		mov	r9, #0
 1472 0140 74E7     		b	.L89
 1473              	.L104:
 1474 0142 4FF00009 		mov	r9, #0
 1475 0146 71E7     		b	.L89
 1476              	.L108:
 1477              		.align	2
 1478              	.L107:
 1479 0148 00000000 		.word	.LC0
 1480 014c 64000000 		.word	.LC10
 1481 0150 3C000000 		.word	.LC2
 1482 0154 00000000 		.word	.LC8
 1483 0158 90000000 		.word	.LC11
 1484              	.LBE11:
 1485              		.cfi_endproc
 1486              	.LFE170:
 1488              		.section	.rodata.pbuf_realloc.str1.4,"aMS",%progbits,1
 1489              		.align	2
 1490              	.LC12:
 1491 0000 70627566 		.ascii	"pbuf_realloc: p != NULL\000"
 1491      5F726561 
 1491      6C6C6F63 
 1491      3A207020 
 1491      213D204E 
 1492              		.align	2
 1493              	.LC13:
 1494 0018 70627566 		.ascii	"pbuf_realloc: q != NULL\000"
 1494      5F726561 
 1494      6C6C6F63 
 1494      3A207120 
 1494      213D204E 
 1495              		.align	2
 1496              	.LC14:
 1497 0030 6D656D5F 		.ascii	"mem_trim returned q == NULL\000"
 1497      7472696D 
 1497      20726574 
 1497      75726E65 
 1497      64207120 
 1498              		.section	.text.pbuf_realloc,"ax",%progbits
 1499              		.align	1
 1500              		.global	pbuf_realloc
 1501              		.syntax unified
 1502              		.thumb
 1503              		.thumb_func
 1504              		.fpu fpv5-d16
ARM GAS  /var/folders/bg/n1lwdyp56391g865_v8nrmhm0000gn/T//cc4exhWb.s 			page 55


 1506              	pbuf_realloc:
 1507              	.LVL141:
 1508              	.LFB173:
 403:Middlewares/Third_Party/LwIP/src/core/pbuf.c ****   struct pbuf *q;
 1509              		.loc 1 403 1 is_stmt 1 view -0
 1510              		.cfi_startproc
 1511              		@ args = 0, pretend = 0, frame = 0
 1512              		@ frame_needed = 0, uses_anonymous_args = 0
 403:Middlewares/Third_Party/LwIP/src/core/pbuf.c ****   struct pbuf *q;
 1513              		.loc 1 403 1 is_stmt 0 view .LVU426
 1514 0000 F8B5     		push	{r3, r4, r5, r6, r7, lr}
 1515              	.LCFI23:
 1516              		.cfi_def_cfa_offset 24
 1517              		.cfi_offset 3, -24
 1518              		.cfi_offset 4, -20
 1519              		.cfi_offset 5, -16
 1520              		.cfi_offset 6, -12
 1521              		.cfi_offset 7, -8
 1522              		.cfi_offset 14, -4
 1523 0002 0E46     		mov	r6, r1
 404:Middlewares/Third_Party/LwIP/src/core/pbuf.c ****   u16_t rem_len; /* remaining length */
 1524              		.loc 1 404 3 is_stmt 1 view .LVU427
 405:Middlewares/Third_Party/LwIP/src/core/pbuf.c ****   u16_t shrink;
 1525              		.loc 1 405 3 view .LVU428
 406:Middlewares/Third_Party/LwIP/src/core/pbuf.c **** 
 1526              		.loc 1 406 3 view .LVU429
 408:Middlewares/Third_Party/LwIP/src/core/pbuf.c **** 
 1527              		.loc 1 408 3 view .LVU430
 408:Middlewares/Third_Party/LwIP/src/core/pbuf.c **** 
 1528              		.loc 1 408 3 view .LVU431
 1529 0004 0446     		mov	r4, r0
 1530 0006 B8B1     		cbz	r0, .L118
 1531              	.LVL142:
 1532              	.L110:
 408:Middlewares/Third_Party/LwIP/src/core/pbuf.c **** 
 1533              		.loc 1 408 3 discriminator 3 view .LVU432
 408:Middlewares/Third_Party/LwIP/src/core/pbuf.c **** 
 1534              		.loc 1 408 3 discriminator 3 view .LVU433
 411:Middlewares/Third_Party/LwIP/src/core/pbuf.c ****     /* enlarging not yet supported */
 1535              		.loc 1 411 3 discriminator 3 view .LVU434
 411:Middlewares/Third_Party/LwIP/src/core/pbuf.c ****     /* enlarging not yet supported */
 1536              		.loc 1 411 19 is_stmt 0 discriminator 3 view .LVU435
 1537 0008 2789     		ldrh	r7, [r4, #8]
 411:Middlewares/Third_Party/LwIP/src/core/pbuf.c ****     /* enlarging not yet supported */
 1538              		.loc 1 411 6 discriminator 3 view .LVU436
 1539 000a B742     		cmp	r7, r6
 1540 000c 2ED9     		bls	.L109
 421:Middlewares/Third_Party/LwIP/src/core/pbuf.c ****   q = p;
 1541              		.loc 1 421 11 view .LVU437
 1542 000e 3546     		mov	r5, r6
 1543              	.LVL143:
 1544              	.L112:
 431:Middlewares/Third_Party/LwIP/src/core/pbuf.c ****   }
 1545              		.loc 1 431 5 is_stmt 1 discriminator 3 view .LVU438
 431:Middlewares/Third_Party/LwIP/src/core/pbuf.c ****   }
 1546              		.loc 1 431 5 discriminator 3 view .LVU439
 424:Middlewares/Third_Party/LwIP/src/core/pbuf.c ****     /* decrease remaining length by pbuf length */
ARM GAS  /var/folders/bg/n1lwdyp56391g865_v8nrmhm0000gn/T//cc4exhWb.s 			page 56


 1547              		.loc 1 424 9 discriminator 3 view .LVU440
 424:Middlewares/Third_Party/LwIP/src/core/pbuf.c ****     /* decrease remaining length by pbuf length */
 1548              		.loc 1 424 21 is_stmt 0 discriminator 3 view .LVU441
 1549 0010 6389     		ldrh	r3, [r4, #10]
 424:Middlewares/Third_Party/LwIP/src/core/pbuf.c ****     /* decrease remaining length by pbuf length */
 1550              		.loc 1 424 9 discriminator 3 view .LVU442
 1551 0012 AB42     		cmp	r3, r5
 1552 0014 18D2     		bcs	.L119
 426:Middlewares/Third_Party/LwIP/src/core/pbuf.c ****     /* decrease total length indicator */
 1553              		.loc 1 426 5 is_stmt 1 view .LVU443
 426:Middlewares/Third_Party/LwIP/src/core/pbuf.c ****     /* decrease total length indicator */
 1554              		.loc 1 426 13 is_stmt 0 view .LVU444
 1555 0016 EB1A     		subs	r3, r5, r3
 1556 0018 9DB2     		uxth	r5, r3
 1557              	.LVL144:
 428:Middlewares/Third_Party/LwIP/src/core/pbuf.c ****     /* proceed to next pbuf in chain */
 1558              		.loc 1 428 5 is_stmt 1 view .LVU445
 428:Middlewares/Third_Party/LwIP/src/core/pbuf.c ****     /* proceed to next pbuf in chain */
 1559              		.loc 1 428 27 is_stmt 0 view .LVU446
 1560 001a 2389     		ldrh	r3, [r4, #8]
 428:Middlewares/Third_Party/LwIP/src/core/pbuf.c ****     /* proceed to next pbuf in chain */
 1561              		.loc 1 428 18 view .LVU447
 1562 001c F21B     		subs	r2, r6, r7
 1563 001e 1344     		add	r3, r3, r2
 428:Middlewares/Third_Party/LwIP/src/core/pbuf.c ****     /* proceed to next pbuf in chain */
 1564              		.loc 1 428 16 view .LVU448
 1565 0020 2381     		strh	r3, [r4, #8]	@ movhi
 430:Middlewares/Third_Party/LwIP/src/core/pbuf.c ****     LWIP_ASSERT("pbuf_realloc: q != NULL", q != NULL);
 1566              		.loc 1 430 5 is_stmt 1 view .LVU449
 430:Middlewares/Third_Party/LwIP/src/core/pbuf.c ****     LWIP_ASSERT("pbuf_realloc: q != NULL", q != NULL);
 1567              		.loc 1 430 7 is_stmt 0 view .LVU450
 1568 0022 2468     		ldr	r4, [r4]
 1569              	.LVL145:
 431:Middlewares/Third_Party/LwIP/src/core/pbuf.c ****   }
 1570              		.loc 1 431 5 is_stmt 1 view .LVU451
 431:Middlewares/Third_Party/LwIP/src/core/pbuf.c ****   }
 1571              		.loc 1 431 5 view .LVU452
 1572 0024 002C     		cmp	r4, #0
 1573 0026 F3D1     		bne	.L112
 431:Middlewares/Third_Party/LwIP/src/core/pbuf.c ****   }
 1574              		.loc 1 431 5 discriminator 1 view .LVU453
 431:Middlewares/Third_Party/LwIP/src/core/pbuf.c ****   }
 1575              		.loc 1 431 5 discriminator 1 view .LVU454
 1576 0028 1A4B     		ldr	r3, .L121
 1577 002a 40F2AF12 		movw	r2, #431
 1578 002e 1A49     		ldr	r1, .L121+4
 1579 0030 1A48     		ldr	r0, .L121+8
 1580 0032 FFF7FEFF 		bl	printf
 1581              	.LVL146:
 1582 0036 EBE7     		b	.L112
 1583              	.LVL147:
 1584              	.L118:
 408:Middlewares/Third_Party/LwIP/src/core/pbuf.c **** 
 1585              		.loc 1 408 3 discriminator 1 view .LVU455
 408:Middlewares/Third_Party/LwIP/src/core/pbuf.c **** 
 1586              		.loc 1 408 3 discriminator 1 view .LVU456
 1587 0038 164B     		ldr	r3, .L121
ARM GAS  /var/folders/bg/n1lwdyp56391g865_v8nrmhm0000gn/T//cc4exhWb.s 			page 57


 1588 003a 4FF4CC72 		mov	r2, #408
 1589 003e 1849     		ldr	r1, .L121+12
 1590              	.LVL148:
 408:Middlewares/Third_Party/LwIP/src/core/pbuf.c **** 
 1591              		.loc 1 408 3 is_stmt 0 discriminator 1 view .LVU457
 1592 0040 1648     		ldr	r0, .L121+8
 1593              	.LVL149:
 408:Middlewares/Third_Party/LwIP/src/core/pbuf.c **** 
 1594              		.loc 1 408 3 discriminator 1 view .LVU458
 1595 0042 FFF7FEFF 		bl	printf
 1596              	.LVL150:
 1597 0046 DFE7     		b	.L110
 1598              	.LVL151:
 1599              	.L119:
 438:Middlewares/Third_Party/LwIP/src/core/pbuf.c **** #if LWIP_SUPPORT_CUSTOM_PBUF
 1600              		.loc 1 438 3 is_stmt 1 view .LVU459
 438:Middlewares/Third_Party/LwIP/src/core/pbuf.c **** #if LWIP_SUPPORT_CUSTOM_PBUF
 1601              		.loc 1 438 7 is_stmt 0 view .LVU460
 1602 0048 227B     		ldrb	r2, [r4, #12]	@ zero_extendqisi2
 438:Middlewares/Third_Party/LwIP/src/core/pbuf.c **** #if LWIP_SUPPORT_CUSTOM_PBUF
 1603              		.loc 1 438 6 view .LVU461
 1604 004a 12F00F0F 		tst	r2, #15
 1605 004e 05D1     		bne	.L115
 438:Middlewares/Third_Party/LwIP/src/core/pbuf.c **** #if LWIP_SUPPORT_CUSTOM_PBUF
 1606              		.loc 1 438 65 discriminator 1 view .LVU462
 1607 0050 AB42     		cmp	r3, r5
 1608 0052 03D0     		beq	.L115
 440:Middlewares/Third_Party/LwIP/src/core/pbuf.c **** #endif /* LWIP_SUPPORT_CUSTOM_PBUF */
 1609              		.loc 1 440 13 view .LVU463
 1610 0054 637B     		ldrb	r3, [r4, #13]	@ zero_extendqisi2
 440:Middlewares/Third_Party/LwIP/src/core/pbuf.c **** #endif /* LWIP_SUPPORT_CUSTOM_PBUF */
 1611              		.loc 1 440 7 view .LVU464
 1612 0056 13F0020F 		tst	r3, #2
 1613 005a 08D0     		beq	.L120
 1614              	.L115:
 445:Middlewares/Third_Party/LwIP/src/core/pbuf.c ****   }
 1615              		.loc 1 445 5 is_stmt 1 discriminator 3 view .LVU465
 445:Middlewares/Third_Party/LwIP/src/core/pbuf.c ****   }
 1616              		.loc 1 445 5 discriminator 3 view .LVU466
 448:Middlewares/Third_Party/LwIP/src/core/pbuf.c ****   q->tot_len = q->len;
 1617              		.loc 1 448 3 discriminator 3 view .LVU467
 448:Middlewares/Third_Party/LwIP/src/core/pbuf.c ****   q->tot_len = q->len;
 1618              		.loc 1 448 10 is_stmt 0 discriminator 3 view .LVU468
 1619 005c 6581     		strh	r5, [r4, #10]	@ movhi
 449:Middlewares/Third_Party/LwIP/src/core/pbuf.c **** 
 1620              		.loc 1 449 3 is_stmt 1 discriminator 3 view .LVU469
 449:Middlewares/Third_Party/LwIP/src/core/pbuf.c **** 
 1621              		.loc 1 449 14 is_stmt 0 discriminator 3 view .LVU470
 1622 005e 2581     		strh	r5, [r4, #8]	@ movhi
 452:Middlewares/Third_Party/LwIP/src/core/pbuf.c ****     /* free remaining pbufs in chain */
 1623              		.loc 1 452 3 is_stmt 1 discriminator 3 view .LVU471
 452:Middlewares/Third_Party/LwIP/src/core/pbuf.c ****     /* free remaining pbufs in chain */
 1624              		.loc 1 452 8 is_stmt 0 discriminator 3 view .LVU472
 1625 0060 2068     		ldr	r0, [r4]
 452:Middlewares/Third_Party/LwIP/src/core/pbuf.c ****     /* free remaining pbufs in chain */
 1626              		.loc 1 452 6 discriminator 3 view .LVU473
 1627 0062 08B1     		cbz	r0, .L116
ARM GAS  /var/folders/bg/n1lwdyp56391g865_v8nrmhm0000gn/T//cc4exhWb.s 			page 58


 454:Middlewares/Third_Party/LwIP/src/core/pbuf.c ****   }
 1628              		.loc 1 454 5 is_stmt 1 view .LVU474
 1629 0064 FFF7FEFF 		bl	pbuf_free
 1630              	.LVL152:
 1631              	.L116:
 457:Middlewares/Third_Party/LwIP/src/core/pbuf.c **** 
 1632              		.loc 1 457 3 view .LVU475
 457:Middlewares/Third_Party/LwIP/src/core/pbuf.c **** 
 1633              		.loc 1 457 11 is_stmt 0 view .LVU476
 1634 0068 0023     		movs	r3, #0
 1635 006a 2360     		str	r3, [r4]
 1636              	.LVL153:
 1637              	.L109:
 459:Middlewares/Third_Party/LwIP/src/core/pbuf.c **** 
 1638              		.loc 1 459 1 view .LVU477
 1639 006c F8BD     		pop	{r3, r4, r5, r6, r7, pc}
 1640              	.LVL154:
 1641              	.L120:
 444:Middlewares/Third_Party/LwIP/src/core/pbuf.c ****     LWIP_ASSERT("mem_trim returned q == NULL", q != NULL);
 1642              		.loc 1 444 5 is_stmt 1 view .LVU478
 444:Middlewares/Third_Party/LwIP/src/core/pbuf.c ****     LWIP_ASSERT("mem_trim returned q == NULL", q != NULL);
 1643              		.loc 1 444 59 is_stmt 0 view .LVU479
 1644 006e 6368     		ldr	r3, [r4, #4]
 444:Middlewares/Third_Party/LwIP/src/core/pbuf.c ****     LWIP_ASSERT("mem_trim returned q == NULL", q != NULL);
 1645              		.loc 1 444 69 view .LVU480
 1646 0070 1B1B     		subs	r3, r3, r4
 444:Middlewares/Third_Party/LwIP/src/core/pbuf.c ****     LWIP_ASSERT("mem_trim returned q == NULL", q != NULL);
 1647              		.loc 1 444 24 view .LVU481
 1648 0072 E918     		adds	r1, r5, r3
 1649 0074 89B2     		uxth	r1, r1
 1650 0076 2046     		mov	r0, r4
 1651 0078 FFF7FEFF 		bl	mem_trim
 1652              	.LVL155:
 445:Middlewares/Third_Party/LwIP/src/core/pbuf.c ****   }
 1653              		.loc 1 445 5 is_stmt 1 view .LVU482
 445:Middlewares/Third_Party/LwIP/src/core/pbuf.c ****   }
 1654              		.loc 1 445 5 view .LVU483
 1655 007c 0446     		mov	r4, r0
 1656 007e 0028     		cmp	r0, #0
 1657 0080 ECD1     		bne	.L115
 445:Middlewares/Third_Party/LwIP/src/core/pbuf.c ****   }
 1658              		.loc 1 445 5 discriminator 1 view .LVU484
 445:Middlewares/Third_Party/LwIP/src/core/pbuf.c ****   }
 1659              		.loc 1 445 5 discriminator 1 view .LVU485
 1660 0082 044B     		ldr	r3, .L121
 1661 0084 40F2BD12 		movw	r2, #445
 1662 0088 0649     		ldr	r1, .L121+16
 1663 008a 0448     		ldr	r0, .L121+8
 1664              	.LVL156:
 445:Middlewares/Third_Party/LwIP/src/core/pbuf.c ****   }
 1665              		.loc 1 445 5 is_stmt 0 discriminator 1 view .LVU486
 1666 008c FFF7FEFF 		bl	printf
 1667              	.LVL157:
 1668 0090 E4E7     		b	.L115
 1669              	.L122:
 1670 0092 00BF     		.align	2
 1671              	.L121:
ARM GAS  /var/folders/bg/n1lwdyp56391g865_v8nrmhm0000gn/T//cc4exhWb.s 			page 59


 1672 0094 00000000 		.word	.LC0
 1673 0098 18000000 		.word	.LC13
 1674 009c 3C000000 		.word	.LC2
 1675 00a0 00000000 		.word	.LC12
 1676 00a4 30000000 		.word	.LC14
 1677              		.cfi_endproc
 1678              	.LFE173:
 1680              		.section	.text.pbuf_free_header,"ax",%progbits
 1681              		.align	1
 1682              		.global	pbuf_free_header
 1683              		.syntax unified
 1684              		.thumb
 1685              		.thumb_func
 1686              		.fpu fpv5-d16
 1688              	pbuf_free_header:
 1689              	.LVL158:
 1690              	.LFB181:
 672:Middlewares/Third_Party/LwIP/src/core/pbuf.c ****   struct pbuf *p = q;
 1691              		.loc 1 672 1 is_stmt 1 view -0
 1692              		.cfi_startproc
 1693              		@ args = 0, pretend = 0, frame = 0
 1694              		@ frame_needed = 0, uses_anonymous_args = 0
 672:Middlewares/Third_Party/LwIP/src/core/pbuf.c ****   struct pbuf *p = q;
 1695              		.loc 1 672 1 is_stmt 0 view .LVU488
 1696 0000 70B5     		push	{r4, r5, r6, lr}
 1697              	.LCFI24:
 1698              		.cfi_def_cfa_offset 16
 1699              		.cfi_offset 4, -16
 1700              		.cfi_offset 5, -12
 1701              		.cfi_offset 6, -8
 1702              		.cfi_offset 14, -4
 1703 0002 0546     		mov	r5, r0
 1704 0004 0C46     		mov	r4, r1
 673:Middlewares/Third_Party/LwIP/src/core/pbuf.c ****   u16_t free_left = size;
 1705              		.loc 1 673 3 is_stmt 1 view .LVU489
 1706              	.LVL159:
 674:Middlewares/Third_Party/LwIP/src/core/pbuf.c ****   while (free_left && p) {
 1707              		.loc 1 674 3 view .LVU490
 675:Middlewares/Third_Party/LwIP/src/core/pbuf.c ****     if (free_left >= p->len) {
 1708              		.loc 1 675 3 view .LVU491
 675:Middlewares/Third_Party/LwIP/src/core/pbuf.c ****     if (free_left >= p->len) {
 1709              		.loc 1 675 9 is_stmt 0 view .LVU492
 1710 0006 04E0     		b	.L124
 1711              	.LVL160:
 1712              	.L125:
 683:Middlewares/Third_Party/LwIP/src/core/pbuf.c ****       free_left = 0;
 1713              		.loc 1 683 7 is_stmt 1 view .LVU493
 1714 0008 2146     		mov	r1, r4
 1715 000a 2846     		mov	r0, r5
 1716 000c FFF7FEFF 		bl	pbuf_remove_header
 1717              	.LVL161:
 684:Middlewares/Third_Party/LwIP/src/core/pbuf.c ****     }
 1718              		.loc 1 684 7 view .LVU494
 684:Middlewares/Third_Party/LwIP/src/core/pbuf.c ****     }
 1719              		.loc 1 684 17 is_stmt 0 view .LVU495
 1720 0010 0024     		movs	r4, #0
 1721              	.LVL162:
ARM GAS  /var/folders/bg/n1lwdyp56391g865_v8nrmhm0000gn/T//cc4exhWb.s 			page 60


 1722              	.L124:
 675:Middlewares/Third_Party/LwIP/src/core/pbuf.c ****     if (free_left >= p->len) {
 1723              		.loc 1 675 9 is_stmt 1 view .LVU496
 1724 0012 002C     		cmp	r4, #0
 1725 0014 18BF     		it	ne
 1726 0016 002D     		cmpne	r5, #0
 1727 0018 0CD0     		beq	.L129
 676:Middlewares/Third_Party/LwIP/src/core/pbuf.c ****       struct pbuf *f = p;
 1728              		.loc 1 676 5 view .LVU497
 676:Middlewares/Third_Party/LwIP/src/core/pbuf.c ****       struct pbuf *f = p;
 1729              		.loc 1 676 23 is_stmt 0 view .LVU498
 1730 001a 6989     		ldrh	r1, [r5, #10]
 676:Middlewares/Third_Party/LwIP/src/core/pbuf.c ****       struct pbuf *f = p;
 1731              		.loc 1 676 8 view .LVU499
 1732 001c A142     		cmp	r1, r4
 1733 001e F3D8     		bhi	.L125
 1734              	.LBB12:
 677:Middlewares/Third_Party/LwIP/src/core/pbuf.c ****       free_left = (u16_t)(free_left - p->len);
 1735              		.loc 1 677 7 is_stmt 1 view .LVU500
 1736              	.LVL163:
 678:Middlewares/Third_Party/LwIP/src/core/pbuf.c ****       p = p->next;
 1737              		.loc 1 678 7 view .LVU501
 678:Middlewares/Third_Party/LwIP/src/core/pbuf.c ****       p = p->next;
 1738              		.loc 1 678 17 is_stmt 0 view .LVU502
 1739 0020 641A     		subs	r4, r4, r1
 1740              	.LVL164:
 678:Middlewares/Third_Party/LwIP/src/core/pbuf.c ****       p = p->next;
 1741              		.loc 1 678 17 view .LVU503
 1742 0022 A4B2     		uxth	r4, r4
 1743              	.LVL165:
 679:Middlewares/Third_Party/LwIP/src/core/pbuf.c ****       f->next = 0;
 1744              		.loc 1 679 7 is_stmt 1 view .LVU504
 679:Middlewares/Third_Party/LwIP/src/core/pbuf.c ****       f->next = 0;
 1745              		.loc 1 679 9 is_stmt 0 view .LVU505
 1746 0024 2E68     		ldr	r6, [r5]
 1747              	.LVL166:
 680:Middlewares/Third_Party/LwIP/src/core/pbuf.c ****       pbuf_free(f);
 1748              		.loc 1 680 7 is_stmt 1 view .LVU506
 680:Middlewares/Third_Party/LwIP/src/core/pbuf.c ****       pbuf_free(f);
 1749              		.loc 1 680 15 is_stmt 0 view .LVU507
 1750 0026 0023     		movs	r3, #0
 1751 0028 2B60     		str	r3, [r5]
 681:Middlewares/Third_Party/LwIP/src/core/pbuf.c ****     } else {
 1752              		.loc 1 681 7 is_stmt 1 view .LVU508
 1753 002a 2846     		mov	r0, r5
 1754 002c FFF7FEFF 		bl	pbuf_free
 1755              	.LVL167:
 679:Middlewares/Third_Party/LwIP/src/core/pbuf.c ****       f->next = 0;
 1756              		.loc 1 679 9 is_stmt 0 view .LVU509
 1757 0030 3546     		mov	r5, r6
 1758              	.LVL168:
 679:Middlewares/Third_Party/LwIP/src/core/pbuf.c ****       f->next = 0;
 1759              		.loc 1 679 9 view .LVU510
 1760              	.LBE12:
 1761 0032 EEE7     		b	.L124
 1762              	.LVL169:
 1763              	.L129:
ARM GAS  /var/folders/bg/n1lwdyp56391g865_v8nrmhm0000gn/T//cc4exhWb.s 			page 61


 687:Middlewares/Third_Party/LwIP/src/core/pbuf.c **** }
 1764              		.loc 1 687 3 is_stmt 1 view .LVU511
 688:Middlewares/Third_Party/LwIP/src/core/pbuf.c **** 
 1765              		.loc 1 688 1 is_stmt 0 view .LVU512
 1766 0034 2846     		mov	r0, r5
 1767 0036 70BD     		pop	{r4, r5, r6, pc}
 688:Middlewares/Third_Party/LwIP/src/core/pbuf.c **** 
 1768              		.loc 1 688 1 view .LVU513
 1769              		.cfi_endproc
 1770              	.LFE181:
 1772              		.section	.text.pbuf_clen,"ax",%progbits
 1773              		.align	1
 1774              		.global	pbuf_clen
 1775              		.syntax unified
 1776              		.thumb
 1777              		.thumb_func
 1778              		.fpu fpv5-d16
 1780              	pbuf_clen:
 1781              	.LVL170:
 1782              	.LFB183:
 810:Middlewares/Third_Party/LwIP/src/core/pbuf.c ****   u16_t len;
 1783              		.loc 1 810 1 is_stmt 1 view -0
 1784              		.cfi_startproc
 1785              		@ args = 0, pretend = 0, frame = 0
 1786              		@ frame_needed = 0, uses_anonymous_args = 0
 1787              		@ link register save eliminated.
 810:Middlewares/Third_Party/LwIP/src/core/pbuf.c ****   u16_t len;
 1788              		.loc 1 810 1 is_stmt 0 view .LVU515
 1789 0000 0346     		mov	r3, r0
 811:Middlewares/Third_Party/LwIP/src/core/pbuf.c **** 
 1790              		.loc 1 811 3 is_stmt 1 view .LVU516
 813:Middlewares/Third_Party/LwIP/src/core/pbuf.c ****   while (p != NULL) {
 1791              		.loc 1 813 3 view .LVU517
 1792              	.LVL171:
 814:Middlewares/Third_Party/LwIP/src/core/pbuf.c ****     ++len;
 1793              		.loc 1 814 3 view .LVU518
 813:Middlewares/Third_Party/LwIP/src/core/pbuf.c ****   while (p != NULL) {
 1794              		.loc 1 813 7 is_stmt 0 view .LVU519
 1795 0002 0020     		movs	r0, #0
 1796              	.LVL172:
 814:Middlewares/Third_Party/LwIP/src/core/pbuf.c ****     ++len;
 1797              		.loc 1 814 9 view .LVU520
 1798 0004 02E0     		b	.L131
 1799              	.LVL173:
 1800              	.L132:
 815:Middlewares/Third_Party/LwIP/src/core/pbuf.c ****     p = p->next;
 1801              		.loc 1 815 5 is_stmt 1 view .LVU521
 1802 0006 0130     		adds	r0, r0, #1
 1803              	.LVL174:
 815:Middlewares/Third_Party/LwIP/src/core/pbuf.c ****     p = p->next;
 1804              		.loc 1 815 5 is_stmt 0 view .LVU522
 1805 0008 80B2     		uxth	r0, r0
 1806              	.LVL175:
 816:Middlewares/Third_Party/LwIP/src/core/pbuf.c ****   }
 1807              		.loc 1 816 5 is_stmt 1 view .LVU523
 816:Middlewares/Third_Party/LwIP/src/core/pbuf.c ****   }
 1808              		.loc 1 816 7 is_stmt 0 view .LVU524
ARM GAS  /var/folders/bg/n1lwdyp56391g865_v8nrmhm0000gn/T//cc4exhWb.s 			page 62


 1809 000a 1B68     		ldr	r3, [r3]
 1810              	.LVL176:
 1811              	.L131:
 814:Middlewares/Third_Party/LwIP/src/core/pbuf.c ****     ++len;
 1812              		.loc 1 814 9 is_stmt 1 view .LVU525
 1813 000c 002B     		cmp	r3, #0
 1814 000e FAD1     		bne	.L132
 818:Middlewares/Third_Party/LwIP/src/core/pbuf.c **** }
 1815              		.loc 1 818 3 view .LVU526
 819:Middlewares/Third_Party/LwIP/src/core/pbuf.c **** 
 1816              		.loc 1 819 1 is_stmt 0 view .LVU527
 1817 0010 7047     		bx	lr
 1818              		.cfi_endproc
 1819              	.LFE183:
 1821              		.section	.rodata.pbuf_ref.str1.4,"aMS",%progbits,1
 1822              		.align	2
 1823              	.LC15:
 1824 0000 70627566 		.ascii	"pbuf ref overflow\000"
 1824      20726566 
 1824      206F7665 
 1824      72666C6F 
 1824      7700
 1825              		.section	.text.pbuf_ref,"ax",%progbits
 1826              		.align	1
 1827              		.global	pbuf_ref
 1828              		.syntax unified
 1829              		.thumb
 1830              		.thumb_func
 1831              		.fpu fpv5-d16
 1833              	pbuf_ref:
 1834              	.LVL177:
 1835              	.LFB184:
 830:Middlewares/Third_Party/LwIP/src/core/pbuf.c ****   /* pbuf given? */
 1836              		.loc 1 830 1 is_stmt 1 view -0
 1837              		.cfi_startproc
 1838              		@ args = 0, pretend = 0, frame = 0
 1839              		@ frame_needed = 0, uses_anonymous_args = 0
 832:Middlewares/Third_Party/LwIP/src/core/pbuf.c ****     SYS_ARCH_SET(p->ref, (LWIP_PBUF_REF_T)(p->ref + 1));
 1840              		.loc 1 832 3 view .LVU529
 832:Middlewares/Third_Party/LwIP/src/core/pbuf.c ****     SYS_ARCH_SET(p->ref, (LWIP_PBUF_REF_T)(p->ref + 1));
 1841              		.loc 1 832 6 is_stmt 0 view .LVU530
 1842 0000 70B1     		cbz	r0, .L136
 830:Middlewares/Third_Party/LwIP/src/core/pbuf.c ****   /* pbuf given? */
 1843              		.loc 1 830 1 view .LVU531
 1844 0002 08B5     		push	{r3, lr}
 1845              	.LCFI25:
 1846              		.cfi_def_cfa_offset 8
 1847              		.cfi_offset 3, -8
 1848              		.cfi_offset 14, -4
 833:Middlewares/Third_Party/LwIP/src/core/pbuf.c ****     LWIP_ASSERT("pbuf ref overflow", p->ref > 0);
 1849              		.loc 1 833 5 is_stmt 1 view .LVU532
 833:Middlewares/Third_Party/LwIP/src/core/pbuf.c ****     LWIP_ASSERT("pbuf ref overflow", p->ref > 0);
 1850              		.loc 1 833 5 view .LVU533
 833:Middlewares/Third_Party/LwIP/src/core/pbuf.c ****     LWIP_ASSERT("pbuf ref overflow", p->ref > 0);
 1851              		.loc 1 833 5 view .LVU534
 833:Middlewares/Third_Party/LwIP/src/core/pbuf.c ****     LWIP_ASSERT("pbuf ref overflow", p->ref > 0);
 1852              		.loc 1 833 5 view .LVU535
ARM GAS  /var/folders/bg/n1lwdyp56391g865_v8nrmhm0000gn/T//cc4exhWb.s 			page 63


 1853 0004 837B     		ldrb	r3, [r0, #14]	@ zero_extendqisi2
 1854 0006 0133     		adds	r3, r3, #1
 1855 0008 DBB2     		uxtb	r3, r3
 1856 000a 8373     		strb	r3, [r0, #14]
 833:Middlewares/Third_Party/LwIP/src/core/pbuf.c ****     LWIP_ASSERT("pbuf ref overflow", p->ref > 0);
 1857              		.loc 1 833 5 view .LVU536
 833:Middlewares/Third_Party/LwIP/src/core/pbuf.c ****     LWIP_ASSERT("pbuf ref overflow", p->ref > 0);
 1858              		.loc 1 833 5 view .LVU537
 834:Middlewares/Third_Party/LwIP/src/core/pbuf.c ****   }
 1859              		.loc 1 834 5 view .LVU538
 834:Middlewares/Third_Party/LwIP/src/core/pbuf.c ****   }
 1860              		.loc 1 834 5 view .LVU539
 1861 000c 03B1     		cbz	r3, .L139
 1862              	.LVL178:
 1863              	.L133:
 836:Middlewares/Third_Party/LwIP/src/core/pbuf.c **** 
 1864              		.loc 1 836 1 is_stmt 0 view .LVU540
 1865 000e 08BD     		pop	{r3, pc}
 1866              	.LVL179:
 1867              	.L139:
 834:Middlewares/Third_Party/LwIP/src/core/pbuf.c ****   }
 1868              		.loc 1 834 5 is_stmt 1 discriminator 1 view .LVU541
 834:Middlewares/Third_Party/LwIP/src/core/pbuf.c ****   }
 1869              		.loc 1 834 5 discriminator 1 view .LVU542
 1870 0010 044B     		ldr	r3, .L140
 1871 0012 40F24232 		movw	r2, #834
 1872 0016 0449     		ldr	r1, .L140+4
 1873 0018 0448     		ldr	r0, .L140+8
 1874              	.LVL180:
 834:Middlewares/Third_Party/LwIP/src/core/pbuf.c ****   }
 1875              		.loc 1 834 5 is_stmt 0 discriminator 1 view .LVU543
 1876 001a FFF7FEFF 		bl	printf
 1877              	.LVL181:
 834:Middlewares/Third_Party/LwIP/src/core/pbuf.c ****   }
 1878              		.loc 1 834 5 is_stmt 1 discriminator 1 view .LVU544
 834:Middlewares/Third_Party/LwIP/src/core/pbuf.c ****   }
 1879              		.loc 1 834 5 discriminator 1 view .LVU545
 836:Middlewares/Third_Party/LwIP/src/core/pbuf.c **** 
 1880              		.loc 1 836 1 is_stmt 0 discriminator 1 view .LVU546
 1881 001e F6E7     		b	.L133
 1882              	.LVL182:
 1883              	.L136:
 1884              	.LCFI26:
 1885              		.cfi_def_cfa_offset 0
 1886              		.cfi_restore 3
 1887              		.cfi_restore 14
 836:Middlewares/Third_Party/LwIP/src/core/pbuf.c **** 
 1888              		.loc 1 836 1 discriminator 1 view .LVU547
 1889 0020 7047     		bx	lr
 1890              	.L141:
 1891 0022 00BF     		.align	2
 1892              	.L140:
 1893 0024 00000000 		.word	.LC0
 1894 0028 00000000 		.word	.LC15
 1895 002c 3C000000 		.word	.LC2
 1896              		.cfi_endproc
 1897              	.LFE184:
ARM GAS  /var/folders/bg/n1lwdyp56391g865_v8nrmhm0000gn/T//cc4exhWb.s 			page 64


 1899              		.section	.rodata.pbuf_cat.str1.4,"aMS",%progbits,1
 1900              		.align	2
 1901              	.LC16:
 1902 0000 28682021 		.ascii	"(h != NULL) && (t != NULL) (programmer violates API"
 1902      3D204E55 
 1902      4C4C2920 
 1902      26262028 
 1902      7420213D 
 1903 0033 2900     		.ascii	")\000"
 1904 0035 000000   		.align	2
 1905              	.LC17:
 1906 0038 702D3E74 		.ascii	"p->tot_len == p->len (of last pbuf in chain)\000"
 1906      6F745F6C 
 1906      656E203D 
 1906      3D20702D 
 1906      3E6C656E 
 1907 0065 000000   		.align	2
 1908              	.LC18:
 1909 0068 702D3E6E 		.ascii	"p->next == NULL\000"
 1909      65787420 
 1909      3D3D204E 
 1909      554C4C00 
 1910              		.section	.text.pbuf_cat,"ax",%progbits
 1911              		.align	1
 1912              		.global	pbuf_cat
 1913              		.syntax unified
 1914              		.thumb
 1915              		.thumb_func
 1916              		.fpu fpv5-d16
 1918              	pbuf_cat:
 1919              	.LVL183:
 1920              	.LFB185:
 854:Middlewares/Third_Party/LwIP/src/core/pbuf.c ****   struct pbuf *p;
 1921              		.loc 1 854 1 is_stmt 1 view -0
 1922              		.cfi_startproc
 1923              		@ args = 0, pretend = 0, frame = 0
 1924              		@ frame_needed = 0, uses_anonymous_args = 0
 854:Middlewares/Third_Party/LwIP/src/core/pbuf.c ****   struct pbuf *p;
 1925              		.loc 1 854 1 is_stmt 0 view .LVU549
 1926 0000 38B5     		push	{r3, r4, r5, lr}
 1927              	.LCFI27:
 1928              		.cfi_def_cfa_offset 16
 1929              		.cfi_offset 3, -16
 1930              		.cfi_offset 4, -12
 1931              		.cfi_offset 5, -8
 1932              		.cfi_offset 14, -4
 855:Middlewares/Third_Party/LwIP/src/core/pbuf.c **** 
 1933              		.loc 1 855 3 is_stmt 1 view .LVU550
 857:Middlewares/Third_Party/LwIP/src/core/pbuf.c ****              ((h != NULL) && (t != NULL)), return;);
 1934              		.loc 1 857 3 view .LVU551
 857:Middlewares/Third_Party/LwIP/src/core/pbuf.c ****              ((h != NULL) && (t != NULL)), return;);
 1935              		.loc 1 857 3 view .LVU552
 1936 0002 0446     		mov	r4, r0
 1937 0004 0D46     		mov	r5, r1
 1938 0006 0029     		cmp	r1, #0
 1939 0008 18BF     		it	ne
 1940 000a 0028     		cmpne	r0, #0
ARM GAS  /var/folders/bg/n1lwdyp56391g865_v8nrmhm0000gn/T//cc4exhWb.s 			page 65


 1941 000c 0CD1     		bne	.L143
 857:Middlewares/Third_Party/LwIP/src/core/pbuf.c ****              ((h != NULL) && (t != NULL)), return;);
 1942              		.loc 1 857 3 discriminator 1 view .LVU553
 857:Middlewares/Third_Party/LwIP/src/core/pbuf.c ****              ((h != NULL) && (t != NULL)), return;);
 1943              		.loc 1 857 3 discriminator 1 view .LVU554
 1944 000e 154B     		ldr	r3, .L150
 1945 0010 40F25932 		movw	r2, #857
 1946 0014 1449     		ldr	r1, .L150+4
 1947              	.LVL184:
 857:Middlewares/Third_Party/LwIP/src/core/pbuf.c ****              ((h != NULL) && (t != NULL)), return;);
 1948              		.loc 1 857 3 is_stmt 0 discriminator 1 view .LVU555
 1949 0016 1548     		ldr	r0, .L150+8
 1950              	.LVL185:
 857:Middlewares/Third_Party/LwIP/src/core/pbuf.c ****              ((h != NULL) && (t != NULL)), return;);
 1951              		.loc 1 857 3 discriminator 1 view .LVU556
 1952 0018 FFF7FEFF 		bl	printf
 1953              	.LVL186:
 857:Middlewares/Third_Party/LwIP/src/core/pbuf.c ****              ((h != NULL) && (t != NULL)), return;);
 1954              		.loc 1 857 3 is_stmt 1 discriminator 1 view .LVU557
 857:Middlewares/Third_Party/LwIP/src/core/pbuf.c ****              ((h != NULL) && (t != NULL)), return;);
 1955              		.loc 1 857 3 discriminator 1 view .LVU558
 1956 001c 19E0     		b	.L142
 1957              	.LVL187:
 1958              	.L145:
 863:Middlewares/Third_Party/LwIP/src/core/pbuf.c ****   }
 1959              		.loc 1 863 5 discriminator 3 view .LVU559
 863:Middlewares/Third_Party/LwIP/src/core/pbuf.c ****   }
 1960              		.loc 1 863 27 is_stmt 0 discriminator 3 view .LVU560
 1961 001e 2389     		ldrh	r3, [r4, #8]
 863:Middlewares/Third_Party/LwIP/src/core/pbuf.c ****   }
 1962              		.loc 1 863 40 discriminator 3 view .LVU561
 1963 0020 2989     		ldrh	r1, [r5, #8]
 863:Middlewares/Third_Party/LwIP/src/core/pbuf.c ****   }
 1964              		.loc 1 863 18 discriminator 3 view .LVU562
 1965 0022 0B44     		add	r3, r3, r1
 863:Middlewares/Third_Party/LwIP/src/core/pbuf.c ****   }
 1966              		.loc 1 863 16 discriminator 3 view .LVU563
 1967 0024 2381     		strh	r3, [r4, #8]	@ movhi
 861:Middlewares/Third_Party/LwIP/src/core/pbuf.c ****     /* add total length of second chain to all totals of first chain */
 1968              		.loc 1 861 32 is_stmt 1 discriminator 3 view .LVU564
 1969              	.LVL188:
 861:Middlewares/Third_Party/LwIP/src/core/pbuf.c ****     /* add total length of second chain to all totals of first chain */
 1970              		.loc 1 861 34 is_stmt 0 discriminator 3 view .LVU565
 1971 0026 1446     		mov	r4, r2
 1972              	.LVL189:
 1973              	.L143:
 861:Middlewares/Third_Party/LwIP/src/core/pbuf.c ****     /* add total length of second chain to all totals of first chain */
 1974              		.loc 1 861 15 is_stmt 1 discriminator 1 view .LVU566
 861:Middlewares/Third_Party/LwIP/src/core/pbuf.c ****     /* add total length of second chain to all totals of first chain */
 1975              		.loc 1 861 16 is_stmt 0 discriminator 1 view .LVU567
 1976 0028 2268     		ldr	r2, [r4]
 861:Middlewares/Third_Party/LwIP/src/core/pbuf.c ****     /* add total length of second chain to all totals of first chain */
 1977              		.loc 1 861 3 discriminator 1 view .LVU568
 1978 002a 002A     		cmp	r2, #0
 1979 002c F7D1     		bne	.L145
 866:Middlewares/Third_Party/LwIP/src/core/pbuf.c ****   LWIP_ASSERT("p->next == NULL", p->next == NULL);
 1980              		.loc 1 866 3 is_stmt 1 view .LVU569
ARM GAS  /var/folders/bg/n1lwdyp56391g865_v8nrmhm0000gn/T//cc4exhWb.s 			page 66


 866:Middlewares/Third_Party/LwIP/src/core/pbuf.c ****   LWIP_ASSERT("p->next == NULL", p->next == NULL);
 1981              		.loc 1 866 3 view .LVU570
 1982 002e 2289     		ldrh	r2, [r4, #8]
 1983 0030 6389     		ldrh	r3, [r4, #10]
 1984 0032 9A42     		cmp	r2, r3
 1985 0034 0ED1     		bne	.L149
 1986              	.LVL190:
 1987              	.L146:
 866:Middlewares/Third_Party/LwIP/src/core/pbuf.c ****   LWIP_ASSERT("p->next == NULL", p->next == NULL);
 1988              		.loc 1 866 3 discriminator 3 view .LVU571
 866:Middlewares/Third_Party/LwIP/src/core/pbuf.c ****   LWIP_ASSERT("p->next == NULL", p->next == NULL);
 1989              		.loc 1 866 3 discriminator 3 view .LVU572
 867:Middlewares/Third_Party/LwIP/src/core/pbuf.c ****   /* add total length of second chain to last pbuf total of first chain */
 1990              		.loc 1 867 3 discriminator 3 view .LVU573
 867:Middlewares/Third_Party/LwIP/src/core/pbuf.c ****   /* add total length of second chain to last pbuf total of first chain */
 1991              		.loc 1 867 3 discriminator 3 view .LVU574
 1992 0036 2368     		ldr	r3, [r4]
 1993 0038 33B1     		cbz	r3, .L147
 867:Middlewares/Third_Party/LwIP/src/core/pbuf.c ****   /* add total length of second chain to last pbuf total of first chain */
 1994              		.loc 1 867 3 discriminator 1 view .LVU575
 867:Middlewares/Third_Party/LwIP/src/core/pbuf.c ****   /* add total length of second chain to last pbuf total of first chain */
 1995              		.loc 1 867 3 discriminator 1 view .LVU576
 1996 003a 0A4B     		ldr	r3, .L150
 1997 003c 40F26332 		movw	r2, #867
 1998 0040 0B49     		ldr	r1, .L150+12
 1999 0042 0A48     		ldr	r0, .L150+8
 2000 0044 FFF7FEFF 		bl	printf
 2001              	.LVL191:
 2002              	.L147:
 867:Middlewares/Third_Party/LwIP/src/core/pbuf.c ****   /* add total length of second chain to last pbuf total of first chain */
 2003              		.loc 1 867 3 discriminator 3 view .LVU577
 867:Middlewares/Third_Party/LwIP/src/core/pbuf.c ****   /* add total length of second chain to last pbuf total of first chain */
 2004              		.loc 1 867 3 discriminator 3 view .LVU578
 869:Middlewares/Third_Party/LwIP/src/core/pbuf.c ****   /* chain last pbuf of head (p) with first of tail (t) */
 2005              		.loc 1 869 3 discriminator 3 view .LVU579
 869:Middlewares/Third_Party/LwIP/src/core/pbuf.c ****   /* chain last pbuf of head (p) with first of tail (t) */
 2006              		.loc 1 869 25 is_stmt 0 discriminator 3 view .LVU580
 2007 0048 2389     		ldrh	r3, [r4, #8]
 869:Middlewares/Third_Party/LwIP/src/core/pbuf.c ****   /* chain last pbuf of head (p) with first of tail (t) */
 2008              		.loc 1 869 38 discriminator 3 view .LVU581
 2009 004a 2A89     		ldrh	r2, [r5, #8]
 869:Middlewares/Third_Party/LwIP/src/core/pbuf.c ****   /* chain last pbuf of head (p) with first of tail (t) */
 2010              		.loc 1 869 16 discriminator 3 view .LVU582
 2011 004c 1344     		add	r3, r3, r2
 869:Middlewares/Third_Party/LwIP/src/core/pbuf.c ****   /* chain last pbuf of head (p) with first of tail (t) */
 2012              		.loc 1 869 14 discriminator 3 view .LVU583
 2013 004e 2381     		strh	r3, [r4, #8]	@ movhi
 871:Middlewares/Third_Party/LwIP/src/core/pbuf.c ****   /* p->next now references t, but the caller will drop its reference to t,
 2014              		.loc 1 871 3 is_stmt 1 discriminator 3 view .LVU584
 871:Middlewares/Third_Party/LwIP/src/core/pbuf.c ****   /* p->next now references t, but the caller will drop its reference to t,
 2015              		.loc 1 871 11 is_stmt 0 discriminator 3 view .LVU585
 2016 0050 2560     		str	r5, [r4]
 2017              	.LVL192:
 2018              	.L142:
 875:Middlewares/Third_Party/LwIP/src/core/pbuf.c **** 
 2019              		.loc 1 875 1 view .LVU586
 2020 0052 38BD     		pop	{r3, r4, r5, pc}
ARM GAS  /var/folders/bg/n1lwdyp56391g865_v8nrmhm0000gn/T//cc4exhWb.s 			page 67


 2021              	.LVL193:
 2022              	.L149:
 866:Middlewares/Third_Party/LwIP/src/core/pbuf.c ****   LWIP_ASSERT("p->next == NULL", p->next == NULL);
 2023              		.loc 1 866 3 is_stmt 1 discriminator 1 view .LVU587
 866:Middlewares/Third_Party/LwIP/src/core/pbuf.c ****   LWIP_ASSERT("p->next == NULL", p->next == NULL);
 2024              		.loc 1 866 3 discriminator 1 view .LVU588
 2025 0054 034B     		ldr	r3, .L150
 2026 0056 40F26232 		movw	r2, #866
 2027 005a 0649     		ldr	r1, .L150+16
 2028 005c 0348     		ldr	r0, .L150+8
 2029              	.LVL194:
 866:Middlewares/Third_Party/LwIP/src/core/pbuf.c ****   LWIP_ASSERT("p->next == NULL", p->next == NULL);
 2030              		.loc 1 866 3 is_stmt 0 discriminator 1 view .LVU589
 2031 005e FFF7FEFF 		bl	printf
 2032              	.LVL195:
 2033 0062 E8E7     		b	.L146
 2034              	.L151:
 2035              		.align	2
 2036              	.L150:
 2037 0064 00000000 		.word	.LC0
 2038 0068 00000000 		.word	.LC16
 2039 006c 3C000000 		.word	.LC2
 2040 0070 68000000 		.word	.LC18
 2041 0074 38000000 		.word	.LC17
 2042              		.cfi_endproc
 2043              	.LFE185:
 2045              		.section	.text.pbuf_chain,"ax",%progbits
 2046              		.align	1
 2047              		.global	pbuf_chain
 2048              		.syntax unified
 2049              		.thumb
 2050              		.thumb_func
 2051              		.fpu fpv5-d16
 2053              	pbuf_chain:
 2054              	.LVL196:
 2055              	.LFB186:
 896:Middlewares/Third_Party/LwIP/src/core/pbuf.c ****   pbuf_cat(h, t);
 2056              		.loc 1 896 1 is_stmt 1 view -0
 2057              		.cfi_startproc
 2058              		@ args = 0, pretend = 0, frame = 0
 2059              		@ frame_needed = 0, uses_anonymous_args = 0
 896:Middlewares/Third_Party/LwIP/src/core/pbuf.c ****   pbuf_cat(h, t);
 2060              		.loc 1 896 1 is_stmt 0 view .LVU591
 2061 0000 10B5     		push	{r4, lr}
 2062              	.LCFI28:
 2063              		.cfi_def_cfa_offset 8
 2064              		.cfi_offset 4, -8
 2065              		.cfi_offset 14, -4
 2066 0002 0C46     		mov	r4, r1
 897:Middlewares/Third_Party/LwIP/src/core/pbuf.c ****   /* t is now referenced by h */
 2067              		.loc 1 897 3 is_stmt 1 view .LVU592
 2068 0004 FFF7FEFF 		bl	pbuf_cat
 2069              	.LVL197:
 899:Middlewares/Third_Party/LwIP/src/core/pbuf.c ****   LWIP_DEBUGF(PBUF_DEBUG | LWIP_DBG_TRACE, ("pbuf_chain: %p references %p\n", (void *)h, (void *)t)
 2070              		.loc 1 899 3 view .LVU593
 2071 0008 2046     		mov	r0, r4
 2072 000a FFF7FEFF 		bl	pbuf_ref
ARM GAS  /var/folders/bg/n1lwdyp56391g865_v8nrmhm0000gn/T//cc4exhWb.s 			page 68


 2073              	.LVL198:
 900:Middlewares/Third_Party/LwIP/src/core/pbuf.c **** }
 2074              		.loc 1 900 101 view .LVU594
 901:Middlewares/Third_Party/LwIP/src/core/pbuf.c **** 
 2075              		.loc 1 901 1 is_stmt 0 view .LVU595
 2076 000e 10BD     		pop	{r4, pc}
 901:Middlewares/Third_Party/LwIP/src/core/pbuf.c **** 
 2077              		.loc 1 901 1 view .LVU596
 2078              		.cfi_endproc
 2079              	.LFE186:
 2081              		.section	.rodata.pbuf_dechain.str1.4,"aMS",%progbits,1
 2082              		.align	2
 2083              	.LC19:
 2084 0000 702D3E74 		.ascii	"p->tot_len == p->len + q->tot_len\000"
 2084      6F745F6C 
 2084      656E203D 
 2084      3D20702D 
 2084      3E6C656E 
 2085 0022 0000     		.align	2
 2086              	.LC20:
 2087 0024 702D3E74 		.ascii	"p->tot_len == p->len\000"
 2087      6F745F6C 
 2087      656E203D 
 2087      3D20702D 
 2087      3E6C656E 
 2088              		.section	.text.pbuf_dechain,"ax",%progbits
 2089              		.align	1
 2090              		.global	pbuf_dechain
 2091              		.syntax unified
 2092              		.thumb
 2093              		.thumb_func
 2094              		.fpu fpv5-d16
 2096              	pbuf_dechain:
 2097              	.LVL199:
 2098              	.LFB187:
 913:Middlewares/Third_Party/LwIP/src/core/pbuf.c ****   struct pbuf *q;
 2099              		.loc 1 913 1 is_stmt 1 view -0
 2100              		.cfi_startproc
 2101              		@ args = 0, pretend = 0, frame = 0
 2102              		@ frame_needed = 0, uses_anonymous_args = 0
 913:Middlewares/Third_Party/LwIP/src/core/pbuf.c ****   struct pbuf *q;
 2103              		.loc 1 913 1 is_stmt 0 view .LVU598
 2104 0000 70B5     		push	{r4, r5, r6, lr}
 2105              	.LCFI29:
 2106              		.cfi_def_cfa_offset 16
 2107              		.cfi_offset 4, -16
 2108              		.cfi_offset 5, -12
 2109              		.cfi_offset 6, -8
 2110              		.cfi_offset 14, -4
 2111 0002 0446     		mov	r4, r0
 914:Middlewares/Third_Party/LwIP/src/core/pbuf.c ****   u8_t tail_gone = 1;
 2112              		.loc 1 914 3 is_stmt 1 view .LVU599
 915:Middlewares/Third_Party/LwIP/src/core/pbuf.c ****   /* tail */
 2113              		.loc 1 915 3 view .LVU600
 2114              	.LVL200:
 917:Middlewares/Third_Party/LwIP/src/core/pbuf.c ****   /* pbuf has successor in chain? */
 2115              		.loc 1 917 3 view .LVU601
ARM GAS  /var/folders/bg/n1lwdyp56391g865_v8nrmhm0000gn/T//cc4exhWb.s 			page 69


 917:Middlewares/Third_Party/LwIP/src/core/pbuf.c ****   /* pbuf has successor in chain? */
 2116              		.loc 1 917 5 is_stmt 0 view .LVU602
 2117 0004 0568     		ldr	r5, [r0]
 2118              	.LVL201:
 919:Middlewares/Third_Party/LwIP/src/core/pbuf.c ****     /* assert tot_len invariant: (p->tot_len == p->len + (p->next? p->next->tot_len: 0) */
 2119              		.loc 1 919 3 is_stmt 1 view .LVU603
 919:Middlewares/Third_Party/LwIP/src/core/pbuf.c ****     /* assert tot_len invariant: (p->tot_len == p->len + (p->next? p->next->tot_len: 0) */
 2120              		.loc 1 919 6 is_stmt 0 view .LVU604
 2121 0006 05B3     		cbz	r5, .L159
 921:Middlewares/Third_Party/LwIP/src/core/pbuf.c ****     /* enforce invariant if assertion is disabled */
 2122              		.loc 1 921 5 is_stmt 1 view .LVU605
 921:Middlewares/Third_Party/LwIP/src/core/pbuf.c ****     /* enforce invariant if assertion is disabled */
 2123              		.loc 1 921 5 view .LVU606
 2124 0008 2A89     		ldrh	r2, [r5, #8]
 2125 000a 0389     		ldrh	r3, [r0, #8]
 2126 000c 4189     		ldrh	r1, [r0, #10]
 2127 000e 5B1A     		subs	r3, r3, r1
 2128 0010 9A42     		cmp	r2, r3
 2129 0012 12D1     		bne	.L162
 2130              	.LVL202:
 2131              	.L156:
 921:Middlewares/Third_Party/LwIP/src/core/pbuf.c ****     /* enforce invariant if assertion is disabled */
 2132              		.loc 1 921 5 discriminator 3 view .LVU607
 921:Middlewares/Third_Party/LwIP/src/core/pbuf.c ****     /* enforce invariant if assertion is disabled */
 2133              		.loc 1 921 5 discriminator 3 view .LVU608
 923:Middlewares/Third_Party/LwIP/src/core/pbuf.c ****     /* decouple pbuf from remainder */
 2134              		.loc 1 923 5 discriminator 3 view .LVU609
 923:Middlewares/Third_Party/LwIP/src/core/pbuf.c ****     /* decouple pbuf from remainder */
 2135              		.loc 1 923 27 is_stmt 0 discriminator 3 view .LVU610
 2136 0014 2389     		ldrh	r3, [r4, #8]
 923:Middlewares/Third_Party/LwIP/src/core/pbuf.c ****     /* decouple pbuf from remainder */
 2137              		.loc 1 923 40 discriminator 3 view .LVU611
 2138 0016 6289     		ldrh	r2, [r4, #10]
 923:Middlewares/Third_Party/LwIP/src/core/pbuf.c ****     /* decouple pbuf from remainder */
 2139              		.loc 1 923 18 discriminator 3 view .LVU612
 2140 0018 9B1A     		subs	r3, r3, r2
 923:Middlewares/Third_Party/LwIP/src/core/pbuf.c ****     /* decouple pbuf from remainder */
 2141              		.loc 1 923 16 discriminator 3 view .LVU613
 2142 001a 2B81     		strh	r3, [r5, #8]	@ movhi
 925:Middlewares/Third_Party/LwIP/src/core/pbuf.c ****     /* total length of pbuf p is its own length only */
 2143              		.loc 1 925 5 is_stmt 1 discriminator 3 view .LVU614
 925:Middlewares/Third_Party/LwIP/src/core/pbuf.c ****     /* total length of pbuf p is its own length only */
 2144              		.loc 1 925 13 is_stmt 0 discriminator 3 view .LVU615
 2145 001c 0023     		movs	r3, #0
 2146 001e 2360     		str	r3, [r4]
 927:Middlewares/Third_Party/LwIP/src/core/pbuf.c ****     /* q is no longer referenced by p, free it */
 2147              		.loc 1 927 5 is_stmt 1 discriminator 3 view .LVU616
 927:Middlewares/Third_Party/LwIP/src/core/pbuf.c ****     /* q is no longer referenced by p, free it */
 2148              		.loc 1 927 19 is_stmt 0 discriminator 3 view .LVU617
 2149 0020 6389     		ldrh	r3, [r4, #10]
 927:Middlewares/Third_Party/LwIP/src/core/pbuf.c ****     /* q is no longer referenced by p, free it */
 2150              		.loc 1 927 16 discriminator 3 view .LVU618
 2151 0022 2381     		strh	r3, [r4, #8]	@ movhi
 929:Middlewares/Third_Party/LwIP/src/core/pbuf.c ****     tail_gone = pbuf_free(q);
 2152              		.loc 1 929 94 is_stmt 1 discriminator 3 view .LVU619
 930:Middlewares/Third_Party/LwIP/src/core/pbuf.c ****     if (tail_gone > 0) {
 2153              		.loc 1 930 5 discriminator 3 view .LVU620
ARM GAS  /var/folders/bg/n1lwdyp56391g865_v8nrmhm0000gn/T//cc4exhWb.s 			page 70


 930:Middlewares/Third_Party/LwIP/src/core/pbuf.c ****     if (tail_gone > 0) {
 2154              		.loc 1 930 17 is_stmt 0 discriminator 3 view .LVU621
 2155 0024 2846     		mov	r0, r5
 2156 0026 FFF7FEFF 		bl	pbuf_free
 2157              	.LVL203:
 2158 002a 0646     		mov	r6, r0
 2159              	.LVL204:
 931:Middlewares/Third_Party/LwIP/src/core/pbuf.c ****       LWIP_DEBUGF(PBUF_DEBUG | LWIP_DBG_TRACE,
 2160              		.loc 1 931 5 is_stmt 1 discriminator 3 view .LVU622
 2161              	.L155:
 933:Middlewares/Third_Party/LwIP/src/core/pbuf.c ****     }
 2162              		.loc 1 933 97 view .LVU623
 938:Middlewares/Third_Party/LwIP/src/core/pbuf.c ****   return ((tail_gone > 0) ? NULL : q);
 2163              		.loc 1 938 3 view .LVU624
 938:Middlewares/Third_Party/LwIP/src/core/pbuf.c ****   return ((tail_gone > 0) ? NULL : q);
 2164              		.loc 1 938 3 view .LVU625
 2165 002c 2289     		ldrh	r2, [r4, #8]
 2166 002e 6389     		ldrh	r3, [r4, #10]
 2167 0030 9A42     		cmp	r2, r3
 2168 0032 0CD1     		bne	.L163
 2169              	.L157:
 938:Middlewares/Third_Party/LwIP/src/core/pbuf.c ****   return ((tail_gone > 0) ? NULL : q);
 2170              		.loc 1 938 3 discriminator 3 view .LVU626
 938:Middlewares/Third_Party/LwIP/src/core/pbuf.c ****   return ((tail_gone > 0) ? NULL : q);
 2171              		.loc 1 938 3 discriminator 3 view .LVU627
 939:Middlewares/Third_Party/LwIP/src/core/pbuf.c **** }
 2172              		.loc 1 939 3 discriminator 3 view .LVU628
 939:Middlewares/Third_Party/LwIP/src/core/pbuf.c **** }
 2173              		.loc 1 939 34 is_stmt 0 discriminator 3 view .LVU629
 2174 0034 9EB9     		cbnz	r6, .L164
 2175              	.LVL205:
 2176              	.L154:
 940:Middlewares/Third_Party/LwIP/src/core/pbuf.c **** 
 2177              		.loc 1 940 1 view .LVU630
 2178 0036 2846     		mov	r0, r5
 2179 0038 70BD     		pop	{r4, r5, r6, pc}
 2180              	.LVL206:
 2181              	.L162:
 921:Middlewares/Third_Party/LwIP/src/core/pbuf.c ****     /* enforce invariant if assertion is disabled */
 2182              		.loc 1 921 5 is_stmt 1 discriminator 1 view .LVU631
 921:Middlewares/Third_Party/LwIP/src/core/pbuf.c ****     /* enforce invariant if assertion is disabled */
 2183              		.loc 1 921 5 discriminator 1 view .LVU632
 2184 003a 0A4B     		ldr	r3, .L165
 2185 003c 40F29932 		movw	r2, #921
 2186 0040 0949     		ldr	r1, .L165+4
 2187 0042 0A48     		ldr	r0, .L165+8
 2188              	.LVL207:
 921:Middlewares/Third_Party/LwIP/src/core/pbuf.c ****     /* enforce invariant if assertion is disabled */
 2189              		.loc 1 921 5 is_stmt 0 discriminator 1 view .LVU633
 2190 0044 FFF7FEFF 		bl	printf
 2191              	.LVL208:
 2192 0048 E4E7     		b	.L156
 2193              	.LVL209:
 2194              	.L159:
 915:Middlewares/Third_Party/LwIP/src/core/pbuf.c ****   /* tail */
 2195              		.loc 1 915 8 view .LVU634
 2196 004a 0126     		movs	r6, #1
ARM GAS  /var/folders/bg/n1lwdyp56391g865_v8nrmhm0000gn/T//cc4exhWb.s 			page 71


 2197 004c EEE7     		b	.L155
 2198              	.LVL210:
 2199              	.L163:
 938:Middlewares/Third_Party/LwIP/src/core/pbuf.c ****   return ((tail_gone > 0) ? NULL : q);
 2200              		.loc 1 938 3 is_stmt 1 discriminator 1 view .LVU635
 938:Middlewares/Third_Party/LwIP/src/core/pbuf.c ****   return ((tail_gone > 0) ? NULL : q);
 2201              		.loc 1 938 3 discriminator 1 view .LVU636
 2202 004e 054B     		ldr	r3, .L165
 2203 0050 40F2AA32 		movw	r2, #938
 2204 0054 0649     		ldr	r1, .L165+12
 2205 0056 0548     		ldr	r0, .L165+8
 2206 0058 FFF7FEFF 		bl	printf
 2207              	.LVL211:
 2208 005c EAE7     		b	.L157
 2209              	.L164:
 939:Middlewares/Third_Party/LwIP/src/core/pbuf.c **** }
 2210              		.loc 1 939 34 is_stmt 0 view .LVU637
 2211 005e 0025     		movs	r5, #0
 2212              	.LVL212:
 939:Middlewares/Third_Party/LwIP/src/core/pbuf.c **** }
 2213              		.loc 1 939 34 view .LVU638
 2214 0060 E9E7     		b	.L154
 2215              	.L166:
 2216 0062 00BF     		.align	2
 2217              	.L165:
 2218 0064 00000000 		.word	.LC0
 2219 0068 00000000 		.word	.LC19
 2220 006c 3C000000 		.word	.LC2
 2221 0070 24000000 		.word	.LC20
 2222              		.cfi_endproc
 2223              	.LFE187:
 2225              		.section	.rodata.pbuf_copy.str1.4,"aMS",%progbits,1
 2226              		.align	2
 2227              	.LC21:
 2228 0000 70627566 		.ascii	"pbuf_copy: target not big enough to hold source\000"
 2228      5F636F70 
 2228      793A2074 
 2228      61726765 
 2228      74206E6F 
 2229              		.align	2
 2230              	.LC22:
 2231 0030 6F666673 		.ascii	"offset_to <= p_to->len\000"
 2231      65745F74 
 2231      6F203C3D 
 2231      20705F74 
 2231      6F2D3E6C 
 2232 0047 00       		.align	2
 2233              	.LC23:
 2234 0048 6F666673 		.ascii	"offset_from <= p_from->len\000"
 2234      65745F66 
 2234      726F6D20 
 2234      3C3D2070 
 2234      5F66726F 
 2235 0063 00       		.align	2
 2236              	.LC24:
 2237 0064 705F746F 		.ascii	"p_to != NULL\000"
 2237      20213D20 
ARM GAS  /var/folders/bg/n1lwdyp56391g865_v8nrmhm0000gn/T//cc4exhWb.s 			page 72


 2237      4E554C4C 
 2237      00
 2238 0071 000000   		.align	2
 2239              	.LC25:
 2240 0074 70627566 		.ascii	"pbuf_copy() does not allow packet queues!\000"
 2240      5F636F70 
 2240      79282920 
 2240      646F6573 
 2240      206E6F74 
 2241              		.section	.text.pbuf_copy,"ax",%progbits
 2242              		.align	1
 2243              		.global	pbuf_copy
 2244              		.syntax unified
 2245              		.thumb
 2246              		.thumb_func
 2247              		.fpu fpv5-d16
 2249              	pbuf_copy:
 2250              	.LVL213:
 2251              	.LFB188:
 962:Middlewares/Third_Party/LwIP/src/core/pbuf.c ****   size_t offset_to = 0, offset_from = 0, len;
 2252              		.loc 1 962 1 is_stmt 1 view -0
 2253              		.cfi_startproc
 2254              		@ args = 0, pretend = 0, frame = 0
 2255              		@ frame_needed = 0, uses_anonymous_args = 0
 962:Middlewares/Third_Party/LwIP/src/core/pbuf.c ****   size_t offset_to = 0, offset_from = 0, len;
 2256              		.loc 1 962 1 is_stmt 0 view .LVU640
 2257 0000 2DE9F041 		push	{r4, r5, r6, r7, r8, lr}
 2258              	.LCFI30:
 2259              		.cfi_def_cfa_offset 24
 2260              		.cfi_offset 4, -24
 2261              		.cfi_offset 5, -20
 2262              		.cfi_offset 6, -16
 2263              		.cfi_offset 7, -12
 2264              		.cfi_offset 8, -8
 2265              		.cfi_offset 14, -4
 963:Middlewares/Third_Party/LwIP/src/core/pbuf.c **** 
 2266              		.loc 1 963 3 is_stmt 1 view .LVU641
 2267              	.LVL214:
 966:Middlewares/Third_Party/LwIP/src/core/pbuf.c **** 
 2268              		.loc 1 966 57 view .LVU642
 969:Middlewares/Third_Party/LwIP/src/core/pbuf.c ****              (p_from != NULL) && (p_to->tot_len >= p_from->tot_len)), return ERR_ARG;);
 2269              		.loc 1 969 3 view .LVU643
 969:Middlewares/Third_Party/LwIP/src/core/pbuf.c ****              (p_from != NULL) && (p_to->tot_len >= p_from->tot_len)), return ERR_ARG;);
 2270              		.loc 1 969 3 view .LVU644
 2271 0004 0029     		cmp	r1, #0
 2272 0006 18BF     		it	ne
 2273 0008 0028     		cmpne	r0, #0
 2274 000a 08D0     		beq	.L168
 2275 000c 0546     		mov	r5, r0
 2276 000e 0C46     		mov	r4, r1
 969:Middlewares/Third_Party/LwIP/src/core/pbuf.c ****              (p_from != NULL) && (p_to->tot_len >= p_from->tot_len)), return ERR_ARG;);
 2277              		.loc 1 969 3 is_stmt 0 discriminator 2 view .LVU645
 2278 0010 0289     		ldrh	r2, [r0, #8]
 2279 0012 0B89     		ldrh	r3, [r1, #8]
 2280 0014 9A42     		cmp	r2, r3
 2281 0016 02D3     		bcc	.L168
 963:Middlewares/Third_Party/LwIP/src/core/pbuf.c **** 
ARM GAS  /var/folders/bg/n1lwdyp56391g865_v8nrmhm0000gn/T//cc4exhWb.s 			page 73


 2282              		.loc 1 963 25 view .LVU646
 2283 0018 0027     		movs	r7, #0
 963:Middlewares/Third_Party/LwIP/src/core/pbuf.c **** 
 2284              		.loc 1 963 10 view .LVU647
 2285 001a B846     		mov	r8, r7
 2286 001c 3CE0     		b	.L169
 2287              	.L168:
 969:Middlewares/Third_Party/LwIP/src/core/pbuf.c ****              (p_from != NULL) && (p_to->tot_len >= p_from->tot_len)), return ERR_ARG;);
 2288              		.loc 1 969 3 is_stmt 1 discriminator 3 view .LVU648
 969:Middlewares/Third_Party/LwIP/src/core/pbuf.c ****              (p_from != NULL) && (p_to->tot_len >= p_from->tot_len)), return ERR_ARG;);
 2289              		.loc 1 969 3 discriminator 3 view .LVU649
 2290 001e 3B4B     		ldr	r3, .L187
 2291 0020 40F2C932 		movw	r2, #969
 2292 0024 3A49     		ldr	r1, .L187+4
 2293              	.LVL215:
 969:Middlewares/Third_Party/LwIP/src/core/pbuf.c ****              (p_from != NULL) && (p_to->tot_len >= p_from->tot_len)), return ERR_ARG;);
 2294              		.loc 1 969 3 is_stmt 0 discriminator 3 view .LVU650
 2295 0026 3B48     		ldr	r0, .L187+8
 2296              	.LVL216:
 969:Middlewares/Third_Party/LwIP/src/core/pbuf.c ****              (p_from != NULL) && (p_to->tot_len >= p_from->tot_len)), return ERR_ARG;);
 2297              		.loc 1 969 3 discriminator 3 view .LVU651
 2298 0028 FFF7FEFF 		bl	printf
 2299              	.LVL217:
 969:Middlewares/Third_Party/LwIP/src/core/pbuf.c ****              (p_from != NULL) && (p_to->tot_len >= p_from->tot_len)), return ERR_ARG;);
 2300              		.loc 1 969 3 is_stmt 1 discriminator 3 view .LVU652
 969:Middlewares/Third_Party/LwIP/src/core/pbuf.c ****              (p_from != NULL) && (p_to->tot_len >= p_from->tot_len)), return ERR_ARG;);
 2301              		.loc 1 969 3 discriminator 3 view .LVU653
 2302 002c 6FF00F00 		mvn	r0, #15
 2303 0030 6AE0     		b	.L170
 2304              	.LVL218:
 2305              	.L183:
 985:Middlewares/Third_Party/LwIP/src/core/pbuf.c ****     LWIP_ASSERT("offset_from <= p_from->len", offset_from <= p_from->len);
 2306              		.loc 1 985 5 discriminator 1 view .LVU654
 985:Middlewares/Third_Party/LwIP/src/core/pbuf.c ****     LWIP_ASSERT("offset_from <= p_from->len", offset_from <= p_from->len);
 2307              		.loc 1 985 5 discriminator 1 view .LVU655
 2308 0032 364B     		ldr	r3, .L187
 2309 0034 40F2D932 		movw	r2, #985
 2310 0038 3749     		ldr	r1, .L187+12
 2311 003a 3648     		ldr	r0, .L187+8
 2312 003c FFF7FEFF 		bl	printf
 2313              	.LVL219:
 2314 0040 3EE0     		b	.L172
 2315              	.L184:
 986:Middlewares/Third_Party/LwIP/src/core/pbuf.c ****     if (offset_from >= p_from->len) {
 2316              		.loc 1 986 5 discriminator 1 view .LVU656
 986:Middlewares/Third_Party/LwIP/src/core/pbuf.c ****     if (offset_from >= p_from->len) {
 2317              		.loc 1 986 5 discriminator 1 view .LVU657
 2318 0042 324B     		ldr	r3, .L187
 2319 0044 40F2DA32 		movw	r2, #986
 2320 0048 3449     		ldr	r1, .L187+16
 2321 004a 3248     		ldr	r0, .L187+8
 2322 004c FFF7FEFF 		bl	printf
 2323              	.LVL220:
 2324 0050 39E0     		b	.L173
 2325              	.L185:
 994:Middlewares/Third_Party/LwIP/src/core/pbuf.c ****       p_to = p_to->next;
 2326              		.loc 1 994 7 view .LVU658
ARM GAS  /var/folders/bg/n1lwdyp56391g865_v8nrmhm0000gn/T//cc4exhWb.s 			page 74


 2327              	.LVL221:
 995:Middlewares/Third_Party/LwIP/src/core/pbuf.c ****       LWIP_ERROR("p_to != NULL", (p_to != NULL) || (p_from == NULL), return ERR_ARG;);
 2328              		.loc 1 995 7 view .LVU659
 995:Middlewares/Third_Party/LwIP/src/core/pbuf.c ****       LWIP_ERROR("p_to != NULL", (p_to != NULL) || (p_from == NULL), return ERR_ARG;);
 2329              		.loc 1 995 12 is_stmt 0 view .LVU660
 2330 0052 2D68     		ldr	r5, [r5]
 2331              	.LVL222:
 996:Middlewares/Third_Party/LwIP/src/core/pbuf.c ****     }
 2332              		.loc 1 996 7 is_stmt 1 view .LVU661
 996:Middlewares/Third_Party/LwIP/src/core/pbuf.c ****     }
 2333              		.loc 1 996 7 view .LVU662
 2334 0054 B5FA85F3 		clz	r3, r5
 2335 0058 5B09     		lsrs	r3, r3, #5
 2336 005a 002C     		cmp	r4, #0
 2337 005c 08BF     		it	eq
 2338 005e 0023     		moveq	r3, #0
 2339 0060 13B9     		cbnz	r3, .L181
 994:Middlewares/Third_Party/LwIP/src/core/pbuf.c ****       p_to = p_to->next;
 2340              		.loc 1 994 17 is_stmt 0 view .LVU663
 2341 0062 4FF00008 		mov	r8, #0
 2342 0066 36E0     		b	.L175
 2343              	.L181:
 996:Middlewares/Third_Party/LwIP/src/core/pbuf.c ****     }
 2344              		.loc 1 996 7 is_stmt 1 discriminator 1 view .LVU664
 996:Middlewares/Third_Party/LwIP/src/core/pbuf.c ****     }
 2345              		.loc 1 996 7 discriminator 1 view .LVU665
 2346 0068 284B     		ldr	r3, .L187
 2347 006a 4FF47972 		mov	r2, #996
 2348 006e 2C49     		ldr	r1, .L187+20
 2349 0070 2848     		ldr	r0, .L187+8
 2350 0072 FFF7FEFF 		bl	printf
 2351              	.LVL223:
 996:Middlewares/Third_Party/LwIP/src/core/pbuf.c ****     }
 2352              		.loc 1 996 7 discriminator 1 view .LVU666
 996:Middlewares/Third_Party/LwIP/src/core/pbuf.c ****     }
 2353              		.loc 1 996 7 discriminator 1 view .LVU667
 2354 0076 6FF00F00 		mvn	r0, #15
 2355 007a 45E0     		b	.L170
 2356              	.LVL224:
 2357              	.L186:
1001:Middlewares/Third_Party/LwIP/src/core/pbuf.c ****                  (p_from->next == NULL), return ERR_VAL;);
 2358              		.loc 1 1001 7 view .LVU668
1001:Middlewares/Third_Party/LwIP/src/core/pbuf.c ****                  (p_from->next == NULL), return ERR_VAL;);
 2359              		.loc 1 1001 7 view .LVU669
 2360 007c 2368     		ldr	r3, [r4]
 2361 007e 7BB3     		cbz	r3, .L176
1001:Middlewares/Third_Party/LwIP/src/core/pbuf.c ****                  (p_from->next == NULL), return ERR_VAL;);
 2362              		.loc 1 1001 7 discriminator 1 view .LVU670
1001:Middlewares/Third_Party/LwIP/src/core/pbuf.c ****                  (p_from->next == NULL), return ERR_VAL;);
 2363              		.loc 1 1001 7 discriminator 1 view .LVU671
 2364 0080 224B     		ldr	r3, .L187
 2365 0082 40F2E932 		movw	r2, #1001
 2366 0086 2749     		ldr	r1, .L187+24
 2367 0088 2248     		ldr	r0, .L187+8
 2368 008a FFF7FEFF 		bl	printf
 2369              	.LVL225:
1001:Middlewares/Third_Party/LwIP/src/core/pbuf.c ****                  (p_from->next == NULL), return ERR_VAL;);
ARM GAS  /var/folders/bg/n1lwdyp56391g865_v8nrmhm0000gn/T//cc4exhWb.s 			page 75


 2370              		.loc 1 1001 7 discriminator 1 view .LVU672
1001:Middlewares/Third_Party/LwIP/src/core/pbuf.c ****                  (p_from->next == NULL), return ERR_VAL;);
 2371              		.loc 1 1001 7 discriminator 1 view .LVU673
 2372 008e 6FF00500 		mvn	r0, #5
 2373 0092 39E0     		b	.L170
 2374              	.L177:
1006:Middlewares/Third_Party/LwIP/src/core/pbuf.c ****                  (p_to->next == NULL), return ERR_VAL;);
 2375              		.loc 1 1006 7 discriminator 2 view .LVU674
1006:Middlewares/Third_Party/LwIP/src/core/pbuf.c ****                  (p_to->next == NULL), return ERR_VAL;);
 2376              		.loc 1 1006 7 discriminator 2 view .LVU675
1009:Middlewares/Third_Party/LwIP/src/core/pbuf.c ****   LWIP_DEBUGF(PBUF_DEBUG | LWIP_DBG_TRACE, ("pbuf_copy: end of chain reached.\n"));
 2377              		.loc 1 1009 11 discriminator 2 view .LVU676
1009:Middlewares/Third_Party/LwIP/src/core/pbuf.c ****   LWIP_DEBUGF(PBUF_DEBUG | LWIP_DBG_TRACE, ("pbuf_copy: end of chain reached.\n"));
 2378              		.loc 1 1009 3 is_stmt 0 discriminator 2 view .LVU677
 2379 0094 002C     		cmp	r4, #0
 2380 0096 36D0     		beq	.L182
 2381              	.LVL226:
 2382              	.L169:
 969:Middlewares/Third_Party/LwIP/src/core/pbuf.c ****              (p_from != NULL) && (p_to->tot_len >= p_from->tot_len)), return ERR_ARG;);
 2383              		.loc 1 969 3 is_stmt 1 discriminator 4 view .LVU678
 969:Middlewares/Third_Party/LwIP/src/core/pbuf.c ****              (p_from != NULL) && (p_to->tot_len >= p_from->tot_len)), return ERR_ARG;);
 2384              		.loc 1 969 3 discriminator 4 view .LVU679
 973:Middlewares/Third_Party/LwIP/src/core/pbuf.c ****     /* copy one part of the original chain */
 2385              		.loc 1 973 3 discriminator 4 view .LVU680
 975:Middlewares/Third_Party/LwIP/src/core/pbuf.c ****       /* complete current p_from fits into current p_to */
 2386              		.loc 1 975 5 discriminator 4 view .LVU681
 975:Middlewares/Third_Party/LwIP/src/core/pbuf.c ****       /* complete current p_from fits into current p_to */
 2387              		.loc 1 975 14 is_stmt 0 discriminator 4 view .LVU682
 2388 0098 6E89     		ldrh	r6, [r5, #10]
 975:Middlewares/Third_Party/LwIP/src/core/pbuf.c ****       /* complete current p_from fits into current p_to */
 2389              		.loc 1 975 20 discriminator 4 view .LVU683
 2390 009a A6EB0806 		sub	r6, r6, r8
 975:Middlewares/Third_Party/LwIP/src/core/pbuf.c ****       /* complete current p_from fits into current p_to */
 2391              		.loc 1 975 43 discriminator 4 view .LVU684
 2392 009e 6389     		ldrh	r3, [r4, #10]
 975:Middlewares/Third_Party/LwIP/src/core/pbuf.c ****       /* complete current p_from fits into current p_to */
 2393              		.loc 1 975 49 discriminator 4 view .LVU685
 2394 00a0 DB1B     		subs	r3, r3, r7
 975:Middlewares/Third_Party/LwIP/src/core/pbuf.c ****       /* complete current p_from fits into current p_to */
 2395              		.loc 1 975 8 discriminator 4 view .LVU686
 2396 00a2 9E42     		cmp	r6, r3
 2397 00a4 00D3     		bcc	.L171
 977:Middlewares/Third_Party/LwIP/src/core/pbuf.c ****     } else {
 2398              		.loc 1 977 11 view .LVU687
 2399 00a6 1E46     		mov	r6, r3
 2400              	.L171:
 2401              	.LVL227:
 982:Middlewares/Third_Party/LwIP/src/core/pbuf.c ****     offset_to += len;
 2402              		.loc 1 982 5 is_stmt 1 view .LVU688
 2403 00a8 6868     		ldr	r0, [r5, #4]
 2404 00aa 6168     		ldr	r1, [r4, #4]
 2405 00ac 3246     		mov	r2, r6
 2406 00ae 3944     		add	r1, r1, r7
 2407 00b0 4044     		add	r0, r0, r8
 2408 00b2 FFF7FEFF 		bl	memcpy
 2409              	.LVL228:
 983:Middlewares/Third_Party/LwIP/src/core/pbuf.c ****     offset_from += len;
ARM GAS  /var/folders/bg/n1lwdyp56391g865_v8nrmhm0000gn/T//cc4exhWb.s 			page 76


 2410              		.loc 1 983 5 view .LVU689
 983:Middlewares/Third_Party/LwIP/src/core/pbuf.c ****     offset_from += len;
 2411              		.loc 1 983 15 is_stmt 0 view .LVU690
 2412 00b6 B044     		add	r8, r8, r6
 2413              	.LVL229:
 984:Middlewares/Third_Party/LwIP/src/core/pbuf.c ****     LWIP_ASSERT("offset_to <= p_to->len", offset_to <= p_to->len);
 2414              		.loc 1 984 5 is_stmt 1 view .LVU691
 984:Middlewares/Third_Party/LwIP/src/core/pbuf.c ****     LWIP_ASSERT("offset_to <= p_to->len", offset_to <= p_to->len);
 2415              		.loc 1 984 17 is_stmt 0 view .LVU692
 2416 00b8 3744     		add	r7, r7, r6
 2417              	.LVL230:
 985:Middlewares/Third_Party/LwIP/src/core/pbuf.c ****     LWIP_ASSERT("offset_from <= p_from->len", offset_from <= p_from->len);
 2418              		.loc 1 985 5 is_stmt 1 view .LVU693
 985:Middlewares/Third_Party/LwIP/src/core/pbuf.c ****     LWIP_ASSERT("offset_from <= p_from->len", offset_from <= p_from->len);
 2419              		.loc 1 985 5 view .LVU694
 2420 00ba 6B89     		ldrh	r3, [r5, #10]
 2421 00bc 4345     		cmp	r3, r8
 2422 00be B8D3     		bcc	.L183
 2423              	.L172:
 985:Middlewares/Third_Party/LwIP/src/core/pbuf.c ****     LWIP_ASSERT("offset_from <= p_from->len", offset_from <= p_from->len);
 2424              		.loc 1 985 5 discriminator 3 view .LVU695
 985:Middlewares/Third_Party/LwIP/src/core/pbuf.c ****     LWIP_ASSERT("offset_from <= p_from->len", offset_from <= p_from->len);
 2425              		.loc 1 985 5 discriminator 3 view .LVU696
 986:Middlewares/Third_Party/LwIP/src/core/pbuf.c ****     if (offset_from >= p_from->len) {
 2426              		.loc 1 986 5 discriminator 3 view .LVU697
 986:Middlewares/Third_Party/LwIP/src/core/pbuf.c ****     if (offset_from >= p_from->len) {
 2427              		.loc 1 986 5 discriminator 3 view .LVU698
 2428 00c0 6389     		ldrh	r3, [r4, #10]
 2429 00c2 BB42     		cmp	r3, r7
 2430 00c4 BDD3     		bcc	.L184
 2431              	.L173:
 986:Middlewares/Third_Party/LwIP/src/core/pbuf.c ****     if (offset_from >= p_from->len) {
 2432              		.loc 1 986 5 discriminator 3 view .LVU699
 986:Middlewares/Third_Party/LwIP/src/core/pbuf.c ****     if (offset_from >= p_from->len) {
 2433              		.loc 1 986 5 discriminator 3 view .LVU700
 987:Middlewares/Third_Party/LwIP/src/core/pbuf.c ****       /* on to next p_from (if any) */
 2434              		.loc 1 987 5 discriminator 3 view .LVU701
 987:Middlewares/Third_Party/LwIP/src/core/pbuf.c ****       /* on to next p_from (if any) */
 2435              		.loc 1 987 30 is_stmt 0 discriminator 3 view .LVU702
 2436 00c6 6389     		ldrh	r3, [r4, #10]
 987:Middlewares/Third_Party/LwIP/src/core/pbuf.c ****       /* on to next p_from (if any) */
 2437              		.loc 1 987 8 discriminator 3 view .LVU703
 2438 00c8 BB42     		cmp	r3, r7
 2439 00ca 01D8     		bhi	.L174
 989:Middlewares/Third_Party/LwIP/src/core/pbuf.c ****       p_from = p_from->next;
 2440              		.loc 1 989 7 is_stmt 1 view .LVU704
 2441              	.LVL231:
 990:Middlewares/Third_Party/LwIP/src/core/pbuf.c ****     }
 2442              		.loc 1 990 7 view .LVU705
 990:Middlewares/Third_Party/LwIP/src/core/pbuf.c ****     }
 2443              		.loc 1 990 14 is_stmt 0 view .LVU706
 2444 00cc 2468     		ldr	r4, [r4]
 2445              	.LVL232:
 989:Middlewares/Third_Party/LwIP/src/core/pbuf.c ****       p_from = p_from->next;
 2446              		.loc 1 989 19 view .LVU707
 2447 00ce 0027     		movs	r7, #0
 2448              	.LVL233:
ARM GAS  /var/folders/bg/n1lwdyp56391g865_v8nrmhm0000gn/T//cc4exhWb.s 			page 77


 2449              	.L174:
 992:Middlewares/Third_Party/LwIP/src/core/pbuf.c ****       /* on to next p_to (if any) */
 2450              		.loc 1 992 5 is_stmt 1 view .LVU708
 992:Middlewares/Third_Party/LwIP/src/core/pbuf.c ****       /* on to next p_to (if any) */
 2451              		.loc 1 992 26 is_stmt 0 view .LVU709
 2452 00d0 6B89     		ldrh	r3, [r5, #10]
 992:Middlewares/Third_Party/LwIP/src/core/pbuf.c ****       /* on to next p_to (if any) */
 2453              		.loc 1 992 8 view .LVU710
 2454 00d2 4345     		cmp	r3, r8
 2455 00d4 BDD0     		beq	.L185
 2456              	.LVL234:
 2457              	.L175:
 996:Middlewares/Third_Party/LwIP/src/core/pbuf.c ****     }
 2458              		.loc 1 996 7 is_stmt 1 discriminator 2 view .LVU711
 996:Middlewares/Third_Party/LwIP/src/core/pbuf.c ****     }
 2459              		.loc 1 996 7 discriminator 2 view .LVU712
 999:Middlewares/Third_Party/LwIP/src/core/pbuf.c ****       /* don't copy more than one packet! */
 2460              		.loc 1 999 5 discriminator 2 view .LVU713
 999:Middlewares/Third_Party/LwIP/src/core/pbuf.c ****       /* don't copy more than one packet! */
 2461              		.loc 1 999 8 is_stmt 0 discriminator 2 view .LVU714
 2462 00d6 1CB1     		cbz	r4, .L176
 999:Middlewares/Third_Party/LwIP/src/core/pbuf.c ****       /* don't copy more than one packet! */
 2463              		.loc 1 999 36 discriminator 1 view .LVU715
 2464 00d8 6289     		ldrh	r2, [r4, #10]
 999:Middlewares/Third_Party/LwIP/src/core/pbuf.c ****       /* don't copy more than one packet! */
 2465              		.loc 1 999 51 discriminator 1 view .LVU716
 2466 00da 2389     		ldrh	r3, [r4, #8]
 999:Middlewares/Third_Party/LwIP/src/core/pbuf.c ****       /* don't copy more than one packet! */
 2467              		.loc 1 999 26 discriminator 1 view .LVU717
 2468 00dc 9A42     		cmp	r2, r3
 2469 00de CDD0     		beq	.L186
 2470              	.L176:
1001:Middlewares/Third_Party/LwIP/src/core/pbuf.c ****                  (p_from->next == NULL), return ERR_VAL;);
 2471              		.loc 1 1001 7 is_stmt 1 discriminator 2 view .LVU718
1001:Middlewares/Third_Party/LwIP/src/core/pbuf.c ****                  (p_from->next == NULL), return ERR_VAL;);
 2472              		.loc 1 1001 7 discriminator 2 view .LVU719
1004:Middlewares/Third_Party/LwIP/src/core/pbuf.c ****       /* don't copy more than one packet! */
 2473              		.loc 1 1004 5 discriminator 2 view .LVU720
1004:Middlewares/Third_Party/LwIP/src/core/pbuf.c ****       /* don't copy more than one packet! */
 2474              		.loc 1 1004 8 is_stmt 0 discriminator 2 view .LVU721
 2475 00e0 002D     		cmp	r5, #0
 2476 00e2 D7D0     		beq	.L177
1004:Middlewares/Third_Party/LwIP/src/core/pbuf.c ****       /* don't copy more than one packet! */
 2477              		.loc 1 1004 32 discriminator 1 view .LVU722
 2478 00e4 6A89     		ldrh	r2, [r5, #10]
1004:Middlewares/Third_Party/LwIP/src/core/pbuf.c ****       /* don't copy more than one packet! */
 2479              		.loc 1 1004 45 discriminator 1 view .LVU723
 2480 00e6 2B89     		ldrh	r3, [r5, #8]
1004:Middlewares/Third_Party/LwIP/src/core/pbuf.c ****       /* don't copy more than one packet! */
 2481              		.loc 1 1004 24 discriminator 1 view .LVU724
 2482 00e8 9A42     		cmp	r2, r3
 2483 00ea D3D1     		bne	.L177
1006:Middlewares/Third_Party/LwIP/src/core/pbuf.c ****                  (p_to->next == NULL), return ERR_VAL;);
 2484              		.loc 1 1006 7 is_stmt 1 view .LVU725
1006:Middlewares/Third_Party/LwIP/src/core/pbuf.c ****                  (p_to->next == NULL), return ERR_VAL;);
 2485              		.loc 1 1006 7 view .LVU726
 2486 00ec 2B68     		ldr	r3, [r5]
ARM GAS  /var/folders/bg/n1lwdyp56391g865_v8nrmhm0000gn/T//cc4exhWb.s 			page 78


 2487 00ee 002B     		cmp	r3, #0
 2488 00f0 D0D0     		beq	.L177
1006:Middlewares/Third_Party/LwIP/src/core/pbuf.c ****                  (p_to->next == NULL), return ERR_VAL;);
 2489              		.loc 1 1006 7 discriminator 1 view .LVU727
1006:Middlewares/Third_Party/LwIP/src/core/pbuf.c ****                  (p_to->next == NULL), return ERR_VAL;);
 2490              		.loc 1 1006 7 discriminator 1 view .LVU728
 2491 00f2 064B     		ldr	r3, .L187
 2492 00f4 40F2EE32 		movw	r2, #1006
 2493 00f8 0A49     		ldr	r1, .L187+24
 2494 00fa 0648     		ldr	r0, .L187+8
 2495 00fc FFF7FEFF 		bl	printf
 2496              	.LVL235:
1006:Middlewares/Third_Party/LwIP/src/core/pbuf.c ****                  (p_to->next == NULL), return ERR_VAL;);
 2497              		.loc 1 1006 7 discriminator 1 view .LVU729
1006:Middlewares/Third_Party/LwIP/src/core/pbuf.c ****                  (p_to->next == NULL), return ERR_VAL;);
 2498              		.loc 1 1006 7 discriminator 1 view .LVU730
 2499 0100 6FF00500 		mvn	r0, #5
 2500 0104 00E0     		b	.L170
 2501              	.L182:
1011:Middlewares/Third_Party/LwIP/src/core/pbuf.c **** }
 2502              		.loc 1 1011 10 is_stmt 0 view .LVU731
 2503 0106 0020     		movs	r0, #0
 2504              	.LVL236:
 2505              	.L170:
1012:Middlewares/Third_Party/LwIP/src/core/pbuf.c **** 
 2506              		.loc 1 1012 1 view .LVU732
 2507 0108 BDE8F081 		pop	{r4, r5, r6, r7, r8, pc}
 2508              	.L188:
 2509              		.align	2
 2510              	.L187:
 2511 010c 00000000 		.word	.LC0
 2512 0110 00000000 		.word	.LC21
 2513 0114 3C000000 		.word	.LC2
 2514 0118 30000000 		.word	.LC22
 2515 011c 48000000 		.word	.LC23
 2516 0120 64000000 		.word	.LC24
 2517 0124 74000000 		.word	.LC25
 2518              		.cfi_endproc
 2519              	.LFE188:
 2521              		.section	.rodata.pbuf_copy_partial.str1.4,"aMS",%progbits,1
 2522              		.align	2
 2523              	.LC26:
 2524 0000 70627566 		.ascii	"pbuf_copy_partial: invalid buf\000"
 2524      5F636F70 
 2524      795F7061 
 2524      72746961 
 2524      6C3A2069 
 2525 001f 00       		.align	2
 2526              	.LC27:
 2527 0020 70627566 		.ascii	"pbuf_copy_partial: invalid dataptr\000"
 2527      5F636F70 
 2527      795F7061 
 2527      72746961 
 2527      6C3A2069 
 2528              		.section	.text.pbuf_copy_partial,"ax",%progbits
 2529              		.align	1
 2530              		.global	pbuf_copy_partial
ARM GAS  /var/folders/bg/n1lwdyp56391g865_v8nrmhm0000gn/T//cc4exhWb.s 			page 79


 2531              		.syntax unified
 2532              		.thumb
 2533              		.thumb_func
 2534              		.fpu fpv5-d16
 2536              	pbuf_copy_partial:
 2537              	.LVL237:
 2538              	.LFB189:
1028:Middlewares/Third_Party/LwIP/src/core/pbuf.c ****   const struct pbuf *p;
 2539              		.loc 1 1028 1 is_stmt 1 view -0
 2540              		.cfi_startproc
 2541              		@ args = 0, pretend = 0, frame = 0
 2542              		@ frame_needed = 0, uses_anonymous_args = 0
1028:Middlewares/Third_Party/LwIP/src/core/pbuf.c ****   const struct pbuf *p;
 2543              		.loc 1 1028 1 is_stmt 0 view .LVU734
 2544 0000 2DE9F843 		push	{r3, r4, r5, r6, r7, r8, r9, lr}
 2545              	.LCFI31:
 2546              		.cfi_def_cfa_offset 32
 2547              		.cfi_offset 3, -32
 2548              		.cfi_offset 4, -28
 2549              		.cfi_offset 5, -24
 2550              		.cfi_offset 6, -20
 2551              		.cfi_offset 7, -16
 2552              		.cfi_offset 8, -12
 2553              		.cfi_offset 9, -8
 2554              		.cfi_offset 14, -4
1029:Middlewares/Third_Party/LwIP/src/core/pbuf.c ****   u16_t left = 0;
 2555              		.loc 1 1029 3 is_stmt 1 view .LVU735
1030:Middlewares/Third_Party/LwIP/src/core/pbuf.c ****   u16_t buf_copy_len;
 2556              		.loc 1 1030 3 view .LVU736
 2557              	.LVL238:
1031:Middlewares/Third_Party/LwIP/src/core/pbuf.c ****   u16_t copied_total = 0;
 2558              		.loc 1 1031 3 view .LVU737
1032:Middlewares/Third_Party/LwIP/src/core/pbuf.c **** 
 2559              		.loc 1 1032 3 view .LVU738
1034:Middlewares/Third_Party/LwIP/src/core/pbuf.c ****   LWIP_ERROR("pbuf_copy_partial: invalid dataptr", (dataptr != NULL), return 0;);
 2560              		.loc 1 1034 3 view .LVU739
1034:Middlewares/Third_Party/LwIP/src/core/pbuf.c ****   LWIP_ERROR("pbuf_copy_partial: invalid dataptr", (dataptr != NULL), return 0;);
 2561              		.loc 1 1034 3 view .LVU740
 2562 0004 30B1     		cbz	r0, .L200
 2563 0006 8846     		mov	r8, r1
 2564 0008 9146     		mov	r9, r2
 2565 000a 0546     		mov	r5, r0
1034:Middlewares/Third_Party/LwIP/src/core/pbuf.c ****   LWIP_ERROR("pbuf_copy_partial: invalid dataptr", (dataptr != NULL), return 0;);
 2566              		.loc 1 1034 3 discriminator 2 view .LVU741
1034:Middlewares/Third_Party/LwIP/src/core/pbuf.c ****   LWIP_ERROR("pbuf_copy_partial: invalid dataptr", (dataptr != NULL), return 0;);
 2567              		.loc 1 1034 3 discriminator 2 view .LVU742
1035:Middlewares/Third_Party/LwIP/src/core/pbuf.c **** 
 2568              		.loc 1 1035 3 discriminator 2 view .LVU743
1035:Middlewares/Third_Party/LwIP/src/core/pbuf.c **** 
 2569              		.loc 1 1035 3 discriminator 2 view .LVU744
 2570 000c 69B1     		cbz	r1, .L201
1032:Middlewares/Third_Party/LwIP/src/core/pbuf.c **** 
 2571              		.loc 1 1032 9 is_stmt 0 view .LVU745
 2572 000e 0027     		movs	r7, #0
1030:Middlewares/Third_Party/LwIP/src/core/pbuf.c ****   u16_t buf_copy_len;
 2573              		.loc 1 1030 9 view .LVU746
 2574 0010 3E46     		mov	r6, r7
ARM GAS  /var/folders/bg/n1lwdyp56391g865_v8nrmhm0000gn/T//cc4exhWb.s 			page 80


 2575 0012 2AE0     		b	.L192
 2576              	.L200:
1034:Middlewares/Third_Party/LwIP/src/core/pbuf.c ****   LWIP_ERROR("pbuf_copy_partial: invalid dataptr", (dataptr != NULL), return 0;);
 2577              		.loc 1 1034 3 is_stmt 1 discriminator 1 view .LVU747
1034:Middlewares/Third_Party/LwIP/src/core/pbuf.c ****   LWIP_ERROR("pbuf_copy_partial: invalid dataptr", (dataptr != NULL), return 0;);
 2578              		.loc 1 1034 3 discriminator 1 view .LVU748
 2579 0014 1B4B     		ldr	r3, .L202
 2580              	.LVL239:
1034:Middlewares/Third_Party/LwIP/src/core/pbuf.c ****   LWIP_ERROR("pbuf_copy_partial: invalid dataptr", (dataptr != NULL), return 0;);
 2581              		.loc 1 1034 3 is_stmt 0 discriminator 1 view .LVU749
 2582 0016 40F20A42 		movw	r2, #1034
 2583              	.LVL240:
1034:Middlewares/Third_Party/LwIP/src/core/pbuf.c ****   LWIP_ERROR("pbuf_copy_partial: invalid dataptr", (dataptr != NULL), return 0;);
 2584              		.loc 1 1034 3 discriminator 1 view .LVU750
 2585 001a 1B49     		ldr	r1, .L202+4
 2586              	.LVL241:
1034:Middlewares/Third_Party/LwIP/src/core/pbuf.c ****   LWIP_ERROR("pbuf_copy_partial: invalid dataptr", (dataptr != NULL), return 0;);
 2587              		.loc 1 1034 3 discriminator 1 view .LVU751
 2588 001c 1B48     		ldr	r0, .L202+8
 2589              	.LVL242:
1034:Middlewares/Third_Party/LwIP/src/core/pbuf.c ****   LWIP_ERROR("pbuf_copy_partial: invalid dataptr", (dataptr != NULL), return 0;);
 2590              		.loc 1 1034 3 discriminator 1 view .LVU752
 2591 001e FFF7FEFF 		bl	printf
 2592              	.LVL243:
1034:Middlewares/Third_Party/LwIP/src/core/pbuf.c ****   LWIP_ERROR("pbuf_copy_partial: invalid dataptr", (dataptr != NULL), return 0;);
 2593              		.loc 1 1034 3 is_stmt 1 discriminator 1 view .LVU753
1034:Middlewares/Third_Party/LwIP/src/core/pbuf.c ****   LWIP_ERROR("pbuf_copy_partial: invalid dataptr", (dataptr != NULL), return 0;);
 2594              		.loc 1 1034 3 discriminator 1 view .LVU754
 2595 0022 0027     		movs	r7, #0
 2596              	.LVL244:
 2597              	.L191:
1057:Middlewares/Third_Party/LwIP/src/core/pbuf.c **** 
 2598              		.loc 1 1057 1 is_stmt 0 view .LVU755
 2599 0024 3846     		mov	r0, r7
 2600 0026 BDE8F883 		pop	{r3, r4, r5, r6, r7, r8, r9, pc}
 2601              	.LVL245:
 2602              	.L201:
1035:Middlewares/Third_Party/LwIP/src/core/pbuf.c **** 
 2603              		.loc 1 1035 3 is_stmt 1 discriminator 1 view .LVU756
1035:Middlewares/Third_Party/LwIP/src/core/pbuf.c **** 
 2604              		.loc 1 1035 3 discriminator 1 view .LVU757
 2605 002a 164B     		ldr	r3, .L202
 2606              	.LVL246:
1035:Middlewares/Third_Party/LwIP/src/core/pbuf.c **** 
 2607              		.loc 1 1035 3 is_stmt 0 discriminator 1 view .LVU758
 2608 002c 40F20B42 		movw	r2, #1035
 2609              	.LVL247:
1035:Middlewares/Third_Party/LwIP/src/core/pbuf.c **** 
 2610              		.loc 1 1035 3 discriminator 1 view .LVU759
 2611 0030 1749     		ldr	r1, .L202+12
 2612              	.LVL248:
1035:Middlewares/Third_Party/LwIP/src/core/pbuf.c **** 
 2613              		.loc 1 1035 3 discriminator 1 view .LVU760
 2614 0032 1648     		ldr	r0, .L202+8
 2615              	.LVL249:
1035:Middlewares/Third_Party/LwIP/src/core/pbuf.c **** 
 2616              		.loc 1 1035 3 discriminator 1 view .LVU761
ARM GAS  /var/folders/bg/n1lwdyp56391g865_v8nrmhm0000gn/T//cc4exhWb.s 			page 81


 2617 0034 FFF7FEFF 		bl	printf
 2618              	.LVL250:
1035:Middlewares/Third_Party/LwIP/src/core/pbuf.c **** 
 2619              		.loc 1 1035 3 is_stmt 1 discriminator 1 view .LVU762
1035:Middlewares/Third_Party/LwIP/src/core/pbuf.c **** 
 2620              		.loc 1 1035 3 discriminator 1 view .LVU763
 2621 0038 0027     		movs	r7, #0
 2622 003a F3E7     		b	.L191
 2623              	.LVL251:
 2624              	.L193:
1044:Middlewares/Third_Party/LwIP/src/core/pbuf.c ****       if (buf_copy_len > len) {
 2625              		.loc 1 1044 7 view .LVU764
1044:Middlewares/Third_Party/LwIP/src/core/pbuf.c ****       if (buf_copy_len > len) {
 2626              		.loc 1 1044 31 is_stmt 0 view .LVU765
 2627 003c 6C89     		ldrh	r4, [r5, #10]
1044:Middlewares/Third_Party/LwIP/src/core/pbuf.c ****       if (buf_copy_len > len) {
 2628              		.loc 1 1044 20 view .LVU766
 2629 003e E41A     		subs	r4, r4, r3
 2630 0040 A4B2     		uxth	r4, r4
 2631              	.LVL252:
1045:Middlewares/Third_Party/LwIP/src/core/pbuf.c ****         buf_copy_len = len;
 2632              		.loc 1 1045 7 is_stmt 1 view .LVU767
1045:Middlewares/Third_Party/LwIP/src/core/pbuf.c ****         buf_copy_len = len;
 2633              		.loc 1 1045 10 is_stmt 0 view .LVU768
 2634 0042 A145     		cmp	r9, r4
 2635 0044 00D2     		bcs	.L195
1046:Middlewares/Third_Party/LwIP/src/core/pbuf.c ****       }
 2636              		.loc 1 1046 22 view .LVU769
 2637 0046 4C46     		mov	r4, r9
 2638              	.LVL253:
 2639              	.L195:
1049:Middlewares/Third_Party/LwIP/src/core/pbuf.c ****       copied_total = (u16_t)(copied_total + buf_copy_len);
 2640              		.loc 1 1049 7 is_stmt 1 view .LVU770
 2641 0048 6968     		ldr	r1, [r5, #4]
 2642 004a 2246     		mov	r2, r4
 2643 004c 1944     		add	r1, r1, r3
 2644 004e 08EB0600 		add	r0, r8, r6
 2645 0052 FFF7FEFF 		bl	memcpy
 2646              	.LVL254:
1050:Middlewares/Third_Party/LwIP/src/core/pbuf.c ****       left = (u16_t)(left + buf_copy_len);
 2647              		.loc 1 1050 7 view .LVU771
1050:Middlewares/Third_Party/LwIP/src/core/pbuf.c ****       left = (u16_t)(left + buf_copy_len);
 2648              		.loc 1 1050 20 is_stmt 0 view .LVU772
 2649 0056 2744     		add	r7, r7, r4
 2650              	.LVL255:
1050:Middlewares/Third_Party/LwIP/src/core/pbuf.c ****       left = (u16_t)(left + buf_copy_len);
 2651              		.loc 1 1050 20 view .LVU773
 2652 0058 BFB2     		uxth	r7, r7
 2653              	.LVL256:
1051:Middlewares/Third_Party/LwIP/src/core/pbuf.c ****       len = (u16_t)(len - buf_copy_len);
 2654              		.loc 1 1051 7 is_stmt 1 view .LVU774
1051:Middlewares/Third_Party/LwIP/src/core/pbuf.c ****       len = (u16_t)(len - buf_copy_len);
 2655              		.loc 1 1051 12 is_stmt 0 view .LVU775
 2656 005a 2644     		add	r6, r6, r4
 2657              	.LVL257:
1051:Middlewares/Third_Party/LwIP/src/core/pbuf.c ****       len = (u16_t)(len - buf_copy_len);
 2658              		.loc 1 1051 12 view .LVU776
ARM GAS  /var/folders/bg/n1lwdyp56391g865_v8nrmhm0000gn/T//cc4exhWb.s 			page 82


 2659 005c B6B2     		uxth	r6, r6
 2660              	.LVL258:
1052:Middlewares/Third_Party/LwIP/src/core/pbuf.c ****       offset = 0;
 2661              		.loc 1 1052 7 is_stmt 1 view .LVU777
1052:Middlewares/Third_Party/LwIP/src/core/pbuf.c ****       offset = 0;
 2662              		.loc 1 1052 11 is_stmt 0 view .LVU778
 2663 005e A9EB0404 		sub	r4, r9, r4
 2664              	.LVL259:
1052:Middlewares/Third_Party/LwIP/src/core/pbuf.c ****       offset = 0;
 2665              		.loc 1 1052 11 view .LVU779
 2666 0062 1FFA84F9 		uxth	r9, r4
 2667              	.LVL260:
1053:Middlewares/Third_Party/LwIP/src/core/pbuf.c ****     }
 2668              		.loc 1 1053 7 is_stmt 1 view .LVU780
1053:Middlewares/Third_Party/LwIP/src/core/pbuf.c ****     }
 2669              		.loc 1 1053 14 is_stmt 0 view .LVU781
 2670 0066 0023     		movs	r3, #0
 2671              	.LVL261:
 2672              	.L194:
1038:Middlewares/Third_Party/LwIP/src/core/pbuf.c ****     if ((offset != 0) && (offset >= p->len)) {
 2673              		.loc 1 1038 40 is_stmt 1 discriminator 2 view .LVU782
1038:Middlewares/Third_Party/LwIP/src/core/pbuf.c ****     if ((offset != 0) && (offset >= p->len)) {
 2674              		.loc 1 1038 42 is_stmt 0 discriminator 2 view .LVU783
 2675 0068 2D68     		ldr	r5, [r5]
 2676              	.LVL262:
 2677              	.L192:
1038:Middlewares/Third_Party/LwIP/src/core/pbuf.c ****     if ((offset != 0) && (offset >= p->len)) {
 2678              		.loc 1 1038 17 is_stmt 1 discriminator 1 view .LVU784
1038:Middlewares/Third_Party/LwIP/src/core/pbuf.c ****     if ((offset != 0) && (offset >= p->len)) {
 2679              		.loc 1 1038 3 is_stmt 0 discriminator 1 view .LVU785
 2680 006a B9F1000F 		cmp	r9, #0
 2681 006e 18BF     		it	ne
 2682 0070 002D     		cmpne	r5, #0
 2683 0072 D7D0     		beq	.L191
1039:Middlewares/Third_Party/LwIP/src/core/pbuf.c ****       /* don't copy from this buffer -> on to the next */
 2684              		.loc 1 1039 5 is_stmt 1 view .LVU786
1039:Middlewares/Third_Party/LwIP/src/core/pbuf.c ****       /* don't copy from this buffer -> on to the next */
 2685              		.loc 1 1039 8 is_stmt 0 view .LVU787
 2686 0074 002B     		cmp	r3, #0
 2687 0076 E1D0     		beq	.L193
1039:Middlewares/Third_Party/LwIP/src/core/pbuf.c ****       /* don't copy from this buffer -> on to the next */
 2688              		.loc 1 1039 38 discriminator 1 view .LVU788
 2689 0078 6989     		ldrh	r1, [r5, #10]
1039:Middlewares/Third_Party/LwIP/src/core/pbuf.c ****       /* don't copy from this buffer -> on to the next */
 2690              		.loc 1 1039 23 discriminator 1 view .LVU789
 2691 007a 9942     		cmp	r1, r3
 2692 007c DED8     		bhi	.L193
1041:Middlewares/Third_Party/LwIP/src/core/pbuf.c ****     } else {
 2693              		.loc 1 1041 7 is_stmt 1 view .LVU790
1041:Middlewares/Third_Party/LwIP/src/core/pbuf.c ****     } else {
 2694              		.loc 1 1041 14 is_stmt 0 view .LVU791
 2695 007e 5B1A     		subs	r3, r3, r1
 2696              	.LVL263:
1041:Middlewares/Third_Party/LwIP/src/core/pbuf.c ****     } else {
 2697              		.loc 1 1041 14 view .LVU792
 2698 0080 9BB2     		uxth	r3, r3
 2699              	.LVL264:
ARM GAS  /var/folders/bg/n1lwdyp56391g865_v8nrmhm0000gn/T//cc4exhWb.s 			page 83


1041:Middlewares/Third_Party/LwIP/src/core/pbuf.c ****     } else {
 2700              		.loc 1 1041 14 view .LVU793
 2701 0082 F1E7     		b	.L194
 2702              	.L203:
 2703              		.align	2
 2704              	.L202:
 2705 0084 00000000 		.word	.LC0
 2706 0088 00000000 		.word	.LC26
 2707 008c 3C000000 		.word	.LC2
 2708 0090 20000000 		.word	.LC27
 2709              		.cfi_endproc
 2710              	.LFE189:
 2712              		.section	.rodata.pbuf_get_contiguous.str1.4,"aMS",%progbits,1
 2713              		.align	2
 2714              	.LC28:
 2715 0000 70627566 		.ascii	"pbuf_get_contiguous: invalid buf\000"
 2715      5F676574 
 2715      5F636F6E 
 2715      74696775 
 2715      6F75733A 
 2716 0021 000000   		.align	2
 2717              	.LC29:
 2718 0024 70627566 		.ascii	"pbuf_get_contiguous: invalid dataptr\000"
 2718      5F676574 
 2718      5F636F6E 
 2718      74696775 
 2718      6F75733A 
 2719              		.section	.text.pbuf_get_contiguous,"ax",%progbits
 2720              		.align	1
 2721              		.global	pbuf_get_contiguous
 2722              		.syntax unified
 2723              		.thumb
 2724              		.thumb_func
 2725              		.fpu fpv5-d16
 2727              	pbuf_get_contiguous:
 2728              	.LVL265:
 2729              	.LFB190:
1075:Middlewares/Third_Party/LwIP/src/core/pbuf.c ****   const struct pbuf *q;
 2730              		.loc 1 1075 1 is_stmt 1 view -0
 2731              		.cfi_startproc
 2732              		@ args = 4, pretend = 0, frame = 8
 2733              		@ frame_needed = 0, uses_anonymous_args = 0
1075:Middlewares/Third_Party/LwIP/src/core/pbuf.c ****   const struct pbuf *q;
 2734              		.loc 1 1075 1 is_stmt 0 view .LVU795
 2735 0000 70B5     		push	{r4, r5, r6, lr}
 2736              	.LCFI32:
 2737              		.cfi_def_cfa_offset 16
 2738              		.cfi_offset 4, -16
 2739              		.cfi_offset 5, -12
 2740              		.cfi_offset 6, -8
 2741              		.cfi_offset 14, -4
 2742 0002 82B0     		sub	sp, sp, #8
 2743              	.LCFI33:
 2744              		.cfi_def_cfa_offset 24
1076:Middlewares/Third_Party/LwIP/src/core/pbuf.c ****   u16_t out_offset;
 2745              		.loc 1 1076 3 is_stmt 1 view .LVU796
1077:Middlewares/Third_Party/LwIP/src/core/pbuf.c **** 
ARM GAS  /var/folders/bg/n1lwdyp56391g865_v8nrmhm0000gn/T//cc4exhWb.s 			page 84


 2746              		.loc 1 1077 3 view .LVU797
1079:Middlewares/Third_Party/LwIP/src/core/pbuf.c ****   LWIP_ERROR("pbuf_get_contiguous: invalid dataptr", (buffer != NULL), return NULL;);
 2747              		.loc 1 1079 3 view .LVU798
1079:Middlewares/Third_Party/LwIP/src/core/pbuf.c ****   LWIP_ERROR("pbuf_get_contiguous: invalid dataptr", (buffer != NULL), return NULL;);
 2748              		.loc 1 1079 3 view .LVU799
 2749 0004 0446     		mov	r4, r0
 2750 0006 A8B1     		cbz	r0, .L212
 2751 0008 0E46     		mov	r6, r1
 2752 000a 1D46     		mov	r5, r3
1079:Middlewares/Third_Party/LwIP/src/core/pbuf.c ****   LWIP_ERROR("pbuf_get_contiguous: invalid dataptr", (buffer != NULL), return NULL;);
 2753              		.loc 1 1079 3 discriminator 2 view .LVU800
1079:Middlewares/Third_Party/LwIP/src/core/pbuf.c ****   LWIP_ERROR("pbuf_get_contiguous: invalid dataptr", (buffer != NULL), return NULL;);
 2754              		.loc 1 1079 3 discriminator 2 view .LVU801
1080:Middlewares/Third_Party/LwIP/src/core/pbuf.c ****   LWIP_ERROR("pbuf_get_contiguous: invalid dataptr", (bufsize >= len), return NULL;);
 2755              		.loc 1 1080 3 discriminator 2 view .LVU802
1080:Middlewares/Third_Party/LwIP/src/core/pbuf.c ****   LWIP_ERROR("pbuf_get_contiguous: invalid dataptr", (bufsize >= len), return NULL;);
 2756              		.loc 1 1080 3 discriminator 2 view .LVU803
 2757 000c D9B1     		cbz	r1, .L213
1080:Middlewares/Third_Party/LwIP/src/core/pbuf.c ****   LWIP_ERROR("pbuf_get_contiguous: invalid dataptr", (bufsize >= len), return NULL;);
 2758              		.loc 1 1080 3 discriminator 2 view .LVU804
1080:Middlewares/Third_Party/LwIP/src/core/pbuf.c ****   LWIP_ERROR("pbuf_get_contiguous: invalid dataptr", (bufsize >= len), return NULL;);
 2759              		.loc 1 1080 3 discriminator 2 view .LVU805
1081:Middlewares/Third_Party/LwIP/src/core/pbuf.c **** 
 2760              		.loc 1 1081 3 discriminator 2 view .LVU806
1081:Middlewares/Third_Party/LwIP/src/core/pbuf.c **** 
 2761              		.loc 1 1081 3 discriminator 2 view .LVU807
 2762 000e 9342     		cmp	r3, r2
 2763 0010 22D8     		bhi	.L214
1081:Middlewares/Third_Party/LwIP/src/core/pbuf.c **** 
 2764              		.loc 1 1081 3 discriminator 2 view .LVU808
1081:Middlewares/Third_Party/LwIP/src/core/pbuf.c **** 
 2765              		.loc 1 1081 3 discriminator 2 view .LVU809
1083:Middlewares/Third_Party/LwIP/src/core/pbuf.c ****   if (q != NULL) {
 2766              		.loc 1 1083 3 discriminator 2 view .LVU810
1083:Middlewares/Third_Party/LwIP/src/core/pbuf.c ****   if (q != NULL) {
 2767              		.loc 1 1083 7 is_stmt 0 discriminator 2 view .LVU811
 2768 0012 0DF10602 		add	r2, sp, #6
 2769              	.LVL266:
1083:Middlewares/Third_Party/LwIP/src/core/pbuf.c ****   if (q != NULL) {
 2770              		.loc 1 1083 7 discriminator 2 view .LVU812
 2771 0016 BDF81810 		ldrh	r1, [sp, #24]
 2772              	.LVL267:
1083:Middlewares/Third_Party/LwIP/src/core/pbuf.c ****   if (q != NULL) {
 2773              		.loc 1 1083 7 discriminator 2 view .LVU813
 2774 001a FFF7FEFF 		bl	pbuf_skip_const
 2775              	.LVL268:
1084:Middlewares/Third_Party/LwIP/src/core/pbuf.c ****     if (q->len >= (out_offset + len)) {
 2776              		.loc 1 1084 3 is_stmt 1 discriminator 2 view .LVU814
1084:Middlewares/Third_Party/LwIP/src/core/pbuf.c ****     if (q->len >= (out_offset + len)) {
 2777              		.loc 1 1084 6 is_stmt 0 discriminator 2 view .LVU815
 2778 001e 38B1     		cbz	r0, .L204
1085:Middlewares/Third_Party/LwIP/src/core/pbuf.c ****       /* all data in this pbuf, return zero-copy */
 2779              		.loc 1 1085 5 is_stmt 1 view .LVU816
1085:Middlewares/Third_Party/LwIP/src/core/pbuf.c ****       /* all data in this pbuf, return zero-copy */
 2780              		.loc 1 1085 10 is_stmt 0 view .LVU817
 2781 0020 4189     		ldrh	r1, [r0, #10]
1085:Middlewares/Third_Party/LwIP/src/core/pbuf.c ****       /* all data in this pbuf, return zero-copy */
ARM GAS  /var/folders/bg/n1lwdyp56391g865_v8nrmhm0000gn/T//cc4exhWb.s 			page 85


 2782              		.loc 1 1085 31 view .LVU818
 2783 0022 BDF80630 		ldrh	r3, [sp, #6]
 2784 0026 5A19     		adds	r2, r3, r5
1085:Middlewares/Third_Party/LwIP/src/core/pbuf.c ****       /* all data in this pbuf, return zero-copy */
 2785              		.loc 1 1085 8 view .LVU819
 2786 0028 9142     		cmp	r1, r2
 2787 002a 1EDB     		blt	.L209
1087:Middlewares/Third_Party/LwIP/src/core/pbuf.c ****     }
 2788              		.loc 1 1087 7 is_stmt 1 view .LVU820
1087:Middlewares/Third_Party/LwIP/src/core/pbuf.c ****     }
 2789              		.loc 1 1087 23 is_stmt 0 view .LVU821
 2790 002c 4068     		ldr	r0, [r0, #4]
 2791              	.LVL269:
1087:Middlewares/Third_Party/LwIP/src/core/pbuf.c ****     }
 2792              		.loc 1 1087 33 view .LVU822
 2793 002e 1844     		add	r0, r0, r3
 2794              	.LVL270:
 2795              	.L204:
1098:Middlewares/Third_Party/LwIP/src/core/pbuf.c **** 
 2796              		.loc 1 1098 1 view .LVU823
 2797 0030 02B0     		add	sp, sp, #8
 2798              	.LCFI34:
 2799              		.cfi_remember_state
 2800              		.cfi_def_cfa_offset 16
 2801              		@ sp needed
 2802 0032 70BD     		pop	{r4, r5, r6, pc}
 2803              	.LVL271:
 2804              	.L212:
 2805              	.LCFI35:
 2806              		.cfi_restore_state
1079:Middlewares/Third_Party/LwIP/src/core/pbuf.c ****   LWIP_ERROR("pbuf_get_contiguous: invalid dataptr", (buffer != NULL), return NULL;);
 2807              		.loc 1 1079 3 is_stmt 1 discriminator 1 view .LVU824
1079:Middlewares/Third_Party/LwIP/src/core/pbuf.c ****   LWIP_ERROR("pbuf_get_contiguous: invalid dataptr", (buffer != NULL), return NULL;);
 2808              		.loc 1 1079 3 discriminator 1 view .LVU825
 2809 0034 124B     		ldr	r3, .L216
 2810              	.LVL272:
1079:Middlewares/Third_Party/LwIP/src/core/pbuf.c ****   LWIP_ERROR("pbuf_get_contiguous: invalid dataptr", (buffer != NULL), return NULL;);
 2811              		.loc 1 1079 3 is_stmt 0 discriminator 1 view .LVU826
 2812 0036 40F23742 		movw	r2, #1079
 2813              	.LVL273:
1079:Middlewares/Third_Party/LwIP/src/core/pbuf.c ****   LWIP_ERROR("pbuf_get_contiguous: invalid dataptr", (buffer != NULL), return NULL;);
 2814              		.loc 1 1079 3 discriminator 1 view .LVU827
 2815 003a 1249     		ldr	r1, .L216+4
 2816              	.LVL274:
1079:Middlewares/Third_Party/LwIP/src/core/pbuf.c ****   LWIP_ERROR("pbuf_get_contiguous: invalid dataptr", (buffer != NULL), return NULL;);
 2817              		.loc 1 1079 3 discriminator 1 view .LVU828
 2818 003c 1248     		ldr	r0, .L216+8
 2819              	.LVL275:
1079:Middlewares/Third_Party/LwIP/src/core/pbuf.c ****   LWIP_ERROR("pbuf_get_contiguous: invalid dataptr", (buffer != NULL), return NULL;);
 2820              		.loc 1 1079 3 discriminator 1 view .LVU829
 2821 003e FFF7FEFF 		bl	printf
 2822              	.LVL276:
1079:Middlewares/Third_Party/LwIP/src/core/pbuf.c ****   LWIP_ERROR("pbuf_get_contiguous: invalid dataptr", (buffer != NULL), return NULL;);
 2823              		.loc 1 1079 3 is_stmt 1 discriminator 1 view .LVU830
1079:Middlewares/Third_Party/LwIP/src/core/pbuf.c ****   LWIP_ERROR("pbuf_get_contiguous: invalid dataptr", (buffer != NULL), return NULL;);
 2824              		.loc 1 1079 3 discriminator 1 view .LVU831
 2825 0042 2046     		mov	r0, r4
ARM GAS  /var/folders/bg/n1lwdyp56391g865_v8nrmhm0000gn/T//cc4exhWb.s 			page 86


 2826 0044 F4E7     		b	.L204
 2827              	.LVL277:
 2828              	.L213:
1080:Middlewares/Third_Party/LwIP/src/core/pbuf.c ****   LWIP_ERROR("pbuf_get_contiguous: invalid dataptr", (bufsize >= len), return NULL;);
 2829              		.loc 1 1080 3 discriminator 1 view .LVU832
1080:Middlewares/Third_Party/LwIP/src/core/pbuf.c ****   LWIP_ERROR("pbuf_get_contiguous: invalid dataptr", (bufsize >= len), return NULL;);
 2830              		.loc 1 1080 3 discriminator 1 view .LVU833
 2831 0046 0E4B     		ldr	r3, .L216
 2832              	.LVL278:
1080:Middlewares/Third_Party/LwIP/src/core/pbuf.c ****   LWIP_ERROR("pbuf_get_contiguous: invalid dataptr", (bufsize >= len), return NULL;);
 2833              		.loc 1 1080 3 is_stmt 0 discriminator 1 view .LVU834
 2834 0048 4FF48762 		mov	r2, #1080
 2835              	.LVL279:
1080:Middlewares/Third_Party/LwIP/src/core/pbuf.c ****   LWIP_ERROR("pbuf_get_contiguous: invalid dataptr", (bufsize >= len), return NULL;);
 2836              		.loc 1 1080 3 discriminator 1 view .LVU835
 2837 004c 0F49     		ldr	r1, .L216+12
 2838              	.LVL280:
1080:Middlewares/Third_Party/LwIP/src/core/pbuf.c ****   LWIP_ERROR("pbuf_get_contiguous: invalid dataptr", (bufsize >= len), return NULL;);
 2839              		.loc 1 1080 3 discriminator 1 view .LVU836
 2840 004e 0E48     		ldr	r0, .L216+8
 2841              	.LVL281:
1080:Middlewares/Third_Party/LwIP/src/core/pbuf.c ****   LWIP_ERROR("pbuf_get_contiguous: invalid dataptr", (bufsize >= len), return NULL;);
 2842              		.loc 1 1080 3 discriminator 1 view .LVU837
 2843 0050 FFF7FEFF 		bl	printf
 2844              	.LVL282:
1080:Middlewares/Third_Party/LwIP/src/core/pbuf.c ****   LWIP_ERROR("pbuf_get_contiguous: invalid dataptr", (bufsize >= len), return NULL;);
 2845              		.loc 1 1080 3 is_stmt 1 discriminator 1 view .LVU838
1080:Middlewares/Third_Party/LwIP/src/core/pbuf.c ****   LWIP_ERROR("pbuf_get_contiguous: invalid dataptr", (bufsize >= len), return NULL;);
 2846              		.loc 1 1080 3 discriminator 1 view .LVU839
 2847 0054 3046     		mov	r0, r6
 2848 0056 EBE7     		b	.L204
 2849              	.LVL283:
 2850              	.L214:
1081:Middlewares/Third_Party/LwIP/src/core/pbuf.c **** 
 2851              		.loc 1 1081 3 discriminator 1 view .LVU840
1081:Middlewares/Third_Party/LwIP/src/core/pbuf.c **** 
 2852              		.loc 1 1081 3 discriminator 1 view .LVU841
 2853 0058 094B     		ldr	r3, .L216
 2854              	.LVL284:
1081:Middlewares/Third_Party/LwIP/src/core/pbuf.c **** 
 2855              		.loc 1 1081 3 is_stmt 0 discriminator 1 view .LVU842
 2856 005a 40F23942 		movw	r2, #1081
 2857              	.LVL285:
1081:Middlewares/Third_Party/LwIP/src/core/pbuf.c **** 
 2858              		.loc 1 1081 3 discriminator 1 view .LVU843
 2859 005e 0B49     		ldr	r1, .L216+12
 2860              	.LVL286:
1081:Middlewares/Third_Party/LwIP/src/core/pbuf.c **** 
 2861              		.loc 1 1081 3 discriminator 1 view .LVU844
 2862 0060 0948     		ldr	r0, .L216+8
 2863              	.LVL287:
1081:Middlewares/Third_Party/LwIP/src/core/pbuf.c **** 
 2864              		.loc 1 1081 3 discriminator 1 view .LVU845
 2865 0062 FFF7FEFF 		bl	printf
 2866              	.LVL288:
1081:Middlewares/Third_Party/LwIP/src/core/pbuf.c **** 
 2867              		.loc 1 1081 3 is_stmt 1 discriminator 1 view .LVU846
ARM GAS  /var/folders/bg/n1lwdyp56391g865_v8nrmhm0000gn/T//cc4exhWb.s 			page 87


1081:Middlewares/Third_Party/LwIP/src/core/pbuf.c **** 
 2868              		.loc 1 1081 3 discriminator 1 view .LVU847
 2869 0066 0020     		movs	r0, #0
 2870 0068 E2E7     		b	.L204
 2871              	.LVL289:
 2872              	.L209:
1090:Middlewares/Third_Party/LwIP/src/core/pbuf.c ****       /* copying failed: pbuf is too short */
 2873              		.loc 1 1090 5 view .LVU848
1090:Middlewares/Third_Party/LwIP/src/core/pbuf.c ****       /* copying failed: pbuf is too short */
 2874              		.loc 1 1090 9 is_stmt 0 view .LVU849
 2875 006a 2A46     		mov	r2, r5
 2876 006c 3146     		mov	r1, r6
 2877 006e FFF7FEFF 		bl	pbuf_copy_partial
 2878              	.LVL290:
1090:Middlewares/Third_Party/LwIP/src/core/pbuf.c ****       /* copying failed: pbuf is too short */
 2879              		.loc 1 1090 8 view .LVU850
 2880 0072 A842     		cmp	r0, r5
 2881 0074 01D1     		bne	.L215
1094:Middlewares/Third_Party/LwIP/src/core/pbuf.c ****   }
 2882              		.loc 1 1094 12 view .LVU851
 2883 0076 3046     		mov	r0, r6
 2884 0078 DAE7     		b	.L204
 2885              	.L215:
1092:Middlewares/Third_Party/LwIP/src/core/pbuf.c ****     }
 2886              		.loc 1 1092 14 view .LVU852
 2887 007a 0020     		movs	r0, #0
 2888 007c D8E7     		b	.L204
 2889              	.L217:
 2890 007e 00BF     		.align	2
 2891              	.L216:
 2892 0080 00000000 		.word	.LC0
 2893 0084 00000000 		.word	.LC28
 2894 0088 3C000000 		.word	.LC2
 2895 008c 24000000 		.word	.LC29
 2896              		.cfi_endproc
 2897              	.LFE190:
 2899              		.section	.text.pbuf_skip,"ax",%progbits
 2900              		.align	1
 2901              		.global	pbuf_skip
 2902              		.syntax unified
 2903              		.thumb
 2904              		.thumb_func
 2905              		.fpu fpv5-d16
 2907              	pbuf_skip:
 2908              	.LVL291:
 2909              	.LFB192:
1167:Middlewares/Third_Party/LwIP/src/core/pbuf.c **** 
1168:Middlewares/Third_Party/LwIP/src/core/pbuf.c **** /**
1169:Middlewares/Third_Party/LwIP/src/core/pbuf.c ****  * @ingroup pbuf
1170:Middlewares/Third_Party/LwIP/src/core/pbuf.c ****  * Skip a number of bytes at the start of a pbuf
1171:Middlewares/Third_Party/LwIP/src/core/pbuf.c ****  *
1172:Middlewares/Third_Party/LwIP/src/core/pbuf.c ****  * @param in input pbuf
1173:Middlewares/Third_Party/LwIP/src/core/pbuf.c ****  * @param in_offset offset to skip
1174:Middlewares/Third_Party/LwIP/src/core/pbuf.c ****  * @param out_offset resulting offset in the returned pbuf
1175:Middlewares/Third_Party/LwIP/src/core/pbuf.c ****  * @return the pbuf in the queue where the offset is
1176:Middlewares/Third_Party/LwIP/src/core/pbuf.c ****  */
1177:Middlewares/Third_Party/LwIP/src/core/pbuf.c **** struct pbuf *
ARM GAS  /var/folders/bg/n1lwdyp56391g865_v8nrmhm0000gn/T//cc4exhWb.s 			page 88


1178:Middlewares/Third_Party/LwIP/src/core/pbuf.c **** pbuf_skip(struct pbuf *in, u16_t in_offset, u16_t *out_offset)
1179:Middlewares/Third_Party/LwIP/src/core/pbuf.c **** {
 2910              		.loc 1 1179 1 is_stmt 1 view -0
 2911              		.cfi_startproc
 2912              		@ args = 0, pretend = 0, frame = 0
 2913              		@ frame_needed = 0, uses_anonymous_args = 0
 2914              		.loc 1 1179 1 is_stmt 0 view .LVU854
 2915 0000 08B5     		push	{r3, lr}
 2916              	.LCFI36:
 2917              		.cfi_def_cfa_offset 8
 2918              		.cfi_offset 3, -8
 2919              		.cfi_offset 14, -4
1180:Middlewares/Third_Party/LwIP/src/core/pbuf.c ****   const struct pbuf *out = pbuf_skip_const(in, in_offset, out_offset);
 2920              		.loc 1 1180 3 is_stmt 1 view .LVU855
 2921              		.loc 1 1180 28 is_stmt 0 view .LVU856
 2922 0002 FFF7FEFF 		bl	pbuf_skip_const
 2923              	.LVL292:
1181:Middlewares/Third_Party/LwIP/src/core/pbuf.c ****   return LWIP_CONST_CAST(struct pbuf *, out);
 2924              		.loc 1 1181 3 is_stmt 1 view .LVU857
1182:Middlewares/Third_Party/LwIP/src/core/pbuf.c **** }
 2925              		.loc 1 1182 1 is_stmt 0 view .LVU858
 2926 0006 08BD     		pop	{r3, pc}
 2927              		.cfi_endproc
 2928              	.LFE192:
 2930              		.section	.rodata.pbuf_take.str1.4,"aMS",%progbits,1
 2931              		.align	2
 2932              	.LC30:
 2933 0000 70627566 		.ascii	"pbuf_take: invalid buf\000"
 2933      5F74616B 
 2933      653A2069 
 2933      6E76616C 
 2933      69642062 
 2934 0017 00       		.align	2
 2935              	.LC31:
 2936 0018 70627566 		.ascii	"pbuf_take: invalid dataptr\000"
 2936      5F74616B 
 2936      653A2069 
 2936      6E76616C 
 2936      69642064 
 2937 0033 00       		.align	2
 2938              	.LC32:
 2939 0034 70627566 		.ascii	"pbuf_take: buf not large enough\000"
 2939      5F74616B 
 2939      653A2062 
 2939      7566206E 
 2939      6F74206C 
 2940              		.align	2
 2941              	.LC33:
 2942 0054 70627566 		.ascii	"pbuf_take: invalid pbuf\000"
 2942      5F74616B 
 2942      653A2069 
 2942      6E76616C 
 2942      69642070 
 2943              		.align	2
 2944              	.LC34:
 2945 006c 64696420 		.ascii	"did not copy all data\000"
 2945      6E6F7420 
ARM GAS  /var/folders/bg/n1lwdyp56391g865_v8nrmhm0000gn/T//cc4exhWb.s 			page 89


 2945      636F7079 
 2945      20616C6C 
 2945      20646174 
 2946              		.section	.text.pbuf_take,"ax",%progbits
 2947              		.align	1
 2948              		.global	pbuf_take
 2949              		.syntax unified
 2950              		.thumb
 2951              		.thumb_func
 2952              		.fpu fpv5-d16
 2954              	pbuf_take:
 2955              	.LVL293:
 2956              	.LFB193:
1183:Middlewares/Third_Party/LwIP/src/core/pbuf.c **** 
1184:Middlewares/Third_Party/LwIP/src/core/pbuf.c **** /**
1185:Middlewares/Third_Party/LwIP/src/core/pbuf.c ****  * @ingroup pbuf
1186:Middlewares/Third_Party/LwIP/src/core/pbuf.c ****  * Copy application supplied data into a pbuf.
1187:Middlewares/Third_Party/LwIP/src/core/pbuf.c ****  * This function can only be used to copy the equivalent of buf->tot_len data.
1188:Middlewares/Third_Party/LwIP/src/core/pbuf.c ****  *
1189:Middlewares/Third_Party/LwIP/src/core/pbuf.c ****  * @param buf pbuf to fill with data
1190:Middlewares/Third_Party/LwIP/src/core/pbuf.c ****  * @param dataptr application supplied data buffer
1191:Middlewares/Third_Party/LwIP/src/core/pbuf.c ****  * @param len length of the application supplied data buffer
1192:Middlewares/Third_Party/LwIP/src/core/pbuf.c ****  *
1193:Middlewares/Third_Party/LwIP/src/core/pbuf.c ****  * @return ERR_OK if successful, ERR_MEM if the pbuf is not big enough
1194:Middlewares/Third_Party/LwIP/src/core/pbuf.c ****  */
1195:Middlewares/Third_Party/LwIP/src/core/pbuf.c **** err_t
1196:Middlewares/Third_Party/LwIP/src/core/pbuf.c **** pbuf_take(struct pbuf *buf, const void *dataptr, u16_t len)
1197:Middlewares/Third_Party/LwIP/src/core/pbuf.c **** {
 2957              		.loc 1 1197 1 is_stmt 1 view -0
 2958              		.cfi_startproc
 2959              		@ args = 0, pretend = 0, frame = 0
 2960              		@ frame_needed = 0, uses_anonymous_args = 0
 2961              		.loc 1 1197 1 is_stmt 0 view .LVU860
 2962 0000 2DE9F843 		push	{r3, r4, r5, r6, r7, r8, r9, lr}
 2963              	.LCFI37:
 2964              		.cfi_def_cfa_offset 32
 2965              		.cfi_offset 3, -32
 2966              		.cfi_offset 4, -28
 2967              		.cfi_offset 5, -24
 2968              		.cfi_offset 6, -20
 2969              		.cfi_offset 7, -16
 2970              		.cfi_offset 8, -12
 2971              		.cfi_offset 9, -8
 2972              		.cfi_offset 14, -4
1198:Middlewares/Third_Party/LwIP/src/core/pbuf.c ****   struct pbuf *p;
 2973              		.loc 1 1198 3 is_stmt 1 view .LVU861
1199:Middlewares/Third_Party/LwIP/src/core/pbuf.c ****   size_t buf_copy_len;
 2974              		.loc 1 1199 3 view .LVU862
1200:Middlewares/Third_Party/LwIP/src/core/pbuf.c ****   size_t total_copy_len = len;
 2975              		.loc 1 1200 3 view .LVU863
 2976              	.LVL294:
1201:Middlewares/Third_Party/LwIP/src/core/pbuf.c ****   size_t copied_total = 0;
 2977              		.loc 1 1201 3 view .LVU864
1202:Middlewares/Third_Party/LwIP/src/core/pbuf.c **** 
1203:Middlewares/Third_Party/LwIP/src/core/pbuf.c ****   LWIP_ERROR("pbuf_take: invalid buf", (buf != NULL), return ERR_ARG;);
 2978              		.loc 1 1203 3 view .LVU865
 2979              		.loc 1 1203 3 view .LVU866
ARM GAS  /var/folders/bg/n1lwdyp56391g865_v8nrmhm0000gn/T//cc4exhWb.s 			page 90


 2980 0004 48B1     		cbz	r0, .L231
 2981 0006 8846     		mov	r8, r1
 2982 0008 9146     		mov	r9, r2
 2983 000a 0546     		mov	r5, r0
 2984              		.loc 1 1203 3 discriminator 2 view .LVU867
 2985              		.loc 1 1203 3 discriminator 2 view .LVU868
1204:Middlewares/Third_Party/LwIP/src/core/pbuf.c ****   LWIP_ERROR("pbuf_take: invalid dataptr", (dataptr != NULL), return ERR_ARG;);
 2986              		.loc 1 1204 3 discriminator 2 view .LVU869
 2987              		.loc 1 1204 3 discriminator 2 view .LVU870
 2988 000c 79B1     		cbz	r1, .L232
 2989              		.loc 1 1204 3 discriminator 2 view .LVU871
 2990              		.loc 1 1204 3 discriminator 2 view .LVU872
1205:Middlewares/Third_Party/LwIP/src/core/pbuf.c ****   LWIP_ERROR("pbuf_take: buf not large enough", (buf->tot_len >= len), return ERR_MEM;);
 2991              		.loc 1 1205 3 discriminator 2 view .LVU873
 2992              		.loc 1 1205 3 discriminator 2 view .LVU874
 2993 000e 0389     		ldrh	r3, [r0, #8]
 2994 0010 9342     		cmp	r3, r2
 2995 0012 16D3     		bcc	.L233
1200:Middlewares/Third_Party/LwIP/src/core/pbuf.c ****   size_t copied_total = 0;
 2996              		.loc 1 1200 10 is_stmt 0 view .LVU875
 2997 0014 1646     		mov	r6, r2
1201:Middlewares/Third_Party/LwIP/src/core/pbuf.c **** 
 2998              		.loc 1 1201 10 view .LVU876
 2999 0016 0027     		movs	r7, #0
 3000 0018 2EE0     		b	.L224
 3001              	.L231:
1203:Middlewares/Third_Party/LwIP/src/core/pbuf.c ****   LWIP_ERROR("pbuf_take: invalid dataptr", (dataptr != NULL), return ERR_ARG;);
 3002              		.loc 1 1203 3 is_stmt 1 discriminator 1 view .LVU877
1203:Middlewares/Third_Party/LwIP/src/core/pbuf.c ****   LWIP_ERROR("pbuf_take: invalid dataptr", (dataptr != NULL), return ERR_ARG;);
 3003              		.loc 1 1203 3 discriminator 1 view .LVU878
 3004 001a 224B     		ldr	r3, .L237
 3005 001c 40F2B342 		movw	r2, #1203
 3006              	.LVL295:
1203:Middlewares/Third_Party/LwIP/src/core/pbuf.c ****   LWIP_ERROR("pbuf_take: invalid dataptr", (dataptr != NULL), return ERR_ARG;);
 3007              		.loc 1 1203 3 is_stmt 0 discriminator 1 view .LVU879
 3008 0020 2149     		ldr	r1, .L237+4
 3009              	.LVL296:
1203:Middlewares/Third_Party/LwIP/src/core/pbuf.c ****   LWIP_ERROR("pbuf_take: invalid dataptr", (dataptr != NULL), return ERR_ARG;);
 3010              		.loc 1 1203 3 discriminator 1 view .LVU880
 3011 0022 2248     		ldr	r0, .L237+8
 3012              	.LVL297:
1203:Middlewares/Third_Party/LwIP/src/core/pbuf.c ****   LWIP_ERROR("pbuf_take: invalid dataptr", (dataptr != NULL), return ERR_ARG;);
 3013              		.loc 1 1203 3 discriminator 1 view .LVU881
 3014 0024 FFF7FEFF 		bl	printf
 3015              	.LVL298:
1203:Middlewares/Third_Party/LwIP/src/core/pbuf.c ****   LWIP_ERROR("pbuf_take: invalid dataptr", (dataptr != NULL), return ERR_ARG;);
 3016              		.loc 1 1203 3 is_stmt 1 discriminator 1 view .LVU882
1203:Middlewares/Third_Party/LwIP/src/core/pbuf.c ****   LWIP_ERROR("pbuf_take: invalid dataptr", (dataptr != NULL), return ERR_ARG;);
 3017              		.loc 1 1203 3 discriminator 1 view .LVU883
 3018 0028 6FF00F00 		mvn	r0, #15
 3019 002c 2FE0     		b	.L222
 3020              	.LVL299:
 3021              	.L232:
1204:Middlewares/Third_Party/LwIP/src/core/pbuf.c ****   LWIP_ERROR("pbuf_take: buf not large enough", (buf->tot_len >= len), return ERR_MEM;);
 3022              		.loc 1 1204 3 discriminator 1 view .LVU884
1204:Middlewares/Third_Party/LwIP/src/core/pbuf.c ****   LWIP_ERROR("pbuf_take: buf not large enough", (buf->tot_len >= len), return ERR_MEM;);
 3023              		.loc 1 1204 3 discriminator 1 view .LVU885
ARM GAS  /var/folders/bg/n1lwdyp56391g865_v8nrmhm0000gn/T//cc4exhWb.s 			page 91


 3024 002e 1D4B     		ldr	r3, .L237
 3025 0030 40F2B442 		movw	r2, #1204
 3026              	.LVL300:
1204:Middlewares/Third_Party/LwIP/src/core/pbuf.c ****   LWIP_ERROR("pbuf_take: buf not large enough", (buf->tot_len >= len), return ERR_MEM;);
 3027              		.loc 1 1204 3 is_stmt 0 discriminator 1 view .LVU886
 3028 0034 1E49     		ldr	r1, .L237+12
 3029              	.LVL301:
1204:Middlewares/Third_Party/LwIP/src/core/pbuf.c ****   LWIP_ERROR("pbuf_take: buf not large enough", (buf->tot_len >= len), return ERR_MEM;);
 3030              		.loc 1 1204 3 discriminator 1 view .LVU887
 3031 0036 1D48     		ldr	r0, .L237+8
 3032              	.LVL302:
1204:Middlewares/Third_Party/LwIP/src/core/pbuf.c ****   LWIP_ERROR("pbuf_take: buf not large enough", (buf->tot_len >= len), return ERR_MEM;);
 3033              		.loc 1 1204 3 discriminator 1 view .LVU888
 3034 0038 FFF7FEFF 		bl	printf
 3035              	.LVL303:
1204:Middlewares/Third_Party/LwIP/src/core/pbuf.c ****   LWIP_ERROR("pbuf_take: buf not large enough", (buf->tot_len >= len), return ERR_MEM;);
 3036              		.loc 1 1204 3 is_stmt 1 discriminator 1 view .LVU889
1204:Middlewares/Third_Party/LwIP/src/core/pbuf.c ****   LWIP_ERROR("pbuf_take: buf not large enough", (buf->tot_len >= len), return ERR_MEM;);
 3037              		.loc 1 1204 3 discriminator 1 view .LVU890
 3038 003c 6FF00F00 		mvn	r0, #15
 3039 0040 25E0     		b	.L222
 3040              	.LVL304:
 3041              	.L233:
 3042              		.loc 1 1205 3 discriminator 1 view .LVU891
 3043              		.loc 1 1205 3 discriminator 1 view .LVU892
 3044 0042 184B     		ldr	r3, .L237
 3045 0044 40F2B542 		movw	r2, #1205
 3046              	.LVL305:
 3047              		.loc 1 1205 3 is_stmt 0 discriminator 1 view .LVU893
 3048 0048 1A49     		ldr	r1, .L237+16
 3049              	.LVL306:
 3050              		.loc 1 1205 3 discriminator 1 view .LVU894
 3051 004a 1848     		ldr	r0, .L237+8
 3052              	.LVL307:
 3053              		.loc 1 1205 3 discriminator 1 view .LVU895
 3054 004c FFF7FEFF 		bl	printf
 3055              	.LVL308:
 3056              		.loc 1 1205 3 is_stmt 1 discriminator 1 view .LVU896
 3057              		.loc 1 1205 3 discriminator 1 view .LVU897
 3058 0050 4FF0FF30 		mov	r0, #-1
 3059 0054 1BE0     		b	.L222
 3060              	.LVL309:
 3061              	.L235:
1206:Middlewares/Third_Party/LwIP/src/core/pbuf.c **** 
1207:Middlewares/Third_Party/LwIP/src/core/pbuf.c ****   if ((buf == NULL) || (dataptr == NULL) || (buf->tot_len < len)) {
1208:Middlewares/Third_Party/LwIP/src/core/pbuf.c ****     return ERR_ARG;
1209:Middlewares/Third_Party/LwIP/src/core/pbuf.c ****   }
1210:Middlewares/Third_Party/LwIP/src/core/pbuf.c **** 
1211:Middlewares/Third_Party/LwIP/src/core/pbuf.c ****   /* Note some systems use byte copy if dataptr or one of the pbuf payload pointers are unaligned. 
1212:Middlewares/Third_Party/LwIP/src/core/pbuf.c ****   for (p = buf; total_copy_len != 0; p = p->next) {
1213:Middlewares/Third_Party/LwIP/src/core/pbuf.c ****     LWIP_ASSERT("pbuf_take: invalid pbuf", p != NULL);
 3062              		.loc 1 1213 5 discriminator 1 view .LVU898
 3063              		.loc 1 1213 5 discriminator 1 view .LVU899
 3064 0056 134B     		ldr	r3, .L237
 3065 0058 40F2BD42 		movw	r2, #1213
 3066 005c 1649     		ldr	r1, .L237+20
 3067 005e 1348     		ldr	r0, .L237+8
ARM GAS  /var/folders/bg/n1lwdyp56391g865_v8nrmhm0000gn/T//cc4exhWb.s 			page 92


 3068 0060 FFF7FEFF 		bl	printf
 3069              	.LVL310:
 3070 0064 0BE0     		b	.L225
 3071              	.LVL311:
 3072              	.L226:
1214:Middlewares/Third_Party/LwIP/src/core/pbuf.c ****     buf_copy_len = total_copy_len;
1215:Middlewares/Third_Party/LwIP/src/core/pbuf.c ****     if (buf_copy_len > p->len) {
1216:Middlewares/Third_Party/LwIP/src/core/pbuf.c ****       /* this pbuf cannot hold all remaining data */
1217:Middlewares/Third_Party/LwIP/src/core/pbuf.c ****       buf_copy_len = p->len;
1218:Middlewares/Third_Party/LwIP/src/core/pbuf.c ****     }
1219:Middlewares/Third_Party/LwIP/src/core/pbuf.c ****     /* copy the necessary parts of the buffer */
1220:Middlewares/Third_Party/LwIP/src/core/pbuf.c ****     MEMCPY(p->payload, &((const char *)dataptr)[copied_total], buf_copy_len);
 3073              		.loc 1 1220 5 discriminator 2 view .LVU900
 3074 0066 2246     		mov	r2, r4
 3075 0068 08EB0701 		add	r1, r8, r7
 3076 006c 6868     		ldr	r0, [r5, #4]
 3077 006e FFF7FEFF 		bl	memcpy
 3078              	.LVL312:
1221:Middlewares/Third_Party/LwIP/src/core/pbuf.c ****     total_copy_len -= buf_copy_len;
 3079              		.loc 1 1221 5 discriminator 2 view .LVU901
 3080              		.loc 1 1221 20 is_stmt 0 discriminator 2 view .LVU902
 3081 0072 361B     		subs	r6, r6, r4
 3082              	.LVL313:
1222:Middlewares/Third_Party/LwIP/src/core/pbuf.c ****     copied_total += buf_copy_len;
 3083              		.loc 1 1222 5 is_stmt 1 discriminator 2 view .LVU903
 3084              		.loc 1 1222 18 is_stmt 0 discriminator 2 view .LVU904
 3085 0074 2744     		add	r7, r7, r4
 3086              	.LVL314:
1212:Middlewares/Third_Party/LwIP/src/core/pbuf.c ****     LWIP_ASSERT("pbuf_take: invalid pbuf", p != NULL);
 3087              		.loc 1 1212 38 is_stmt 1 discriminator 2 view .LVU905
1212:Middlewares/Third_Party/LwIP/src/core/pbuf.c ****     LWIP_ASSERT("pbuf_take: invalid pbuf", p != NULL);
 3088              		.loc 1 1212 40 is_stmt 0 discriminator 2 view .LVU906
 3089 0076 2D68     		ldr	r5, [r5]
 3090              	.LVL315:
 3091              	.L224:
1212:Middlewares/Third_Party/LwIP/src/core/pbuf.c ****     LWIP_ASSERT("pbuf_take: invalid pbuf", p != NULL);
 3092              		.loc 1 1212 17 is_stmt 1 discriminator 1 view .LVU907
1212:Middlewares/Third_Party/LwIP/src/core/pbuf.c ****     LWIP_ASSERT("pbuf_take: invalid pbuf", p != NULL);
 3093              		.loc 1 1212 3 is_stmt 0 discriminator 1 view .LVU908
 3094 0078 36B1     		cbz	r6, .L234
1213:Middlewares/Third_Party/LwIP/src/core/pbuf.c ****     buf_copy_len = total_copy_len;
 3095              		.loc 1 1213 5 is_stmt 1 view .LVU909
1213:Middlewares/Third_Party/LwIP/src/core/pbuf.c ****     buf_copy_len = total_copy_len;
 3096              		.loc 1 1213 5 view .LVU910
 3097 007a 002D     		cmp	r5, #0
 3098 007c EBD0     		beq	.L235
 3099              	.L225:
1213:Middlewares/Third_Party/LwIP/src/core/pbuf.c ****     buf_copy_len = total_copy_len;
 3100              		.loc 1 1213 5 discriminator 3 view .LVU911
1213:Middlewares/Third_Party/LwIP/src/core/pbuf.c ****     buf_copy_len = total_copy_len;
 3101              		.loc 1 1213 5 discriminator 3 view .LVU912
1214:Middlewares/Third_Party/LwIP/src/core/pbuf.c ****     if (buf_copy_len > p->len) {
 3102              		.loc 1 1214 5 discriminator 3 view .LVU913
 3103              	.LVL316:
1215:Middlewares/Third_Party/LwIP/src/core/pbuf.c ****       /* this pbuf cannot hold all remaining data */
 3104              		.loc 1 1215 5 discriminator 3 view .LVU914
1215:Middlewares/Third_Party/LwIP/src/core/pbuf.c ****       /* this pbuf cannot hold all remaining data */
ARM GAS  /var/folders/bg/n1lwdyp56391g865_v8nrmhm0000gn/T//cc4exhWb.s 			page 93


 3105              		.loc 1 1215 25 is_stmt 0 discriminator 3 view .LVU915
 3106 007e 6C89     		ldrh	r4, [r5, #10]
1215:Middlewares/Third_Party/LwIP/src/core/pbuf.c ****       /* this pbuf cannot hold all remaining data */
 3107              		.loc 1 1215 8 discriminator 3 view .LVU916
 3108 0080 B442     		cmp	r4, r6
 3109 0082 F0D3     		bcc	.L226
1214:Middlewares/Third_Party/LwIP/src/core/pbuf.c ****     if (buf_copy_len > p->len) {
 3110              		.loc 1 1214 18 view .LVU917
 3111 0084 3446     		mov	r4, r6
 3112 0086 EEE7     		b	.L226
 3113              	.LVL317:
 3114              	.L234:
1223:Middlewares/Third_Party/LwIP/src/core/pbuf.c ****   }
1224:Middlewares/Third_Party/LwIP/src/core/pbuf.c ****   LWIP_ASSERT("did not copy all data", total_copy_len == 0 && copied_total == len);
 3115              		.loc 1 1224 3 is_stmt 1 discriminator 2 view .LVU918
 3116              		.loc 1 1224 3 discriminator 2 view .LVU919
 3117 0088 4F45     		cmp	r7, r9
 3118 008a 02D1     		bne	.L236
1225:Middlewares/Third_Party/LwIP/src/core/pbuf.c ****   return ERR_OK;
 3119              		.loc 1 1225 10 is_stmt 0 view .LVU920
 3120 008c 0020     		movs	r0, #0
 3121              	.LVL318:
 3122              	.L222:
1226:Middlewares/Third_Party/LwIP/src/core/pbuf.c **** }
 3123              		.loc 1 1226 1 view .LVU921
 3124 008e BDE8F883 		pop	{r3, r4, r5, r6, r7, r8, r9, pc}
 3125              	.LVL319:
 3126              	.L236:
1224:Middlewares/Third_Party/LwIP/src/core/pbuf.c ****   return ERR_OK;
 3127              		.loc 1 1224 3 is_stmt 1 discriminator 3 view .LVU922
1224:Middlewares/Third_Party/LwIP/src/core/pbuf.c ****   return ERR_OK;
 3128              		.loc 1 1224 3 discriminator 3 view .LVU923
 3129 0092 044B     		ldr	r3, .L237
 3130 0094 4FF49962 		mov	r2, #1224
 3131 0098 0849     		ldr	r1, .L237+24
 3132 009a 0448     		ldr	r0, .L237+8
 3133 009c FFF7FEFF 		bl	printf
 3134              	.LVL320:
1225:Middlewares/Third_Party/LwIP/src/core/pbuf.c ****   return ERR_OK;
 3135              		.loc 1 1225 10 is_stmt 0 discriminator 3 view .LVU924
 3136 00a0 0020     		movs	r0, #0
 3137 00a2 F4E7     		b	.L222
 3138              	.L238:
 3139              		.align	2
 3140              	.L237:
 3141 00a4 00000000 		.word	.LC0
 3142 00a8 00000000 		.word	.LC30
 3143 00ac 3C000000 		.word	.LC2
 3144 00b0 18000000 		.word	.LC31
 3145 00b4 34000000 		.word	.LC32
 3146 00b8 54000000 		.word	.LC33
 3147 00bc 6C000000 		.word	.LC34
 3148              		.cfi_endproc
 3149              	.LFE193:
 3151              		.section	.rodata.pbuf_take_at.str1.4,"aMS",%progbits,1
 3152              		.align	2
 3153              	.LC35:
ARM GAS  /var/folders/bg/n1lwdyp56391g865_v8nrmhm0000gn/T//cc4exhWb.s 			page 94


 3154 0000 63686563 		.ascii	"check pbuf_skip result\000"
 3154      6B207062 
 3154      75665F73 
 3154      6B697020 
 3154      72657375 
 3155              		.section	.text.pbuf_take_at,"ax",%progbits
 3156              		.align	1
 3157              		.global	pbuf_take_at
 3158              		.syntax unified
 3159              		.thumb
 3160              		.thumb_func
 3161              		.fpu fpv5-d16
 3163              	pbuf_take_at:
 3164              	.LVL321:
 3165              	.LFB194:
1227:Middlewares/Third_Party/LwIP/src/core/pbuf.c **** 
1228:Middlewares/Third_Party/LwIP/src/core/pbuf.c **** /**
1229:Middlewares/Third_Party/LwIP/src/core/pbuf.c ****  * @ingroup pbuf
1230:Middlewares/Third_Party/LwIP/src/core/pbuf.c ****  * Same as pbuf_take() but puts data at an offset
1231:Middlewares/Third_Party/LwIP/src/core/pbuf.c ****  *
1232:Middlewares/Third_Party/LwIP/src/core/pbuf.c ****  * @param buf pbuf to fill with data
1233:Middlewares/Third_Party/LwIP/src/core/pbuf.c ****  * @param dataptr application supplied data buffer
1234:Middlewares/Third_Party/LwIP/src/core/pbuf.c ****  * @param len length of the application supplied data buffer
1235:Middlewares/Third_Party/LwIP/src/core/pbuf.c ****  * @param offset offset in pbuf where to copy dataptr to
1236:Middlewares/Third_Party/LwIP/src/core/pbuf.c ****  *
1237:Middlewares/Third_Party/LwIP/src/core/pbuf.c ****  * @return ERR_OK if successful, ERR_MEM if the pbuf is not big enough
1238:Middlewares/Third_Party/LwIP/src/core/pbuf.c ****  */
1239:Middlewares/Third_Party/LwIP/src/core/pbuf.c **** err_t
1240:Middlewares/Third_Party/LwIP/src/core/pbuf.c **** pbuf_take_at(struct pbuf *buf, const void *dataptr, u16_t len, u16_t offset)
1241:Middlewares/Third_Party/LwIP/src/core/pbuf.c **** {
 3166              		.loc 1 1241 1 is_stmt 1 view -0
 3167              		.cfi_startproc
 3168              		@ args = 0, pretend = 0, frame = 8
 3169              		@ frame_needed = 0, uses_anonymous_args = 0
 3170              		.loc 1 1241 1 is_stmt 0 view .LVU926
 3171 0000 F0B5     		push	{r4, r5, r6, r7, lr}
 3172              	.LCFI38:
 3173              		.cfi_def_cfa_offset 20
 3174              		.cfi_offset 4, -20
 3175              		.cfi_offset 5, -16
 3176              		.cfi_offset 6, -12
 3177              		.cfi_offset 7, -8
 3178              		.cfi_offset 14, -4
 3179 0002 83B0     		sub	sp, sp, #12
 3180              	.LCFI39:
 3181              		.cfi_def_cfa_offset 32
 3182 0004 0E46     		mov	r6, r1
 3183 0006 1446     		mov	r4, r2
1242:Middlewares/Third_Party/LwIP/src/core/pbuf.c ****   u16_t target_offset;
 3184              		.loc 1 1242 3 is_stmt 1 view .LVU927
1243:Middlewares/Third_Party/LwIP/src/core/pbuf.c ****   struct pbuf *q = pbuf_skip(buf, offset, &target_offset);
 3185              		.loc 1 1243 3 view .LVU928
 3186              		.loc 1 1243 20 is_stmt 0 view .LVU929
 3187 0008 0DF10602 		add	r2, sp, #6
 3188              	.LVL322:
 3189              		.loc 1 1243 20 view .LVU930
 3190 000c 1946     		mov	r1, r3
ARM GAS  /var/folders/bg/n1lwdyp56391g865_v8nrmhm0000gn/T//cc4exhWb.s 			page 95


 3191              	.LVL323:
 3192              		.loc 1 1243 20 view .LVU931
 3193 000e FFF7FEFF 		bl	pbuf_skip
 3194              	.LVL324:
1244:Middlewares/Third_Party/LwIP/src/core/pbuf.c **** 
1245:Middlewares/Third_Party/LwIP/src/core/pbuf.c ****   /* return requested data if pbuf is OK */
1246:Middlewares/Third_Party/LwIP/src/core/pbuf.c ****   if ((q != NULL) && (q->tot_len >= target_offset + len)) {
 3195              		.loc 1 1246 3 is_stmt 1 view .LVU932
 3196              		.loc 1 1246 6 is_stmt 0 view .LVU933
 3197 0012 58B3     		cbz	r0, .L243
 3198 0014 0746     		mov	r7, r0
 3199              		.loc 1 1246 24 discriminator 1 view .LVU934
 3200 0016 0189     		ldrh	r1, [r0, #8]
 3201              		.loc 1 1246 51 discriminator 1 view .LVU935
 3202 0018 BDF80630 		ldrh	r3, [sp, #6]
 3203 001c 1A19     		adds	r2, r3, r4
 3204              		.loc 1 1246 19 discriminator 1 view .LVU936
 3205 001e 9142     		cmp	r1, r2
 3206 0020 27DB     		blt	.L244
 3207              	.LBB13:
1247:Middlewares/Third_Party/LwIP/src/core/pbuf.c ****     u16_t remaining_len = len;
 3208              		.loc 1 1247 5 is_stmt 1 view .LVU937
 3209              	.LVL325:
1248:Middlewares/Third_Party/LwIP/src/core/pbuf.c ****     const u8_t *src_ptr = (const u8_t *)dataptr;
 3210              		.loc 1 1248 5 view .LVU938
1249:Middlewares/Third_Party/LwIP/src/core/pbuf.c ****     /* copy the part that goes into the first pbuf */
1250:Middlewares/Third_Party/LwIP/src/core/pbuf.c ****     u16_t first_copy_len;
 3211              		.loc 1 1250 5 view .LVU939
1251:Middlewares/Third_Party/LwIP/src/core/pbuf.c ****     LWIP_ASSERT("check pbuf_skip result", target_offset < q->len);
 3212              		.loc 1 1251 5 view .LVU940
 3213              		.loc 1 1251 5 view .LVU941
 3214 0022 4289     		ldrh	r2, [r0, #10]
 3215 0024 9342     		cmp	r3, r2
 3216 0026 13D2     		bcs	.L248
 3217              	.LVL326:
 3218              	.L241:
 3219              		.loc 1 1251 5 discriminator 3 view .LVU942
 3220              		.loc 1 1251 5 discriminator 3 view .LVU943
1252:Middlewares/Third_Party/LwIP/src/core/pbuf.c ****     first_copy_len = (u16_t)LWIP_MIN(q->len - target_offset, len);
 3221              		.loc 1 1252 5 discriminator 3 view .LVU944
 3222              		.loc 1 1252 29 is_stmt 0 discriminator 3 view .LVU945
 3223 0028 7D89     		ldrh	r5, [r7, #10]
 3224 002a BDF80630 		ldrh	r3, [sp, #6]
 3225 002e EA1A     		subs	r2, r5, r3
 3226              		.loc 1 1252 22 discriminator 3 view .LVU946
 3227 0030 9442     		cmp	r4, r2
 3228 0032 15DD     		ble	.L245
 3229              		.loc 1 1252 22 discriminator 1 view .LVU947
 3230 0034 95B2     		uxth	r5, r2
 3231              	.L242:
 3232              	.LVL327:
1253:Middlewares/Third_Party/LwIP/src/core/pbuf.c ****     MEMCPY(((u8_t *)q->payload) + target_offset, dataptr, first_copy_len);
 3233              		.loc 1 1253 5 is_stmt 1 discriminator 4 view .LVU948
 3234 0036 7868     		ldr	r0, [r7, #4]
 3235 0038 2A46     		mov	r2, r5
 3236 003a 3146     		mov	r1, r6
 3237 003c 1844     		add	r0, r0, r3
ARM GAS  /var/folders/bg/n1lwdyp56391g865_v8nrmhm0000gn/T//cc4exhWb.s 			page 96


 3238 003e FFF7FEFF 		bl	memcpy
 3239              	.LVL328:
1254:Middlewares/Third_Party/LwIP/src/core/pbuf.c ****     remaining_len = (u16_t)(remaining_len - first_copy_len);
 3240              		.loc 1 1254 5 discriminator 4 view .LVU949
 3241              		.loc 1 1254 19 is_stmt 0 discriminator 4 view .LVU950
 3242 0042 621B     		subs	r2, r4, r5
 3243 0044 92B2     		uxth	r2, r2
 3244              	.LVL329:
1255:Middlewares/Third_Party/LwIP/src/core/pbuf.c ****     src_ptr += first_copy_len;
 3245              		.loc 1 1255 5 is_stmt 1 discriminator 4 view .LVU951
 3246              		.loc 1 1255 13 is_stmt 0 discriminator 4 view .LVU952
 3247 0046 7119     		adds	r1, r6, r5
 3248              	.LVL330:
1256:Middlewares/Third_Party/LwIP/src/core/pbuf.c ****     if (remaining_len > 0) {
 3249              		.loc 1 1256 5 is_stmt 1 discriminator 4 view .LVU953
 3250              		.loc 1 1256 8 is_stmt 0 discriminator 4 view .LVU954
 3251 0048 62B9     		cbnz	r2, .L249
1257:Middlewares/Third_Party/LwIP/src/core/pbuf.c ****       return pbuf_take(q->next, src_ptr, remaining_len);
1258:Middlewares/Third_Party/LwIP/src/core/pbuf.c ****     }
1259:Middlewares/Third_Party/LwIP/src/core/pbuf.c ****     return ERR_OK;
 3252              		.loc 1 1259 12 view .LVU955
 3253 004a 0020     		movs	r0, #0
 3254              	.LVL331:
 3255              	.L240:
 3256              		.loc 1 1259 12 view .LVU956
 3257              	.LBE13:
1260:Middlewares/Third_Party/LwIP/src/core/pbuf.c ****   }
1261:Middlewares/Third_Party/LwIP/src/core/pbuf.c ****   return ERR_MEM;
1262:Middlewares/Third_Party/LwIP/src/core/pbuf.c **** }
 3258              		.loc 1 1262 1 view .LVU957
 3259 004c 03B0     		add	sp, sp, #12
 3260              	.LCFI40:
 3261              		.cfi_remember_state
 3262              		.cfi_def_cfa_offset 20
 3263              		@ sp needed
 3264 004e F0BD     		pop	{r4, r5, r6, r7, pc}
 3265              	.LVL332:
 3266              	.L248:
 3267              	.LCFI41:
 3268              		.cfi_restore_state
 3269              	.LBB14:
1251:Middlewares/Third_Party/LwIP/src/core/pbuf.c ****     first_copy_len = (u16_t)LWIP_MIN(q->len - target_offset, len);
 3270              		.loc 1 1251 5 is_stmt 1 discriminator 1 view .LVU958
1251:Middlewares/Third_Party/LwIP/src/core/pbuf.c ****     first_copy_len = (u16_t)LWIP_MIN(q->len - target_offset, len);
 3271              		.loc 1 1251 5 discriminator 1 view .LVU959
 3272 0050 094B     		ldr	r3, .L250
 3273 0052 40F2E342 		movw	r2, #1251
 3274 0056 0949     		ldr	r1, .L250+4
 3275 0058 0948     		ldr	r0, .L250+8
 3276              	.LVL333:
1251:Middlewares/Third_Party/LwIP/src/core/pbuf.c ****     first_copy_len = (u16_t)LWIP_MIN(q->len - target_offset, len);
 3277              		.loc 1 1251 5 is_stmt 0 discriminator 1 view .LVU960
 3278 005a FFF7FEFF 		bl	printf
 3279              	.LVL334:
 3280 005e E3E7     		b	.L241
 3281              	.L245:
1252:Middlewares/Third_Party/LwIP/src/core/pbuf.c ****     MEMCPY(((u8_t *)q->payload) + target_offset, dataptr, first_copy_len);
ARM GAS  /var/folders/bg/n1lwdyp56391g865_v8nrmhm0000gn/T//cc4exhWb.s 			page 97


 3282              		.loc 1 1252 22 view .LVU961
 3283 0060 2546     		mov	r5, r4
 3284 0062 E8E7     		b	.L242
 3285              	.LVL335:
 3286              	.L249:
1257:Middlewares/Third_Party/LwIP/src/core/pbuf.c ****     }
 3287              		.loc 1 1257 7 is_stmt 1 view .LVU962
1257:Middlewares/Third_Party/LwIP/src/core/pbuf.c ****     }
 3288              		.loc 1 1257 14 is_stmt 0 view .LVU963
 3289 0064 3868     		ldr	r0, [r7]
 3290 0066 FFF7FEFF 		bl	pbuf_take
 3291              	.LVL336:
1257:Middlewares/Third_Party/LwIP/src/core/pbuf.c ****     }
 3292              		.loc 1 1257 14 view .LVU964
 3293 006a EFE7     		b	.L240
 3294              	.LVL337:
 3295              	.L243:
1257:Middlewares/Third_Party/LwIP/src/core/pbuf.c ****     }
 3296              		.loc 1 1257 14 view .LVU965
 3297              	.LBE14:
1261:Middlewares/Third_Party/LwIP/src/core/pbuf.c **** }
 3298              		.loc 1 1261 10 view .LVU966
 3299 006c 4FF0FF30 		mov	r0, #-1
 3300              	.LVL338:
1261:Middlewares/Third_Party/LwIP/src/core/pbuf.c **** }
 3301              		.loc 1 1261 10 view .LVU967
 3302 0070 ECE7     		b	.L240
 3303              	.LVL339:
 3304              	.L244:
1261:Middlewares/Third_Party/LwIP/src/core/pbuf.c **** }
 3305              		.loc 1 1261 10 view .LVU968
 3306 0072 4FF0FF30 		mov	r0, #-1
 3307              	.LVL340:
1261:Middlewares/Third_Party/LwIP/src/core/pbuf.c **** }
 3308              		.loc 1 1261 10 view .LVU969
 3309 0076 E9E7     		b	.L240
 3310              	.L251:
 3311              		.align	2
 3312              	.L250:
 3313 0078 00000000 		.word	.LC0
 3314 007c 00000000 		.word	.LC35
 3315 0080 3C000000 		.word	.LC2
 3316              		.cfi_endproc
 3317              	.LFE194:
 3319              		.section	.rodata.pbuf_clone.str1.4,"aMS",%progbits,1
 3320              		.align	2
 3321              	.LC36:
 3322 0000 70627566 		.ascii	"pbuf_copy failed\000"
 3322      5F636F70 
 3322      79206661 
 3322      696C6564 
 3322      00
 3323              		.section	.text.pbuf_clone,"ax",%progbits
 3324              		.align	1
 3325              		.global	pbuf_clone
 3326              		.syntax unified
 3327              		.thumb
ARM GAS  /var/folders/bg/n1lwdyp56391g865_v8nrmhm0000gn/T//cc4exhWb.s 			page 98


 3328              		.thumb_func
 3329              		.fpu fpv5-d16
 3331              	pbuf_clone:
 3332              	.LVL341:
 3333              	.LFB196:
1263:Middlewares/Third_Party/LwIP/src/core/pbuf.c **** 
1264:Middlewares/Third_Party/LwIP/src/core/pbuf.c **** /**
1265:Middlewares/Third_Party/LwIP/src/core/pbuf.c ****  * @ingroup pbuf
1266:Middlewares/Third_Party/LwIP/src/core/pbuf.c ****  * Creates a single pbuf out of a queue of pbufs.
1267:Middlewares/Third_Party/LwIP/src/core/pbuf.c ****  *
1268:Middlewares/Third_Party/LwIP/src/core/pbuf.c ****  * @remark: Either the source pbuf 'p' is freed by this function or the original
1269:Middlewares/Third_Party/LwIP/src/core/pbuf.c ****  *          pbuf 'p' is returned, therefore the caller has to check the result!
1270:Middlewares/Third_Party/LwIP/src/core/pbuf.c ****  *
1271:Middlewares/Third_Party/LwIP/src/core/pbuf.c ****  * @param p the source pbuf
1272:Middlewares/Third_Party/LwIP/src/core/pbuf.c ****  * @param layer pbuf_layer of the new pbuf
1273:Middlewares/Third_Party/LwIP/src/core/pbuf.c ****  *
1274:Middlewares/Third_Party/LwIP/src/core/pbuf.c ****  * @return a new, single pbuf (p->next is NULL)
1275:Middlewares/Third_Party/LwIP/src/core/pbuf.c ****  *         or the old pbuf if allocation fails
1276:Middlewares/Third_Party/LwIP/src/core/pbuf.c ****  */
1277:Middlewares/Third_Party/LwIP/src/core/pbuf.c **** struct pbuf *
1278:Middlewares/Third_Party/LwIP/src/core/pbuf.c **** pbuf_coalesce(struct pbuf *p, pbuf_layer layer)
1279:Middlewares/Third_Party/LwIP/src/core/pbuf.c **** {
1280:Middlewares/Third_Party/LwIP/src/core/pbuf.c ****   struct pbuf *q;
1281:Middlewares/Third_Party/LwIP/src/core/pbuf.c ****   if (p->next == NULL) {
1282:Middlewares/Third_Party/LwIP/src/core/pbuf.c ****     return p;
1283:Middlewares/Third_Party/LwIP/src/core/pbuf.c ****   }
1284:Middlewares/Third_Party/LwIP/src/core/pbuf.c ****   q = pbuf_clone(layer, PBUF_RAM, p);
1285:Middlewares/Third_Party/LwIP/src/core/pbuf.c ****   if (q == NULL) {
1286:Middlewares/Third_Party/LwIP/src/core/pbuf.c ****     /* @todo: what do we do now? */
1287:Middlewares/Third_Party/LwIP/src/core/pbuf.c ****     return p;
1288:Middlewares/Third_Party/LwIP/src/core/pbuf.c ****   }
1289:Middlewares/Third_Party/LwIP/src/core/pbuf.c ****   pbuf_free(p);
1290:Middlewares/Third_Party/LwIP/src/core/pbuf.c ****   return q;
1291:Middlewares/Third_Party/LwIP/src/core/pbuf.c **** }
1292:Middlewares/Third_Party/LwIP/src/core/pbuf.c **** 
1293:Middlewares/Third_Party/LwIP/src/core/pbuf.c **** /**
1294:Middlewares/Third_Party/LwIP/src/core/pbuf.c ****  * @ingroup pbuf
1295:Middlewares/Third_Party/LwIP/src/core/pbuf.c ****  * Allocates a new pbuf of same length (via pbuf_alloc()) and copies the source
1296:Middlewares/Third_Party/LwIP/src/core/pbuf.c ****  * pbuf into this new pbuf (using pbuf_copy()).
1297:Middlewares/Third_Party/LwIP/src/core/pbuf.c ****  *
1298:Middlewares/Third_Party/LwIP/src/core/pbuf.c ****  * @param layer pbuf_layer of the new pbuf
1299:Middlewares/Third_Party/LwIP/src/core/pbuf.c ****  * @param type this parameter decides how and where the pbuf should be allocated
1300:Middlewares/Third_Party/LwIP/src/core/pbuf.c ****  *             (@see pbuf_alloc())
1301:Middlewares/Third_Party/LwIP/src/core/pbuf.c ****  * @param p the source pbuf
1302:Middlewares/Third_Party/LwIP/src/core/pbuf.c ****  *
1303:Middlewares/Third_Party/LwIP/src/core/pbuf.c ****  * @return a new pbuf or NULL if allocation fails
1304:Middlewares/Third_Party/LwIP/src/core/pbuf.c ****  */
1305:Middlewares/Third_Party/LwIP/src/core/pbuf.c **** struct pbuf *
1306:Middlewares/Third_Party/LwIP/src/core/pbuf.c **** pbuf_clone(pbuf_layer layer, pbuf_type type, struct pbuf *p)
1307:Middlewares/Third_Party/LwIP/src/core/pbuf.c **** {
 3334              		.loc 1 1307 1 is_stmt 1 view -0
 3335              		.cfi_startproc
 3336              		@ args = 0, pretend = 0, frame = 0
 3337              		@ frame_needed = 0, uses_anonymous_args = 0
 3338              		.loc 1 1307 1 is_stmt 0 view .LVU971
 3339 0000 38B5     		push	{r3, r4, r5, lr}
 3340              	.LCFI42:
ARM GAS  /var/folders/bg/n1lwdyp56391g865_v8nrmhm0000gn/T//cc4exhWb.s 			page 99


 3341              		.cfi_def_cfa_offset 16
 3342              		.cfi_offset 3, -16
 3343              		.cfi_offset 4, -12
 3344              		.cfi_offset 5, -8
 3345              		.cfi_offset 14, -4
 3346 0002 1446     		mov	r4, r2
1308:Middlewares/Third_Party/LwIP/src/core/pbuf.c ****   struct pbuf *q;
 3347              		.loc 1 1308 3 is_stmt 1 view .LVU972
1309:Middlewares/Third_Party/LwIP/src/core/pbuf.c ****   err_t err;
 3348              		.loc 1 1309 3 view .LVU973
1310:Middlewares/Third_Party/LwIP/src/core/pbuf.c ****   q = pbuf_alloc(layer, p->tot_len, type);
 3349              		.loc 1 1310 3 view .LVU974
 3350              		.loc 1 1310 7 is_stmt 0 view .LVU975
 3351 0004 0A46     		mov	r2, r1
 3352              	.LVL342:
 3353              		.loc 1 1310 7 view .LVU976
 3354 0006 2189     		ldrh	r1, [r4, #8]
 3355              	.LVL343:
 3356              		.loc 1 1310 7 view .LVU977
 3357 0008 FFF7FEFF 		bl	pbuf_alloc
 3358              	.LVL344:
1311:Middlewares/Third_Party/LwIP/src/core/pbuf.c ****   if (q == NULL) {
 3359              		.loc 1 1311 3 is_stmt 1 view .LVU978
 3360              		.loc 1 1311 6 is_stmt 0 view .LVU979
 3361 000c 0546     		mov	r5, r0
 3362 000e 18B1     		cbz	r0, .L252
1312:Middlewares/Third_Party/LwIP/src/core/pbuf.c ****     return NULL;
1313:Middlewares/Third_Party/LwIP/src/core/pbuf.c ****   }
1314:Middlewares/Third_Party/LwIP/src/core/pbuf.c ****   err = pbuf_copy(q, p);
 3363              		.loc 1 1314 3 is_stmt 1 view .LVU980
 3364              		.loc 1 1314 9 is_stmt 0 view .LVU981
 3365 0010 2146     		mov	r1, r4
 3366 0012 FFF7FEFF 		bl	pbuf_copy
 3367              	.LVL345:
1315:Middlewares/Third_Party/LwIP/src/core/pbuf.c ****   LWIP_UNUSED_ARG(err); /* in case of LWIP_NOASSERT */
 3368              		.loc 1 1315 3 is_stmt 1 view .LVU982
1316:Middlewares/Third_Party/LwIP/src/core/pbuf.c ****   LWIP_ASSERT("pbuf_copy failed", err == ERR_OK);
 3369              		.loc 1 1316 3 view .LVU983
 3370              		.loc 1 1316 3 view .LVU984
 3371 0016 08B9     		cbnz	r0, .L255
 3372              	.LVL346:
 3373              	.L252:
1317:Middlewares/Third_Party/LwIP/src/core/pbuf.c ****   return q;
1318:Middlewares/Third_Party/LwIP/src/core/pbuf.c **** }
 3374              		.loc 1 1318 1 is_stmt 0 view .LVU985
 3375 0018 2846     		mov	r0, r5
 3376 001a 38BD     		pop	{r3, r4, r5, pc}
 3377              	.LVL347:
 3378              	.L255:
1316:Middlewares/Third_Party/LwIP/src/core/pbuf.c ****   LWIP_ASSERT("pbuf_copy failed", err == ERR_OK);
 3379              		.loc 1 1316 3 is_stmt 1 discriminator 1 view .LVU986
1316:Middlewares/Third_Party/LwIP/src/core/pbuf.c ****   LWIP_ASSERT("pbuf_copy failed", err == ERR_OK);
 3380              		.loc 1 1316 3 discriminator 1 view .LVU987
 3381 001c 034B     		ldr	r3, .L256
 3382 001e 40F22452 		movw	r2, #1316
 3383 0022 0349     		ldr	r1, .L256+4
 3384 0024 0348     		ldr	r0, .L256+8
ARM GAS  /var/folders/bg/n1lwdyp56391g865_v8nrmhm0000gn/T//cc4exhWb.s 			page 100


 3385              	.LVL348:
1316:Middlewares/Third_Party/LwIP/src/core/pbuf.c ****   LWIP_ASSERT("pbuf_copy failed", err == ERR_OK);
 3386              		.loc 1 1316 3 is_stmt 0 discriminator 1 view .LVU988
 3387 0026 FFF7FEFF 		bl	printf
 3388              	.LVL349:
 3389 002a F5E7     		b	.L252
 3390              	.L257:
 3391              		.align	2
 3392              	.L256:
 3393 002c 00000000 		.word	.LC0
 3394 0030 00000000 		.word	.LC36
 3395 0034 3C000000 		.word	.LC2
 3396              		.cfi_endproc
 3397              	.LFE196:
 3399              		.section	.text.pbuf_coalesce,"ax",%progbits
 3400              		.align	1
 3401              		.global	pbuf_coalesce
 3402              		.syntax unified
 3403              		.thumb
 3404              		.thumb_func
 3405              		.fpu fpv5-d16
 3407              	pbuf_coalesce:
 3408              	.LVL350:
 3409              	.LFB195:
1279:Middlewares/Third_Party/LwIP/src/core/pbuf.c ****   struct pbuf *q;
 3410              		.loc 1 1279 1 is_stmt 1 view -0
 3411              		.cfi_startproc
 3412              		@ args = 0, pretend = 0, frame = 0
 3413              		@ frame_needed = 0, uses_anonymous_args = 0
1279:Middlewares/Third_Party/LwIP/src/core/pbuf.c ****   struct pbuf *q;
 3414              		.loc 1 1279 1 is_stmt 0 view .LVU990
 3415 0000 38B5     		push	{r3, r4, r5, lr}
 3416              	.LCFI43:
 3417              		.cfi_def_cfa_offset 16
 3418              		.cfi_offset 3, -16
 3419              		.cfi_offset 4, -12
 3420              		.cfi_offset 5, -8
 3421              		.cfi_offset 14, -4
 3422 0002 0446     		mov	r4, r0
1280:Middlewares/Third_Party/LwIP/src/core/pbuf.c ****   if (p->next == NULL) {
 3423              		.loc 1 1280 3 is_stmt 1 view .LVU991
1281:Middlewares/Third_Party/LwIP/src/core/pbuf.c ****     return p;
 3424              		.loc 1 1281 3 view .LVU992
1281:Middlewares/Third_Party/LwIP/src/core/pbuf.c ****     return p;
 3425              		.loc 1 1281 8 is_stmt 0 view .LVU993
 3426 0004 0368     		ldr	r3, [r0]
1281:Middlewares/Third_Party/LwIP/src/core/pbuf.c ****     return p;
 3427              		.loc 1 1281 6 view .LVU994
 3428 0006 5BB1     		cbz	r3, .L259
 3429 0008 0846     		mov	r0, r1
 3430              	.LVL351:
1284:Middlewares/Third_Party/LwIP/src/core/pbuf.c ****   if (q == NULL) {
 3431              		.loc 1 1284 3 is_stmt 1 view .LVU995
1284:Middlewares/Third_Party/LwIP/src/core/pbuf.c ****   if (q == NULL) {
 3432              		.loc 1 1284 7 is_stmt 0 view .LVU996
 3433 000a 2246     		mov	r2, r4
 3434 000c 4FF42071 		mov	r1, #640
ARM GAS  /var/folders/bg/n1lwdyp56391g865_v8nrmhm0000gn/T//cc4exhWb.s 			page 101


 3435              	.LVL352:
1284:Middlewares/Third_Party/LwIP/src/core/pbuf.c ****   if (q == NULL) {
 3436              		.loc 1 1284 7 view .LVU997
 3437 0010 FFF7FEFF 		bl	pbuf_clone
 3438              	.LVL353:
1285:Middlewares/Third_Party/LwIP/src/core/pbuf.c ****     /* @todo: what do we do now? */
 3439              		.loc 1 1285 3 is_stmt 1 view .LVU998
1285:Middlewares/Third_Party/LwIP/src/core/pbuf.c ****     /* @todo: what do we do now? */
 3440              		.loc 1 1285 6 is_stmt 0 view .LVU999
 3441 0014 0546     		mov	r5, r0
 3442 0016 18B1     		cbz	r0, .L259
1289:Middlewares/Third_Party/LwIP/src/core/pbuf.c ****   return q;
 3443              		.loc 1 1289 3 is_stmt 1 view .LVU1000
 3444 0018 2046     		mov	r0, r4
 3445              	.LVL354:
1289:Middlewares/Third_Party/LwIP/src/core/pbuf.c ****   return q;
 3446              		.loc 1 1289 3 is_stmt 0 view .LVU1001
 3447 001a FFF7FEFF 		bl	pbuf_free
 3448              	.LVL355:
1290:Middlewares/Third_Party/LwIP/src/core/pbuf.c **** }
 3449              		.loc 1 1290 3 is_stmt 1 view .LVU1002
1290:Middlewares/Third_Party/LwIP/src/core/pbuf.c **** }
 3450              		.loc 1 1290 10 is_stmt 0 view .LVU1003
 3451 001e 2C46     		mov	r4, r5
 3452              	.LVL356:
 3453              	.L259:
1291:Middlewares/Third_Party/LwIP/src/core/pbuf.c **** 
 3454              		.loc 1 1291 1 view .LVU1004
 3455 0020 2046     		mov	r0, r4
 3456 0022 38BD     		pop	{r3, r4, r5, pc}
 3457              		.cfi_endproc
 3458              	.LFE195:
 3460              		.section	.text.pbuf_try_get_at,"ax",%progbits
 3461              		.align	1
 3462              		.global	pbuf_try_get_at
 3463              		.syntax unified
 3464              		.thumb
 3465              		.thumb_func
 3466              		.fpu fpv5-d16
 3468              	pbuf_try_get_at:
 3469              	.LVL357:
 3470              	.LFB198:
1319:Middlewares/Third_Party/LwIP/src/core/pbuf.c **** 
1320:Middlewares/Third_Party/LwIP/src/core/pbuf.c **** #if LWIP_CHECKSUM_ON_COPY
1321:Middlewares/Third_Party/LwIP/src/core/pbuf.c **** /**
1322:Middlewares/Third_Party/LwIP/src/core/pbuf.c ****  * Copies data into a single pbuf (*not* into a pbuf queue!) and updates
1323:Middlewares/Third_Party/LwIP/src/core/pbuf.c ****  * the checksum while copying
1324:Middlewares/Third_Party/LwIP/src/core/pbuf.c ****  *
1325:Middlewares/Third_Party/LwIP/src/core/pbuf.c ****  * @param p the pbuf to copy data into
1326:Middlewares/Third_Party/LwIP/src/core/pbuf.c ****  * @param start_offset offset of p->payload where to copy the data to
1327:Middlewares/Third_Party/LwIP/src/core/pbuf.c ****  * @param dataptr data to copy into the pbuf
1328:Middlewares/Third_Party/LwIP/src/core/pbuf.c ****  * @param len length of data to copy into the pbuf
1329:Middlewares/Third_Party/LwIP/src/core/pbuf.c ****  * @param chksum pointer to the checksum which is updated
1330:Middlewares/Third_Party/LwIP/src/core/pbuf.c ****  * @return ERR_OK if successful, another error if the data does not fit
1331:Middlewares/Third_Party/LwIP/src/core/pbuf.c ****  *         within the (first) pbuf (no pbuf queues!)
1332:Middlewares/Third_Party/LwIP/src/core/pbuf.c ****  */
1333:Middlewares/Third_Party/LwIP/src/core/pbuf.c **** err_t
ARM GAS  /var/folders/bg/n1lwdyp56391g865_v8nrmhm0000gn/T//cc4exhWb.s 			page 102


1334:Middlewares/Third_Party/LwIP/src/core/pbuf.c **** pbuf_fill_chksum(struct pbuf *p, u16_t start_offset, const void *dataptr,
1335:Middlewares/Third_Party/LwIP/src/core/pbuf.c ****                  u16_t len, u16_t *chksum)
1336:Middlewares/Third_Party/LwIP/src/core/pbuf.c **** {
1337:Middlewares/Third_Party/LwIP/src/core/pbuf.c ****   u32_t acc;
1338:Middlewares/Third_Party/LwIP/src/core/pbuf.c ****   u16_t copy_chksum;
1339:Middlewares/Third_Party/LwIP/src/core/pbuf.c ****   char *dst_ptr;
1340:Middlewares/Third_Party/LwIP/src/core/pbuf.c ****   LWIP_ASSERT("p != NULL", p != NULL);
1341:Middlewares/Third_Party/LwIP/src/core/pbuf.c ****   LWIP_ASSERT("dataptr != NULL", dataptr != NULL);
1342:Middlewares/Third_Party/LwIP/src/core/pbuf.c ****   LWIP_ASSERT("chksum != NULL", chksum != NULL);
1343:Middlewares/Third_Party/LwIP/src/core/pbuf.c ****   LWIP_ASSERT("len != 0", len != 0);
1344:Middlewares/Third_Party/LwIP/src/core/pbuf.c **** 
1345:Middlewares/Third_Party/LwIP/src/core/pbuf.c ****   if ((start_offset >= p->len) || (start_offset + len > p->len)) {
1346:Middlewares/Third_Party/LwIP/src/core/pbuf.c ****     return ERR_ARG;
1347:Middlewares/Third_Party/LwIP/src/core/pbuf.c ****   }
1348:Middlewares/Third_Party/LwIP/src/core/pbuf.c **** 
1349:Middlewares/Third_Party/LwIP/src/core/pbuf.c ****   dst_ptr = ((char *)p->payload) + start_offset;
1350:Middlewares/Third_Party/LwIP/src/core/pbuf.c ****   copy_chksum = LWIP_CHKSUM_COPY(dst_ptr, dataptr, len);
1351:Middlewares/Third_Party/LwIP/src/core/pbuf.c ****   if ((start_offset & 1) != 0) {
1352:Middlewares/Third_Party/LwIP/src/core/pbuf.c ****     copy_chksum = SWAP_BYTES_IN_WORD(copy_chksum);
1353:Middlewares/Third_Party/LwIP/src/core/pbuf.c ****   }
1354:Middlewares/Third_Party/LwIP/src/core/pbuf.c ****   acc = *chksum;
1355:Middlewares/Third_Party/LwIP/src/core/pbuf.c ****   acc += copy_chksum;
1356:Middlewares/Third_Party/LwIP/src/core/pbuf.c ****   *chksum = FOLD_U32T(acc);
1357:Middlewares/Third_Party/LwIP/src/core/pbuf.c ****   return ERR_OK;
1358:Middlewares/Third_Party/LwIP/src/core/pbuf.c **** }
1359:Middlewares/Third_Party/LwIP/src/core/pbuf.c **** #endif /* LWIP_CHECKSUM_ON_COPY */
1360:Middlewares/Third_Party/LwIP/src/core/pbuf.c **** 
1361:Middlewares/Third_Party/LwIP/src/core/pbuf.c **** /**
1362:Middlewares/Third_Party/LwIP/src/core/pbuf.c ****  * @ingroup pbuf
1363:Middlewares/Third_Party/LwIP/src/core/pbuf.c ****  * Get one byte from the specified position in a pbuf
1364:Middlewares/Third_Party/LwIP/src/core/pbuf.c ****  * WARNING: returns zero for offset >= p->tot_len
1365:Middlewares/Third_Party/LwIP/src/core/pbuf.c ****  *
1366:Middlewares/Third_Party/LwIP/src/core/pbuf.c ****  * @param p pbuf to parse
1367:Middlewares/Third_Party/LwIP/src/core/pbuf.c ****  * @param offset offset into p of the byte to return
1368:Middlewares/Third_Party/LwIP/src/core/pbuf.c ****  * @return byte at an offset into p OR ZERO IF 'offset' >= p->tot_len
1369:Middlewares/Third_Party/LwIP/src/core/pbuf.c ****  */
1370:Middlewares/Third_Party/LwIP/src/core/pbuf.c **** u8_t
1371:Middlewares/Third_Party/LwIP/src/core/pbuf.c **** pbuf_get_at(const struct pbuf *p, u16_t offset)
1372:Middlewares/Third_Party/LwIP/src/core/pbuf.c **** {
1373:Middlewares/Third_Party/LwIP/src/core/pbuf.c ****   int ret = pbuf_try_get_at(p, offset);
1374:Middlewares/Third_Party/LwIP/src/core/pbuf.c ****   if (ret >= 0) {
1375:Middlewares/Third_Party/LwIP/src/core/pbuf.c ****     return (u8_t)ret;
1376:Middlewares/Third_Party/LwIP/src/core/pbuf.c ****   }
1377:Middlewares/Third_Party/LwIP/src/core/pbuf.c ****   return 0;
1378:Middlewares/Third_Party/LwIP/src/core/pbuf.c **** }
1379:Middlewares/Third_Party/LwIP/src/core/pbuf.c **** 
1380:Middlewares/Third_Party/LwIP/src/core/pbuf.c **** /**
1381:Middlewares/Third_Party/LwIP/src/core/pbuf.c ****  * @ingroup pbuf
1382:Middlewares/Third_Party/LwIP/src/core/pbuf.c ****  * Get one byte from the specified position in a pbuf
1383:Middlewares/Third_Party/LwIP/src/core/pbuf.c ****  *
1384:Middlewares/Third_Party/LwIP/src/core/pbuf.c ****  * @param p pbuf to parse
1385:Middlewares/Third_Party/LwIP/src/core/pbuf.c ****  * @param offset offset into p of the byte to return
1386:Middlewares/Third_Party/LwIP/src/core/pbuf.c ****  * @return byte at an offset into p [0..0xFF] OR negative if 'offset' >= p->tot_len
1387:Middlewares/Third_Party/LwIP/src/core/pbuf.c ****  */
1388:Middlewares/Third_Party/LwIP/src/core/pbuf.c **** int
1389:Middlewares/Third_Party/LwIP/src/core/pbuf.c **** pbuf_try_get_at(const struct pbuf *p, u16_t offset)
1390:Middlewares/Third_Party/LwIP/src/core/pbuf.c **** {
ARM GAS  /var/folders/bg/n1lwdyp56391g865_v8nrmhm0000gn/T//cc4exhWb.s 			page 103


 3471              		.loc 1 1390 1 is_stmt 1 view -0
 3472              		.cfi_startproc
 3473              		@ args = 0, pretend = 0, frame = 8
 3474              		@ frame_needed = 0, uses_anonymous_args = 0
 3475              		.loc 1 1390 1 is_stmt 0 view .LVU1006
 3476 0000 00B5     		push	{lr}
 3477              	.LCFI44:
 3478              		.cfi_def_cfa_offset 4
 3479              		.cfi_offset 14, -4
 3480 0002 83B0     		sub	sp, sp, #12
 3481              	.LCFI45:
 3482              		.cfi_def_cfa_offset 16
1391:Middlewares/Third_Party/LwIP/src/core/pbuf.c ****   u16_t q_idx;
 3483              		.loc 1 1391 3 is_stmt 1 view .LVU1007
1392:Middlewares/Third_Party/LwIP/src/core/pbuf.c ****   const struct pbuf *q = pbuf_skip_const(p, offset, &q_idx);
 3484              		.loc 1 1392 3 view .LVU1008
 3485              		.loc 1 1392 26 is_stmt 0 view .LVU1009
 3486 0004 0DF10602 		add	r2, sp, #6
 3487 0008 FFF7FEFF 		bl	pbuf_skip_const
 3488              	.LVL358:
1393:Middlewares/Third_Party/LwIP/src/core/pbuf.c **** 
1394:Middlewares/Third_Party/LwIP/src/core/pbuf.c ****   /* return requested data if pbuf is OK */
1395:Middlewares/Third_Party/LwIP/src/core/pbuf.c ****   if ((q != NULL) && (q->len > q_idx)) {
 3489              		.loc 1 1395 3 is_stmt 1 view .LVU1010
 3490              		.loc 1 1395 6 is_stmt 0 view .LVU1011
 3491 000c 48B1     		cbz	r0, .L263
 3492              		.loc 1 1395 24 discriminator 1 view .LVU1012
 3493 000e 4189     		ldrh	r1, [r0, #10]
 3494              		.loc 1 1395 30 discriminator 1 view .LVU1013
 3495 0010 BDF80620 		ldrh	r2, [sp, #6]
 3496              		.loc 1 1395 19 discriminator 1 view .LVU1014
 3497 0014 9142     		cmp	r1, r2
 3498 0016 07D9     		bls	.L264
1396:Middlewares/Third_Party/LwIP/src/core/pbuf.c ****     return ((u8_t *)q->payload)[q_idx];
 3499              		.loc 1 1396 5 is_stmt 1 view .LVU1015
 3500              		.loc 1 1396 22 is_stmt 0 view .LVU1016
 3501 0018 4368     		ldr	r3, [r0, #4]
 3502              		.loc 1 1396 32 view .LVU1017
 3503 001a 985C     		ldrb	r0, [r3, r2]	@ zero_extendqisi2
 3504              	.LVL359:
 3505              	.L261:
1397:Middlewares/Third_Party/LwIP/src/core/pbuf.c ****   }
1398:Middlewares/Third_Party/LwIP/src/core/pbuf.c ****   return -1;
1399:Middlewares/Third_Party/LwIP/src/core/pbuf.c **** }
 3506              		.loc 1 1399 1 view .LVU1018
 3507 001c 03B0     		add	sp, sp, #12
 3508              	.LCFI46:
 3509              		.cfi_remember_state
 3510              		.cfi_def_cfa_offset 4
 3511              		@ sp needed
 3512 001e 5DF804FB 		ldr	pc, [sp], #4
 3513              	.LVL360:
 3514              	.L263:
 3515              	.LCFI47:
 3516              		.cfi_restore_state
1398:Middlewares/Third_Party/LwIP/src/core/pbuf.c **** }
 3517              		.loc 1 1398 10 view .LVU1019
ARM GAS  /var/folders/bg/n1lwdyp56391g865_v8nrmhm0000gn/T//cc4exhWb.s 			page 104


 3518 0022 4FF0FF30 		mov	r0, #-1
 3519              	.LVL361:
1398:Middlewares/Third_Party/LwIP/src/core/pbuf.c **** }
 3520              		.loc 1 1398 10 view .LVU1020
 3521 0026 F9E7     		b	.L261
 3522              	.LVL362:
 3523              	.L264:
1398:Middlewares/Third_Party/LwIP/src/core/pbuf.c **** }
 3524              		.loc 1 1398 10 view .LVU1021
 3525 0028 4FF0FF30 		mov	r0, #-1
 3526              	.LVL363:
1398:Middlewares/Third_Party/LwIP/src/core/pbuf.c **** }
 3527              		.loc 1 1398 10 view .LVU1022
 3528 002c F6E7     		b	.L261
 3529              		.cfi_endproc
 3530              	.LFE198:
 3532              		.section	.text.pbuf_get_at,"ax",%progbits
 3533              		.align	1
 3534              		.global	pbuf_get_at
 3535              		.syntax unified
 3536              		.thumb
 3537              		.thumb_func
 3538              		.fpu fpv5-d16
 3540              	pbuf_get_at:
 3541              	.LVL364:
 3542              	.LFB197:
1372:Middlewares/Third_Party/LwIP/src/core/pbuf.c ****   int ret = pbuf_try_get_at(p, offset);
 3543              		.loc 1 1372 1 is_stmt 1 view -0
 3544              		.cfi_startproc
 3545              		@ args = 0, pretend = 0, frame = 0
 3546              		@ frame_needed = 0, uses_anonymous_args = 0
1372:Middlewares/Third_Party/LwIP/src/core/pbuf.c ****   int ret = pbuf_try_get_at(p, offset);
 3547              		.loc 1 1372 1 is_stmt 0 view .LVU1024
 3548 0000 08B5     		push	{r3, lr}
 3549              	.LCFI48:
 3550              		.cfi_def_cfa_offset 8
 3551              		.cfi_offset 3, -8
 3552              		.cfi_offset 14, -4
1373:Middlewares/Third_Party/LwIP/src/core/pbuf.c ****   if (ret >= 0) {
 3553              		.loc 1 1373 3 is_stmt 1 view .LVU1025
1373:Middlewares/Third_Party/LwIP/src/core/pbuf.c ****   if (ret >= 0) {
 3554              		.loc 1 1373 13 is_stmt 0 view .LVU1026
 3555 0002 FFF7FEFF 		bl	pbuf_try_get_at
 3556              	.LVL365:
1374:Middlewares/Third_Party/LwIP/src/core/pbuf.c ****     return (u8_t)ret;
 3557              		.loc 1 1374 3 is_stmt 1 view .LVU1027
1374:Middlewares/Third_Party/LwIP/src/core/pbuf.c ****     return (u8_t)ret;
 3558              		.loc 1 1374 6 is_stmt 0 view .LVU1028
 3559 0006 0028     		cmp	r0, #0
1374:Middlewares/Third_Party/LwIP/src/core/pbuf.c ****     return (u8_t)ret;
 3560              		.loc 1 1374 6 view .LVU1029
 3561 0008 01DA     		bge	.L270
1377:Middlewares/Third_Party/LwIP/src/core/pbuf.c **** }
 3562              		.loc 1 1377 10 view .LVU1030
 3563 000a 0020     		movs	r0, #0
 3564              	.LVL366:
 3565              	.L267:
ARM GAS  /var/folders/bg/n1lwdyp56391g865_v8nrmhm0000gn/T//cc4exhWb.s 			page 105


1378:Middlewares/Third_Party/LwIP/src/core/pbuf.c **** 
 3566              		.loc 1 1378 1 view .LVU1031
 3567 000c 08BD     		pop	{r3, pc}
 3568              	.LVL367:
 3569              	.L270:
1375:Middlewares/Third_Party/LwIP/src/core/pbuf.c ****   }
 3570              		.loc 1 1375 5 is_stmt 1 view .LVU1032
1375:Middlewares/Third_Party/LwIP/src/core/pbuf.c ****   }
 3571              		.loc 1 1375 12 is_stmt 0 view .LVU1033
 3572 000e C0B2     		uxtb	r0, r0
 3573              	.LVL368:
1375:Middlewares/Third_Party/LwIP/src/core/pbuf.c ****   }
 3574              		.loc 1 1375 12 view .LVU1034
 3575 0010 FCE7     		b	.L267
 3576              		.cfi_endproc
 3577              	.LFE197:
 3579              		.section	.text.pbuf_put_at,"ax",%progbits
 3580              		.align	1
 3581              		.global	pbuf_put_at
 3582              		.syntax unified
 3583              		.thumb
 3584              		.thumb_func
 3585              		.fpu fpv5-d16
 3587              	pbuf_put_at:
 3588              	.LVL369:
 3589              	.LFB199:
1400:Middlewares/Third_Party/LwIP/src/core/pbuf.c **** 
1401:Middlewares/Third_Party/LwIP/src/core/pbuf.c **** /**
1402:Middlewares/Third_Party/LwIP/src/core/pbuf.c ****  * @ingroup pbuf
1403:Middlewares/Third_Party/LwIP/src/core/pbuf.c ****  * Put one byte to the specified position in a pbuf
1404:Middlewares/Third_Party/LwIP/src/core/pbuf.c ****  * WARNING: silently ignores offset >= p->tot_len
1405:Middlewares/Third_Party/LwIP/src/core/pbuf.c ****  *
1406:Middlewares/Third_Party/LwIP/src/core/pbuf.c ****  * @param p pbuf to fill
1407:Middlewares/Third_Party/LwIP/src/core/pbuf.c ****  * @param offset offset into p of the byte to write
1408:Middlewares/Third_Party/LwIP/src/core/pbuf.c ****  * @param data byte to write at an offset into p
1409:Middlewares/Third_Party/LwIP/src/core/pbuf.c ****  */
1410:Middlewares/Third_Party/LwIP/src/core/pbuf.c **** void
1411:Middlewares/Third_Party/LwIP/src/core/pbuf.c **** pbuf_put_at(struct pbuf *p, u16_t offset, u8_t data)
1412:Middlewares/Third_Party/LwIP/src/core/pbuf.c **** {
 3590              		.loc 1 1412 1 is_stmt 1 view -0
 3591              		.cfi_startproc
 3592              		@ args = 0, pretend = 0, frame = 8
 3593              		@ frame_needed = 0, uses_anonymous_args = 0
 3594              		.loc 1 1412 1 is_stmt 0 view .LVU1036
 3595 0000 10B5     		push	{r4, lr}
 3596              	.LCFI49:
 3597              		.cfi_def_cfa_offset 8
 3598              		.cfi_offset 4, -8
 3599              		.cfi_offset 14, -4
 3600 0002 82B0     		sub	sp, sp, #8
 3601              	.LCFI50:
 3602              		.cfi_def_cfa_offset 16
 3603 0004 1446     		mov	r4, r2
1413:Middlewares/Third_Party/LwIP/src/core/pbuf.c ****   u16_t q_idx;
 3604              		.loc 1 1413 3 is_stmt 1 view .LVU1037
1414:Middlewares/Third_Party/LwIP/src/core/pbuf.c ****   struct pbuf *q = pbuf_skip(p, offset, &q_idx);
 3605              		.loc 1 1414 3 view .LVU1038
ARM GAS  /var/folders/bg/n1lwdyp56391g865_v8nrmhm0000gn/T//cc4exhWb.s 			page 106


 3606              		.loc 1 1414 20 is_stmt 0 view .LVU1039
 3607 0006 0DF10602 		add	r2, sp, #6
 3608              	.LVL370:
 3609              		.loc 1 1414 20 view .LVU1040
 3610 000a FFF7FEFF 		bl	pbuf_skip
 3611              	.LVL371:
1415:Middlewares/Third_Party/LwIP/src/core/pbuf.c **** 
1416:Middlewares/Third_Party/LwIP/src/core/pbuf.c ****   /* write requested data if pbuf is OK */
1417:Middlewares/Third_Party/LwIP/src/core/pbuf.c ****   if ((q != NULL) && (q->len > q_idx)) {
 3612              		.loc 1 1417 3 is_stmt 1 view .LVU1041
 3613              		.loc 1 1417 6 is_stmt 0 view .LVU1042
 3614 000e 30B1     		cbz	r0, .L271
 3615              		.loc 1 1417 24 discriminator 1 view .LVU1043
 3616 0010 4189     		ldrh	r1, [r0, #10]
 3617              		.loc 1 1417 30 discriminator 1 view .LVU1044
 3618 0012 BDF80620 		ldrh	r2, [sp, #6]
 3619              		.loc 1 1417 19 discriminator 1 view .LVU1045
 3620 0016 9142     		cmp	r1, r2
 3621 0018 01D9     		bls	.L271
1418:Middlewares/Third_Party/LwIP/src/core/pbuf.c ****     ((u8_t *)q->payload)[q_idx] = data;
 3622              		.loc 1 1418 5 is_stmt 1 view .LVU1046
 3623              		.loc 1 1418 15 is_stmt 0 view .LVU1047
 3624 001a 4368     		ldr	r3, [r0, #4]
 3625              		.loc 1 1418 33 view .LVU1048
 3626 001c 9C54     		strb	r4, [r3, r2]
 3627              	.L271:
1419:Middlewares/Third_Party/LwIP/src/core/pbuf.c ****   }
1420:Middlewares/Third_Party/LwIP/src/core/pbuf.c **** }
 3628              		.loc 1 1420 1 view .LVU1049
 3629 001e 02B0     		add	sp, sp, #8
 3630              	.LCFI51:
 3631              		.cfi_def_cfa_offset 8
 3632              		@ sp needed
 3633 0020 10BD     		pop	{r4, pc}
 3634              		.cfi_endproc
 3635              	.LFE199:
 3637              		.section	.text.pbuf_memcmp,"ax",%progbits
 3638              		.align	1
 3639              		.global	pbuf_memcmp
 3640              		.syntax unified
 3641              		.thumb
 3642              		.thumb_func
 3643              		.fpu fpv5-d16
 3645              	pbuf_memcmp:
 3646              	.LVL372:
 3647              	.LFB200:
1421:Middlewares/Third_Party/LwIP/src/core/pbuf.c **** 
1422:Middlewares/Third_Party/LwIP/src/core/pbuf.c **** /**
1423:Middlewares/Third_Party/LwIP/src/core/pbuf.c ****  * @ingroup pbuf
1424:Middlewares/Third_Party/LwIP/src/core/pbuf.c ****  * Compare pbuf contents at specified offset with memory s2, both of length n
1425:Middlewares/Third_Party/LwIP/src/core/pbuf.c ****  *
1426:Middlewares/Third_Party/LwIP/src/core/pbuf.c ****  * @param p pbuf to compare
1427:Middlewares/Third_Party/LwIP/src/core/pbuf.c ****  * @param offset offset into p at which to start comparing
1428:Middlewares/Third_Party/LwIP/src/core/pbuf.c ****  * @param s2 buffer to compare
1429:Middlewares/Third_Party/LwIP/src/core/pbuf.c ****  * @param n length of buffer to compare
1430:Middlewares/Third_Party/LwIP/src/core/pbuf.c ****  * @return zero if equal, nonzero otherwise
1431:Middlewares/Third_Party/LwIP/src/core/pbuf.c ****  *         (0xffff if p is too short, diffoffset+1 otherwise)
ARM GAS  /var/folders/bg/n1lwdyp56391g865_v8nrmhm0000gn/T//cc4exhWb.s 			page 107


1432:Middlewares/Third_Party/LwIP/src/core/pbuf.c ****  */
1433:Middlewares/Third_Party/LwIP/src/core/pbuf.c **** u16_t
1434:Middlewares/Third_Party/LwIP/src/core/pbuf.c **** pbuf_memcmp(const struct pbuf *p, u16_t offset, const void *s2, u16_t n)
1435:Middlewares/Third_Party/LwIP/src/core/pbuf.c **** {
 3648              		.loc 1 1435 1 is_stmt 1 view -0
 3649              		.cfi_startproc
 3650              		@ args = 0, pretend = 0, frame = 0
 3651              		@ frame_needed = 0, uses_anonymous_args = 0
 3652              		.loc 1 1435 1 is_stmt 0 view .LVU1051
 3653 0000 2DE9F041 		push	{r4, r5, r6, r7, r8, lr}
 3654              	.LCFI52:
 3655              		.cfi_def_cfa_offset 24
 3656              		.cfi_offset 4, -24
 3657              		.cfi_offset 5, -20
 3658              		.cfi_offset 6, -16
 3659              		.cfi_offset 7, -12
 3660              		.cfi_offset 8, -8
 3661              		.cfi_offset 14, -4
 3662 0004 0546     		mov	r5, r0
 3663 0006 0E46     		mov	r6, r1
 3664 0008 9046     		mov	r8, r2
 3665 000a 1F46     		mov	r7, r3
1436:Middlewares/Third_Party/LwIP/src/core/pbuf.c ****   u16_t start = offset;
 3666              		.loc 1 1436 3 is_stmt 1 view .LVU1052
 3667              	.LVL373:
1437:Middlewares/Third_Party/LwIP/src/core/pbuf.c ****   const struct pbuf *q = p;
 3668              		.loc 1 1437 3 view .LVU1053
1438:Middlewares/Third_Party/LwIP/src/core/pbuf.c ****   u16_t i;
 3669              		.loc 1 1438 3 view .LVU1054
1439:Middlewares/Third_Party/LwIP/src/core/pbuf.c **** 
1440:Middlewares/Third_Party/LwIP/src/core/pbuf.c ****   /* pbuf long enough to perform check? */
1441:Middlewares/Third_Party/LwIP/src/core/pbuf.c ****   if (p->tot_len < (offset + n)) {
 3670              		.loc 1 1441 3 view .LVU1055
 3671              		.loc 1 1441 8 is_stmt 0 view .LVU1056
 3672 000c 0289     		ldrh	r2, [r0, #8]
 3673              	.LVL374:
 3674              		.loc 1 1441 28 view .LVU1057
 3675 000e CB18     		adds	r3, r1, r3
 3676              	.LVL375:
 3677              		.loc 1 1441 6 view .LVU1058
 3678 0010 9A42     		cmp	r2, r3
 3679 0012 05DA     		bge	.L276
1442:Middlewares/Third_Party/LwIP/src/core/pbuf.c ****     return 0xffff;
 3680              		.loc 1 1442 12 view .LVU1059
 3681 0014 4FF6FF70 		movw	r0, #65535
 3682              	.LVL376:
 3683              		.loc 1 1442 12 view .LVU1060
 3684 0018 20E0     		b	.L275
 3685              	.LVL377:
 3686              	.L278:
1443:Middlewares/Third_Party/LwIP/src/core/pbuf.c ****   }
1444:Middlewares/Third_Party/LwIP/src/core/pbuf.c **** 
1445:Middlewares/Third_Party/LwIP/src/core/pbuf.c ****   /* get the correct pbuf from chain. We know it succeeds because of p->tot_len check above. */
1446:Middlewares/Third_Party/LwIP/src/core/pbuf.c ****   while ((q != NULL) && (q->len <= start)) {
1447:Middlewares/Third_Party/LwIP/src/core/pbuf.c ****     start = (u16_t)(start - q->len);
 3687              		.loc 1 1447 5 is_stmt 1 view .LVU1061
 3688              		.loc 1 1447 11 is_stmt 0 view .LVU1062
ARM GAS  /var/folders/bg/n1lwdyp56391g865_v8nrmhm0000gn/T//cc4exhWb.s 			page 108


 3689 001a 301A     		subs	r0, r6, r0
 3690 001c 86B2     		uxth	r6, r0
 3691              	.LVL378:
1448:Middlewares/Third_Party/LwIP/src/core/pbuf.c ****     q = q->next;
 3692              		.loc 1 1448 5 is_stmt 1 view .LVU1063
 3693              		.loc 1 1448 7 is_stmt 0 view .LVU1064
 3694 001e 2D68     		ldr	r5, [r5]
 3695              	.LVL379:
 3696              	.L276:
1446:Middlewares/Third_Party/LwIP/src/core/pbuf.c ****     start = (u16_t)(start - q->len);
 3697              		.loc 1 1446 9 is_stmt 1 view .LVU1065
 3698 0020 65B1     		cbz	r5, .L283
1446:Middlewares/Third_Party/LwIP/src/core/pbuf.c ****     start = (u16_t)(start - q->len);
 3699              		.loc 1 1446 27 is_stmt 0 discriminator 1 view .LVU1066
 3700 0022 6889     		ldrh	r0, [r5, #10]
1446:Middlewares/Third_Party/LwIP/src/core/pbuf.c ****     start = (u16_t)(start - q->len);
 3701              		.loc 1 1446 22 discriminator 1 view .LVU1067
 3702 0024 B042     		cmp	r0, r6
 3703 0026 F8D9     		bls	.L278
 3704 0028 0024     		movs	r4, #0
 3705 002a 08E0     		b	.L280
 3706              	.LVL380:
 3707              	.L286:
 3708              	.LBB15:
1449:Middlewares/Third_Party/LwIP/src/core/pbuf.c ****   }
1450:Middlewares/Third_Party/LwIP/src/core/pbuf.c **** 
1451:Middlewares/Third_Party/LwIP/src/core/pbuf.c ****   /* return requested data if pbuf is OK */
1452:Middlewares/Third_Party/LwIP/src/core/pbuf.c ****   for (i = 0; i < n; i++) {
1453:Middlewares/Third_Party/LwIP/src/core/pbuf.c ****     /* We know pbuf_get_at() succeeds because of p->tot_len check above. */
1454:Middlewares/Third_Party/LwIP/src/core/pbuf.c ****     u8_t a = pbuf_get_at(q, (u16_t)(start + i));
1455:Middlewares/Third_Party/LwIP/src/core/pbuf.c ****     u8_t b = ((const u8_t *)s2)[i];
1456:Middlewares/Third_Party/LwIP/src/core/pbuf.c ****     if (a != b) {
1457:Middlewares/Third_Party/LwIP/src/core/pbuf.c ****       return (u16_t)LWIP_MIN(i + 1, 0xFFFF);
 3709              		.loc 1 1457 7 is_stmt 1 view .LVU1068
 3710              		.loc 1 1457 14 is_stmt 0 view .LVU1069
 3711 002c 4FF6FE70 		movw	r0, #65534
 3712              	.LVL381:
 3713              		.loc 1 1457 14 view .LVU1070
 3714 0030 8442     		cmp	r4, r0
 3715 0032 28BF     		it	cs
 3716 0034 0446     		movcs	r4, r0
 3717              	.LVL382:
 3718              		.loc 1 1457 14 view .LVU1071
 3719 0036 601C     		adds	r0, r4, #1
 3720 0038 80B2     		uxth	r0, r0
 3721 003a 0FE0     		b	.L275
 3722              	.LVL383:
 3723              	.L283:
 3724              		.loc 1 1457 14 view .LVU1072
 3725              	.LBE15:
 3726 003c 0024     		movs	r4, #0
 3727              	.LVL384:
 3728              	.L280:
1452:Middlewares/Third_Party/LwIP/src/core/pbuf.c ****     /* We know pbuf_get_at() succeeds because of p->tot_len check above. */
 3729              		.loc 1 1452 15 is_stmt 1 discriminator 1 view .LVU1073
1452:Middlewares/Third_Party/LwIP/src/core/pbuf.c ****     /* We know pbuf_get_at() succeeds because of p->tot_len check above. */
 3730              		.loc 1 1452 3 is_stmt 0 discriminator 1 view .LVU1074
ARM GAS  /var/folders/bg/n1lwdyp56391g865_v8nrmhm0000gn/T//cc4exhWb.s 			page 109


 3731 003e BC42     		cmp	r4, r7
 3732 0040 0BD2     		bcs	.L285
 3733              	.LBB16:
1454:Middlewares/Third_Party/LwIP/src/core/pbuf.c ****     u8_t b = ((const u8_t *)s2)[i];
 3734              		.loc 1 1454 5 is_stmt 1 view .LVU1075
1454:Middlewares/Third_Party/LwIP/src/core/pbuf.c ****     u8_t b = ((const u8_t *)s2)[i];
 3735              		.loc 1 1454 14 is_stmt 0 view .LVU1076
 3736 0042 3119     		adds	r1, r6, r4
 3737 0044 89B2     		uxth	r1, r1
 3738 0046 2846     		mov	r0, r5
 3739 0048 FFF7FEFF 		bl	pbuf_get_at
 3740              	.LVL385:
1455:Middlewares/Third_Party/LwIP/src/core/pbuf.c ****     if (a != b) {
 3741              		.loc 1 1455 5 is_stmt 1 view .LVU1077
1455:Middlewares/Third_Party/LwIP/src/core/pbuf.c ****     if (a != b) {
 3742              		.loc 1 1455 10 is_stmt 0 view .LVU1078
 3743 004c 18F80410 		ldrb	r1, [r8, r4]	@ zero_extendqisi2
 3744              	.LVL386:
1456:Middlewares/Third_Party/LwIP/src/core/pbuf.c ****       return (u16_t)LWIP_MIN(i + 1, 0xFFFF);
 3745              		.loc 1 1456 5 is_stmt 1 view .LVU1079
1456:Middlewares/Third_Party/LwIP/src/core/pbuf.c ****       return (u16_t)LWIP_MIN(i + 1, 0xFFFF);
 3746              		.loc 1 1456 8 is_stmt 0 view .LVU1080
 3747 0050 8842     		cmp	r0, r1
 3748 0052 EBD1     		bne	.L286
 3749              	.LBE16:
1452:Middlewares/Third_Party/LwIP/src/core/pbuf.c ****     /* We know pbuf_get_at() succeeds because of p->tot_len check above. */
 3750              		.loc 1 1452 22 is_stmt 1 discriminator 2 view .LVU1081
1452:Middlewares/Third_Party/LwIP/src/core/pbuf.c ****     /* We know pbuf_get_at() succeeds because of p->tot_len check above. */
 3751              		.loc 1 1452 23 is_stmt 0 discriminator 2 view .LVU1082
 3752 0054 0134     		adds	r4, r4, #1
 3753              	.LVL387:
1452:Middlewares/Third_Party/LwIP/src/core/pbuf.c ****     /* We know pbuf_get_at() succeeds because of p->tot_len check above. */
 3754              		.loc 1 1452 23 discriminator 2 view .LVU1083
 3755 0056 A4B2     		uxth	r4, r4
 3756              	.LVL388:
1452:Middlewares/Third_Party/LwIP/src/core/pbuf.c ****     /* We know pbuf_get_at() succeeds because of p->tot_len check above. */
 3757              		.loc 1 1452 23 discriminator 2 view .LVU1084
 3758 0058 F1E7     		b	.L280
 3759              	.LVL389:
 3760              	.L285:
1458:Middlewares/Third_Party/LwIP/src/core/pbuf.c ****     }
1459:Middlewares/Third_Party/LwIP/src/core/pbuf.c ****   }
1460:Middlewares/Third_Party/LwIP/src/core/pbuf.c ****   return 0;
 3761              		.loc 1 1460 10 view .LVU1085
 3762 005a 0020     		movs	r0, #0
 3763              	.LVL390:
 3764              	.L275:
1461:Middlewares/Third_Party/LwIP/src/core/pbuf.c **** }
 3765              		.loc 1 1461 1 view .LVU1086
 3766 005c BDE8F081 		pop	{r4, r5, r6, r7, r8, pc}
 3767              		.loc 1 1461 1 view .LVU1087
 3768              		.cfi_endproc
 3769              	.LFE200:
 3771              		.section	.text.pbuf_memfind,"ax",%progbits
 3772              		.align	1
 3773              		.global	pbuf_memfind
 3774              		.syntax unified
ARM GAS  /var/folders/bg/n1lwdyp56391g865_v8nrmhm0000gn/T//cc4exhWb.s 			page 110


 3775              		.thumb
 3776              		.thumb_func
 3777              		.fpu fpv5-d16
 3779              	pbuf_memfind:
 3780              	.LVL391:
 3781              	.LFB201:
1462:Middlewares/Third_Party/LwIP/src/core/pbuf.c **** 
1463:Middlewares/Third_Party/LwIP/src/core/pbuf.c **** /**
1464:Middlewares/Third_Party/LwIP/src/core/pbuf.c ****  * @ingroup pbuf
1465:Middlewares/Third_Party/LwIP/src/core/pbuf.c ****  * Find occurrence of mem (with length mem_len) in pbuf p, starting at offset
1466:Middlewares/Third_Party/LwIP/src/core/pbuf.c ****  * start_offset.
1467:Middlewares/Third_Party/LwIP/src/core/pbuf.c ****  *
1468:Middlewares/Third_Party/LwIP/src/core/pbuf.c ****  * @param p pbuf to search, maximum length is 0xFFFE since 0xFFFF is used as
1469:Middlewares/Third_Party/LwIP/src/core/pbuf.c ****  *        return value 'not found'
1470:Middlewares/Third_Party/LwIP/src/core/pbuf.c ****  * @param mem search for the contents of this buffer
1471:Middlewares/Third_Party/LwIP/src/core/pbuf.c ****  * @param mem_len length of 'mem'
1472:Middlewares/Third_Party/LwIP/src/core/pbuf.c ****  * @param start_offset offset into p at which to start searching
1473:Middlewares/Third_Party/LwIP/src/core/pbuf.c ****  * @return 0xFFFF if substr was not found in p or the index where it was found
1474:Middlewares/Third_Party/LwIP/src/core/pbuf.c ****  */
1475:Middlewares/Third_Party/LwIP/src/core/pbuf.c **** u16_t
1476:Middlewares/Third_Party/LwIP/src/core/pbuf.c **** pbuf_memfind(const struct pbuf *p, const void *mem, u16_t mem_len, u16_t start_offset)
1477:Middlewares/Third_Party/LwIP/src/core/pbuf.c **** {
 3782              		.loc 1 1477 1 is_stmt 1 view -0
 3783              		.cfi_startproc
 3784              		@ args = 0, pretend = 0, frame = 0
 3785              		@ frame_needed = 0, uses_anonymous_args = 0
 3786              		.loc 1 1477 1 is_stmt 0 view .LVU1089
 3787 0000 2DE9F041 		push	{r4, r5, r6, r7, r8, lr}
 3788              	.LCFI53:
 3789              		.cfi_def_cfa_offset 24
 3790              		.cfi_offset 4, -24
 3791              		.cfi_offset 5, -20
 3792              		.cfi_offset 6, -16
 3793              		.cfi_offset 7, -12
 3794              		.cfi_offset 8, -8
 3795              		.cfi_offset 14, -4
 3796 0004 0646     		mov	r6, r0
 3797 0006 8846     		mov	r8, r1
 3798 0008 1546     		mov	r5, r2
 3799 000a 1C46     		mov	r4, r3
1478:Middlewares/Third_Party/LwIP/src/core/pbuf.c ****   u16_t i;
 3800              		.loc 1 1478 3 is_stmt 1 view .LVU1090
1479:Middlewares/Third_Party/LwIP/src/core/pbuf.c ****   u16_t max_cmp_start = (u16_t)(p->tot_len - mem_len);
 3801              		.loc 1 1479 3 view .LVU1091
 3802              		.loc 1 1479 34 is_stmt 0 view .LVU1092
 3803 000c 0389     		ldrh	r3, [r0, #8]
 3804              	.LVL392:
 3805              		.loc 1 1479 9 view .LVU1093
 3806 000e 9F1A     		subs	r7, r3, r2
 3807 0010 BFB2     		uxth	r7, r7
 3808              	.LVL393:
1480:Middlewares/Third_Party/LwIP/src/core/pbuf.c ****   if (p->tot_len >= mem_len + start_offset) {
 3809              		.loc 1 1480 3 is_stmt 1 view .LVU1094
 3810              		.loc 1 1480 29 is_stmt 0 view .LVU1095
 3811 0012 2244     		add	r2, r2, r4
 3812              	.LVL394:
 3813              		.loc 1 1480 6 view .LVU1096
ARM GAS  /var/folders/bg/n1lwdyp56391g865_v8nrmhm0000gn/T//cc4exhWb.s 			page 111


 3814 0014 9342     		cmp	r3, r2
 3815 0016 0BDB     		blt	.L293
 3816              	.LVL395:
 3817              	.L288:
1481:Middlewares/Third_Party/LwIP/src/core/pbuf.c ****     for (i = start_offset; i <= max_cmp_start; i++) {
 3818              		.loc 1 1481 28 is_stmt 1 discriminator 1 view .LVU1097
 3819              		.loc 1 1481 5 is_stmt 0 discriminator 1 view .LVU1098
 3820 0018 BC42     		cmp	r4, r7
 3821 001a 0DD8     		bhi	.L294
 3822              	.LBB17:
1482:Middlewares/Third_Party/LwIP/src/core/pbuf.c ****       u16_t plus = pbuf_memcmp(p, i, mem, mem_len);
 3823              		.loc 1 1482 7 is_stmt 1 view .LVU1099
 3824              		.loc 1 1482 20 is_stmt 0 view .LVU1100
 3825 001c 2B46     		mov	r3, r5
 3826 001e 4246     		mov	r2, r8
 3827 0020 2146     		mov	r1, r4
 3828 0022 3046     		mov	r0, r6
 3829 0024 FFF7FEFF 		bl	pbuf_memcmp
 3830              	.LVL396:
1483:Middlewares/Third_Party/LwIP/src/core/pbuf.c ****       if (plus == 0) {
 3831              		.loc 1 1483 7 is_stmt 1 view .LVU1101
 3832              		.loc 1 1483 10 is_stmt 0 view .LVU1102
 3833 0028 48B1     		cbz	r0, .L291
 3834              	.LBE17:
1481:Middlewares/Third_Party/LwIP/src/core/pbuf.c ****     for (i = start_offset; i <= max_cmp_start; i++) {
 3835              		.loc 1 1481 48 is_stmt 1 discriminator 2 view .LVU1103
1481:Middlewares/Third_Party/LwIP/src/core/pbuf.c ****     for (i = start_offset; i <= max_cmp_start; i++) {
 3836              		.loc 1 1481 49 is_stmt 0 discriminator 2 view .LVU1104
 3837 002a 0134     		adds	r4, r4, #1
 3838              	.LVL397:
1481:Middlewares/Third_Party/LwIP/src/core/pbuf.c ****     for (i = start_offset; i <= max_cmp_start; i++) {
 3839              		.loc 1 1481 49 discriminator 2 view .LVU1105
 3840 002c A4B2     		uxth	r4, r4
 3841              	.LVL398:
1481:Middlewares/Third_Party/LwIP/src/core/pbuf.c ****     for (i = start_offset; i <= max_cmp_start; i++) {
 3842              		.loc 1 1481 49 discriminator 2 view .LVU1106
 3843 002e F3E7     		b	.L288
 3844              	.LVL399:
 3845              	.L293:
1484:Middlewares/Third_Party/LwIP/src/core/pbuf.c ****         return i;
1485:Middlewares/Third_Party/LwIP/src/core/pbuf.c ****       }
1486:Middlewares/Third_Party/LwIP/src/core/pbuf.c ****     }
1487:Middlewares/Third_Party/LwIP/src/core/pbuf.c ****   }
1488:Middlewares/Third_Party/LwIP/src/core/pbuf.c ****   return 0xFFFF;
 3846              		.loc 1 1488 10 view .LVU1107
 3847 0030 4FF6FF70 		movw	r0, #65535
 3848              	.LVL400:
 3849              	.L289:
1489:Middlewares/Third_Party/LwIP/src/core/pbuf.c **** }
 3850              		.loc 1 1489 1 view .LVU1108
 3851 0034 BDE8F081 		pop	{r4, r5, r6, r7, r8, pc}
 3852              	.LVL401:
 3853              	.L294:
1488:Middlewares/Third_Party/LwIP/src/core/pbuf.c **** }
 3854              		.loc 1 1488 10 view .LVU1109
 3855 0038 4FF6FF70 		movw	r0, #65535
 3856 003c FAE7     		b	.L289
ARM GAS  /var/folders/bg/n1lwdyp56391g865_v8nrmhm0000gn/T//cc4exhWb.s 			page 112


 3857              	.LVL402:
 3858              	.L291:
 3859              	.LBB18:
1484:Middlewares/Third_Party/LwIP/src/core/pbuf.c ****         return i;
 3860              		.loc 1 1484 16 view .LVU1110
 3861 003e 2046     		mov	r0, r4
 3862              	.LVL403:
1484:Middlewares/Third_Party/LwIP/src/core/pbuf.c ****         return i;
 3863              		.loc 1 1484 16 view .LVU1111
 3864 0040 F8E7     		b	.L289
 3865              	.LBE18:
 3866              		.cfi_endproc
 3867              	.LFE201:
 3869              		.section	.text.pbuf_strstr,"ax",%progbits
 3870              		.align	1
 3871              		.global	pbuf_strstr
 3872              		.syntax unified
 3873              		.thumb
 3874              		.thumb_func
 3875              		.fpu fpv5-d16
 3877              	pbuf_strstr:
 3878              	.LVL404:
 3879              	.LFB202:
1490:Middlewares/Third_Party/LwIP/src/core/pbuf.c **** 
1491:Middlewares/Third_Party/LwIP/src/core/pbuf.c **** /**
1492:Middlewares/Third_Party/LwIP/src/core/pbuf.c ****  * Find occurrence of substr with length substr_len in pbuf p, start at offset
1493:Middlewares/Third_Party/LwIP/src/core/pbuf.c ****  * start_offset
1494:Middlewares/Third_Party/LwIP/src/core/pbuf.c ****  * WARNING: in contrast to strstr(), this one does not stop at the first \0 in
1495:Middlewares/Third_Party/LwIP/src/core/pbuf.c ****  * the pbuf/source string!
1496:Middlewares/Third_Party/LwIP/src/core/pbuf.c ****  *
1497:Middlewares/Third_Party/LwIP/src/core/pbuf.c ****  * @param p pbuf to search, maximum length is 0xFFFE since 0xFFFF is used as
1498:Middlewares/Third_Party/LwIP/src/core/pbuf.c ****  *        return value 'not found'
1499:Middlewares/Third_Party/LwIP/src/core/pbuf.c ****  * @param substr string to search for in p, maximum length is 0xFFFE
1500:Middlewares/Third_Party/LwIP/src/core/pbuf.c ****  * @return 0xFFFF if substr was not found in p or the index where it was found
1501:Middlewares/Third_Party/LwIP/src/core/pbuf.c ****  */
1502:Middlewares/Third_Party/LwIP/src/core/pbuf.c **** u16_t
1503:Middlewares/Third_Party/LwIP/src/core/pbuf.c **** pbuf_strstr(const struct pbuf *p, const char *substr)
1504:Middlewares/Third_Party/LwIP/src/core/pbuf.c **** {
 3880              		.loc 1 1504 1 is_stmt 1 view -0
 3881              		.cfi_startproc
 3882              		@ args = 0, pretend = 0, frame = 0
 3883              		@ frame_needed = 0, uses_anonymous_args = 0
1505:Middlewares/Third_Party/LwIP/src/core/pbuf.c ****   size_t substr_len;
 3884              		.loc 1 1505 3 view .LVU1113
1506:Middlewares/Third_Party/LwIP/src/core/pbuf.c ****   if ((substr == NULL) || (substr[0] == 0) || (p->tot_len == 0xFFFF)) {
 3885              		.loc 1 1506 3 view .LVU1114
 3886              		.loc 1 1506 6 is_stmt 0 view .LVU1115
 3887 0000 B9B1     		cbz	r1, .L297
1504:Middlewares/Third_Party/LwIP/src/core/pbuf.c ****   size_t substr_len;
 3888              		.loc 1 1504 1 discriminator 1 view .LVU1116
 3889 0002 38B5     		push	{r3, r4, r5, lr}
 3890              	.LCFI54:
 3891              		.cfi_def_cfa_offset 16
 3892              		.cfi_offset 3, -16
 3893              		.cfi_offset 4, -12
 3894              		.cfi_offset 5, -8
 3895              		.cfi_offset 14, -4
ARM GAS  /var/folders/bg/n1lwdyp56391g865_v8nrmhm0000gn/T//cc4exhWb.s 			page 113


 3896 0004 0446     		mov	r4, r0
 3897 0006 0D46     		mov	r5, r1
 3898              		.loc 1 1506 34 discriminator 1 view .LVU1117
 3899 0008 0B78     		ldrb	r3, [r1]	@ zero_extendqisi2
 3900              		.loc 1 1506 24 discriminator 1 view .LVU1118
 3901 000a ABB1     		cbz	r3, .L298
 3902              		.loc 1 1506 49 discriminator 2 view .LVU1119
 3903 000c 0089     		ldrh	r0, [r0, #8]
 3904              	.LVL405:
 3905              		.loc 1 1506 44 discriminator 2 view .LVU1120
 3906 000e 4FF6FF73 		movw	r3, #65535
 3907 0012 9842     		cmp	r0, r3
 3908 0014 0CD0     		beq	.L296
1507:Middlewares/Third_Party/LwIP/src/core/pbuf.c ****     return 0xFFFF;
1508:Middlewares/Third_Party/LwIP/src/core/pbuf.c ****   }
1509:Middlewares/Third_Party/LwIP/src/core/pbuf.c ****   substr_len = strlen(substr);
 3909              		.loc 1 1509 3 is_stmt 1 view .LVU1121
 3910              		.loc 1 1509 16 is_stmt 0 view .LVU1122
 3911 0016 0846     		mov	r0, r1
 3912 0018 FFF7FEFF 		bl	strlen
 3913              	.LVL406:
1510:Middlewares/Third_Party/LwIP/src/core/pbuf.c ****   if (substr_len >= 0xFFFF) {
 3914              		.loc 1 1510 3 is_stmt 1 view .LVU1123
 3915              		.loc 1 1510 6 is_stmt 0 view .LVU1124
 3916 001c 4FF6FE73 		movw	r3, #65534
 3917 0020 9842     		cmp	r0, r3
 3918 0022 0CD8     		bhi	.L299
1511:Middlewares/Third_Party/LwIP/src/core/pbuf.c ****     return 0xFFFF;
1512:Middlewares/Third_Party/LwIP/src/core/pbuf.c ****   }
1513:Middlewares/Third_Party/LwIP/src/core/pbuf.c ****   return pbuf_memfind(p, substr, (u16_t)substr_len, 0);
 3919              		.loc 1 1513 3 is_stmt 1 view .LVU1125
 3920              		.loc 1 1513 10 is_stmt 0 view .LVU1126
 3921 0024 0023     		movs	r3, #0
 3922 0026 82B2     		uxth	r2, r0
 3923 0028 2946     		mov	r1, r5
 3924 002a 2046     		mov	r0, r4
 3925              	.LVL407:
 3926              		.loc 1 1513 10 view .LVU1127
 3927 002c FFF7FEFF 		bl	pbuf_memfind
 3928              	.LVL408:
 3929              	.L296:
1514:Middlewares/Third_Party/LwIP/src/core/pbuf.c **** }
 3930              		.loc 1 1514 1 view .LVU1128
 3931 0030 38BD     		pop	{r3, r4, r5, pc}
 3932              	.LVL409:
 3933              	.L297:
 3934              	.LCFI55:
 3935              		.cfi_def_cfa_offset 0
 3936              		.cfi_restore 3
 3937              		.cfi_restore 4
 3938              		.cfi_restore 5
 3939              		.cfi_restore 14
1507:Middlewares/Third_Party/LwIP/src/core/pbuf.c ****   }
 3940              		.loc 1 1507 12 view .LVU1129
 3941 0032 4FF6FF70 		movw	r0, #65535
 3942              	.LVL410:
 3943              		.loc 1 1514 1 view .LVU1130
ARM GAS  /var/folders/bg/n1lwdyp56391g865_v8nrmhm0000gn/T//cc4exhWb.s 			page 114


 3944 0036 7047     		bx	lr
 3945              	.LVL411:
 3946              	.L298:
 3947              	.LCFI56:
 3948              		.cfi_def_cfa_offset 16
 3949              		.cfi_offset 3, -16
 3950              		.cfi_offset 4, -12
 3951              		.cfi_offset 5, -8
 3952              		.cfi_offset 14, -4
1507:Middlewares/Third_Party/LwIP/src/core/pbuf.c ****   }
 3953              		.loc 1 1507 12 view .LVU1131
 3954 0038 4FF6FF70 		movw	r0, #65535
 3955              	.LVL412:
1507:Middlewares/Third_Party/LwIP/src/core/pbuf.c ****   }
 3956              		.loc 1 1507 12 view .LVU1132
 3957 003c F8E7     		b	.L296
 3958              	.LVL413:
 3959              	.L299:
1511:Middlewares/Third_Party/LwIP/src/core/pbuf.c ****     return 0xFFFF;
 3960              		.loc 1 1511 12 view .LVU1133
 3961 003e 4FF6FF70 		movw	r0, #65535
 3962              	.LVL414:
1511:Middlewares/Third_Party/LwIP/src/core/pbuf.c ****     return 0xFFFF;
 3963              		.loc 1 1511 12 view .LVU1134
 3964 0042 F5E7     		b	.L296
 3965              		.cfi_endproc
 3966              	.LFE202:
 3968              		.global	pbuf_free_ooseq_pending
 3969              		.section	.bss.pbuf_free_ooseq_pending,"aw",%nobits
 3970              		.set	.LANCHOR0,. + 0
 3973              	pbuf_free_ooseq_pending:
 3974 0000 00       		.space	1
 3975              		.text
 3976              	.Letext0:
 3977              		.file 2 "/opt/homebrew/Cellar/arm-none-eabi-gcc/10.3-2021.07/gcc/arm-none-eabi/include/machine/_de
 3978              		.file 3 "/opt/homebrew/Cellar/arm-none-eabi-gcc/10.3-2021.07/gcc/arm-none-eabi/include/sys/_stdint
 3979              		.file 4 "/opt/homebrew/Cellar/arm-none-eabi-gcc/10.3-2021.07/gcc/lib/gcc/arm-none-eabi/10.3.1/incl
 3980              		.file 5 "Middlewares/Third_Party/LwIP/src/include/lwip/arch.h"
 3981              		.file 6 "Middlewares/Third_Party/LwIP/src/include/lwip/err.h"
 3982              		.file 7 "Middlewares/Third_Party/LwIP/src/include/lwip/pbuf.h"
 3983              		.file 8 "Middlewares/Third_Party/LwIP/src/include/lwip/mem.h"
 3984              		.file 9 "Middlewares/Third_Party/LwIP/src/include/lwip/memp.h"
 3985              		.file 10 "Middlewares/Third_Party/LwIP/src/include/lwip/ip4_addr.h"
 3986              		.file 11 "Middlewares/Third_Party/LwIP/src/include/lwip/ip_addr.h"
 3987              		.file 12 "Middlewares/Third_Party/LwIP/src/include/lwip/tcpbase.h"
 3988              		.file 13 "Middlewares/Third_Party/LwIP/src/include/lwip/tcp.h"
 3989              		.file 14 "Middlewares/Third_Party/LwIP/src/include/lwip/priv/tcp_priv.h"
 3990              		.file 15 "Middlewares/Third_Party/LwIP/src/include/lwip/prot/tcp.h"
 3991              		.file 16 "/opt/homebrew/Cellar/arm-none-eabi-gcc/10.3-2021.07/gcc/arm-none-eabi/include/string.h"
 3992              		.file 17 "/opt/homebrew/Cellar/arm-none-eabi-gcc/10.3-2021.07/gcc/arm-none-eabi/include/stdio.h"
 3993              		.file 18 "<built-in>"
ARM GAS  /var/folders/bg/n1lwdyp56391g865_v8nrmhm0000gn/T//cc4exhWb.s 			page 115


DEFINED SYMBOLS
                            *ABS*:0000000000000000 pbuf.c
/var/folders/bg/n1lwdyp56391g865_v8nrmhm0000gn/T//cc4exhWb.s:17     .text.pbuf_pool_is_empty:0000000000000000 $t
/var/folders/bg/n1lwdyp56391g865_v8nrmhm0000gn/T//cc4exhWb.s:24     .text.pbuf_pool_is_empty:0000000000000000 pbuf_pool_is_empty
/var/folders/bg/n1lwdyp56391g865_v8nrmhm0000gn/T//cc4exhWb.s:46     .text.pbuf_pool_is_empty:0000000000000008 $d
/var/folders/bg/n1lwdyp56391g865_v8nrmhm0000gn/T//cc4exhWb.s:51     .text.pbuf_init_alloced_pbuf:0000000000000000 $t
/var/folders/bg/n1lwdyp56391g865_v8nrmhm0000gn/T//cc4exhWb.s:57     .text.pbuf_init_alloced_pbuf:0000000000000000 pbuf_init_alloced_pbuf
/var/folders/bg/n1lwdyp56391g865_v8nrmhm0000gn/T//cc4exhWb.s:112    .text.pbuf_skip_const:0000000000000000 $t
/var/folders/bg/n1lwdyp56391g865_v8nrmhm0000gn/T//cc4exhWb.s:118    .text.pbuf_skip_const:0000000000000000 pbuf_skip_const
/var/folders/bg/n1lwdyp56391g865_v8nrmhm0000gn/T//cc4exhWb.s:167    .rodata.pbuf_add_header_impl.str1.4:0000000000000000 $d
/var/folders/bg/n1lwdyp56391g865_v8nrmhm0000gn/T//cc4exhWb.s:177    .text.pbuf_add_header_impl:0000000000000000 $t
/var/folders/bg/n1lwdyp56391g865_v8nrmhm0000gn/T//cc4exhWb.s:183    .text.pbuf_add_header_impl:0000000000000000 pbuf_add_header_impl
/var/folders/bg/n1lwdyp56391g865_v8nrmhm0000gn/T//cc4exhWb.s:329    .text.pbuf_add_header_impl:0000000000000070 $d
/var/folders/bg/n1lwdyp56391g865_v8nrmhm0000gn/T//cc4exhWb.s:336    .text.pbuf_free_ooseq:0000000000000000 $t
/var/folders/bg/n1lwdyp56391g865_v8nrmhm0000gn/T//cc4exhWb.s:343    .text.pbuf_free_ooseq:0000000000000000 pbuf_free_ooseq
/var/folders/bg/n1lwdyp56391g865_v8nrmhm0000gn/T//cc4exhWb.s:397    .text.pbuf_free_ooseq:0000000000000020 $d
/var/folders/bg/n1lwdyp56391g865_v8nrmhm0000gn/T//cc4exhWb.s:403    .rodata.pbuf_alloc_reference.str1.4:0000000000000000 $d
/var/folders/bg/n1lwdyp56391g865_v8nrmhm0000gn/T//cc4exhWb.s:407    .text.pbuf_alloc_reference:0000000000000000 $t
/var/folders/bg/n1lwdyp56391g865_v8nrmhm0000gn/T//cc4exhWb.s:414    .text.pbuf_alloc_reference:0000000000000000 pbuf_alloc_reference
/var/folders/bg/n1lwdyp56391g865_v8nrmhm0000gn/T//cc4exhWb.s:497    .text.pbuf_alloc_reference:0000000000000044 $d
/var/folders/bg/n1lwdyp56391g865_v8nrmhm0000gn/T//cc4exhWb.s:504    .text.pbuf_alloced_custom:0000000000000000 $t
/var/folders/bg/n1lwdyp56391g865_v8nrmhm0000gn/T//cc4exhWb.s:511    .text.pbuf_alloced_custom:0000000000000000 pbuf_alloced_custom
/var/folders/bg/n1lwdyp56391g865_v8nrmhm0000gn/T//cc4exhWb.s:589    .text.pbuf_add_header:0000000000000000 $t
/var/folders/bg/n1lwdyp56391g865_v8nrmhm0000gn/T//cc4exhWb.s:596    .text.pbuf_add_header:0000000000000000 pbuf_add_header
/var/folders/bg/n1lwdyp56391g865_v8nrmhm0000gn/T//cc4exhWb.s:620    .text.pbuf_add_header_force:0000000000000000 $t
/var/folders/bg/n1lwdyp56391g865_v8nrmhm0000gn/T//cc4exhWb.s:627    .text.pbuf_add_header_force:0000000000000000 pbuf_add_header_force
/var/folders/bg/n1lwdyp56391g865_v8nrmhm0000gn/T//cc4exhWb.s:651    .rodata.pbuf_remove_header.str1.4:0000000000000000 $d
/var/folders/bg/n1lwdyp56391g865_v8nrmhm0000gn/T//cc4exhWb.s:655    .text.pbuf_remove_header:0000000000000000 $t
/var/folders/bg/n1lwdyp56391g865_v8nrmhm0000gn/T//cc4exhWb.s:662    .text.pbuf_remove_header:0000000000000000 pbuf_remove_header
/var/folders/bg/n1lwdyp56391g865_v8nrmhm0000gn/T//cc4exhWb.s:784    .text.pbuf_remove_header:000000000000005c $d
/var/folders/bg/n1lwdyp56391g865_v8nrmhm0000gn/T//cc4exhWb.s:792    .text.pbuf_header_impl:0000000000000000 $t
/var/folders/bg/n1lwdyp56391g865_v8nrmhm0000gn/T//cc4exhWb.s:798    .text.pbuf_header_impl:0000000000000000 pbuf_header_impl
/var/folders/bg/n1lwdyp56391g865_v8nrmhm0000gn/T//cc4exhWb.s:837    .text.pbuf_header:0000000000000000 $t
/var/folders/bg/n1lwdyp56391g865_v8nrmhm0000gn/T//cc4exhWb.s:844    .text.pbuf_header:0000000000000000 pbuf_header
/var/folders/bg/n1lwdyp56391g865_v8nrmhm0000gn/T//cc4exhWb.s:868    .text.pbuf_header_force:0000000000000000 $t
/var/folders/bg/n1lwdyp56391g865_v8nrmhm0000gn/T//cc4exhWb.s:875    .text.pbuf_header_force:0000000000000000 pbuf_header_force
/var/folders/bg/n1lwdyp56391g865_v8nrmhm0000gn/T//cc4exhWb.s:899    .rodata.pbuf_free.str1.4:0000000000000000 $d
/var/folders/bg/n1lwdyp56391g865_v8nrmhm0000gn/T//cc4exhWb.s:909    .text.pbuf_free:0000000000000000 $t
/var/folders/bg/n1lwdyp56391g865_v8nrmhm0000gn/T//cc4exhWb.s:916    .text.pbuf_free:0000000000000000 pbuf_free
/var/folders/bg/n1lwdyp56391g865_v8nrmhm0000gn/T//cc4exhWb.s:1133   .text.pbuf_free:00000000000000ac $d
/var/folders/bg/n1lwdyp56391g865_v8nrmhm0000gn/T//cc4exhWb.s:1144   .rodata.pbuf_alloc.str1.4:0000000000000000 $d
/var/folders/bg/n1lwdyp56391g865_v8nrmhm0000gn/T//cc4exhWb.s:1158   .text.pbuf_alloc:0000000000000000 $t
/var/folders/bg/n1lwdyp56391g865_v8nrmhm0000gn/T//cc4exhWb.s:1165   .text.pbuf_alloc:0000000000000000 pbuf_alloc
/var/folders/bg/n1lwdyp56391g865_v8nrmhm0000gn/T//cc4exhWb.s:1479   .text.pbuf_alloc:0000000000000148 $d
/var/folders/bg/n1lwdyp56391g865_v8nrmhm0000gn/T//cc4exhWb.s:1489   .rodata.pbuf_realloc.str1.4:0000000000000000 $d
/var/folders/bg/n1lwdyp56391g865_v8nrmhm0000gn/T//cc4exhWb.s:1499   .text.pbuf_realloc:0000000000000000 $t
/var/folders/bg/n1lwdyp56391g865_v8nrmhm0000gn/T//cc4exhWb.s:1506   .text.pbuf_realloc:0000000000000000 pbuf_realloc
/var/folders/bg/n1lwdyp56391g865_v8nrmhm0000gn/T//cc4exhWb.s:1672   .text.pbuf_realloc:0000000000000094 $d
/var/folders/bg/n1lwdyp56391g865_v8nrmhm0000gn/T//cc4exhWb.s:1681   .text.pbuf_free_header:0000000000000000 $t
/var/folders/bg/n1lwdyp56391g865_v8nrmhm0000gn/T//cc4exhWb.s:1688   .text.pbuf_free_header:0000000000000000 pbuf_free_header
/var/folders/bg/n1lwdyp56391g865_v8nrmhm0000gn/T//cc4exhWb.s:1773   .text.pbuf_clen:0000000000000000 $t
/var/folders/bg/n1lwdyp56391g865_v8nrmhm0000gn/T//cc4exhWb.s:1780   .text.pbuf_clen:0000000000000000 pbuf_clen
/var/folders/bg/n1lwdyp56391g865_v8nrmhm0000gn/T//cc4exhWb.s:1822   .rodata.pbuf_ref.str1.4:0000000000000000 $d
/var/folders/bg/n1lwdyp56391g865_v8nrmhm0000gn/T//cc4exhWb.s:1826   .text.pbuf_ref:0000000000000000 $t
/var/folders/bg/n1lwdyp56391g865_v8nrmhm0000gn/T//cc4exhWb.s:1833   .text.pbuf_ref:0000000000000000 pbuf_ref
/var/folders/bg/n1lwdyp56391g865_v8nrmhm0000gn/T//cc4exhWb.s:1893   .text.pbuf_ref:0000000000000024 $d
/var/folders/bg/n1lwdyp56391g865_v8nrmhm0000gn/T//cc4exhWb.s:1900   .rodata.pbuf_cat.str1.4:0000000000000000 $d
ARM GAS  /var/folders/bg/n1lwdyp56391g865_v8nrmhm0000gn/T//cc4exhWb.s 			page 116


/var/folders/bg/n1lwdyp56391g865_v8nrmhm0000gn/T//cc4exhWb.s:1911   .text.pbuf_cat:0000000000000000 $t
/var/folders/bg/n1lwdyp56391g865_v8nrmhm0000gn/T//cc4exhWb.s:1918   .text.pbuf_cat:0000000000000000 pbuf_cat
/var/folders/bg/n1lwdyp56391g865_v8nrmhm0000gn/T//cc4exhWb.s:2037   .text.pbuf_cat:0000000000000064 $d
/var/folders/bg/n1lwdyp56391g865_v8nrmhm0000gn/T//cc4exhWb.s:2046   .text.pbuf_chain:0000000000000000 $t
/var/folders/bg/n1lwdyp56391g865_v8nrmhm0000gn/T//cc4exhWb.s:2053   .text.pbuf_chain:0000000000000000 pbuf_chain
/var/folders/bg/n1lwdyp56391g865_v8nrmhm0000gn/T//cc4exhWb.s:2082   .rodata.pbuf_dechain.str1.4:0000000000000000 $d
/var/folders/bg/n1lwdyp56391g865_v8nrmhm0000gn/T//cc4exhWb.s:2089   .text.pbuf_dechain:0000000000000000 $t
/var/folders/bg/n1lwdyp56391g865_v8nrmhm0000gn/T//cc4exhWb.s:2096   .text.pbuf_dechain:0000000000000000 pbuf_dechain
/var/folders/bg/n1lwdyp56391g865_v8nrmhm0000gn/T//cc4exhWb.s:2218   .text.pbuf_dechain:0000000000000064 $d
/var/folders/bg/n1lwdyp56391g865_v8nrmhm0000gn/T//cc4exhWb.s:2226   .rodata.pbuf_copy.str1.4:0000000000000000 $d
/var/folders/bg/n1lwdyp56391g865_v8nrmhm0000gn/T//cc4exhWb.s:2242   .text.pbuf_copy:0000000000000000 $t
/var/folders/bg/n1lwdyp56391g865_v8nrmhm0000gn/T//cc4exhWb.s:2249   .text.pbuf_copy:0000000000000000 pbuf_copy
/var/folders/bg/n1lwdyp56391g865_v8nrmhm0000gn/T//cc4exhWb.s:2511   .text.pbuf_copy:000000000000010c $d
/var/folders/bg/n1lwdyp56391g865_v8nrmhm0000gn/T//cc4exhWb.s:2522   .rodata.pbuf_copy_partial.str1.4:0000000000000000 $d
/var/folders/bg/n1lwdyp56391g865_v8nrmhm0000gn/T//cc4exhWb.s:2529   .text.pbuf_copy_partial:0000000000000000 $t
/var/folders/bg/n1lwdyp56391g865_v8nrmhm0000gn/T//cc4exhWb.s:2536   .text.pbuf_copy_partial:0000000000000000 pbuf_copy_partial
/var/folders/bg/n1lwdyp56391g865_v8nrmhm0000gn/T//cc4exhWb.s:2705   .text.pbuf_copy_partial:0000000000000084 $d
/var/folders/bg/n1lwdyp56391g865_v8nrmhm0000gn/T//cc4exhWb.s:2713   .rodata.pbuf_get_contiguous.str1.4:0000000000000000 $d
/var/folders/bg/n1lwdyp56391g865_v8nrmhm0000gn/T//cc4exhWb.s:2720   .text.pbuf_get_contiguous:0000000000000000 $t
/var/folders/bg/n1lwdyp56391g865_v8nrmhm0000gn/T//cc4exhWb.s:2727   .text.pbuf_get_contiguous:0000000000000000 pbuf_get_contiguous
/var/folders/bg/n1lwdyp56391g865_v8nrmhm0000gn/T//cc4exhWb.s:2892   .text.pbuf_get_contiguous:0000000000000080 $d
/var/folders/bg/n1lwdyp56391g865_v8nrmhm0000gn/T//cc4exhWb.s:2900   .text.pbuf_skip:0000000000000000 $t
/var/folders/bg/n1lwdyp56391g865_v8nrmhm0000gn/T//cc4exhWb.s:2907   .text.pbuf_skip:0000000000000000 pbuf_skip
/var/folders/bg/n1lwdyp56391g865_v8nrmhm0000gn/T//cc4exhWb.s:2931   .rodata.pbuf_take.str1.4:0000000000000000 $d
/var/folders/bg/n1lwdyp56391g865_v8nrmhm0000gn/T//cc4exhWb.s:2947   .text.pbuf_take:0000000000000000 $t
/var/folders/bg/n1lwdyp56391g865_v8nrmhm0000gn/T//cc4exhWb.s:2954   .text.pbuf_take:0000000000000000 pbuf_take
/var/folders/bg/n1lwdyp56391g865_v8nrmhm0000gn/T//cc4exhWb.s:3141   .text.pbuf_take:00000000000000a4 $d
/var/folders/bg/n1lwdyp56391g865_v8nrmhm0000gn/T//cc4exhWb.s:3152   .rodata.pbuf_take_at.str1.4:0000000000000000 $d
/var/folders/bg/n1lwdyp56391g865_v8nrmhm0000gn/T//cc4exhWb.s:3156   .text.pbuf_take_at:0000000000000000 $t
/var/folders/bg/n1lwdyp56391g865_v8nrmhm0000gn/T//cc4exhWb.s:3163   .text.pbuf_take_at:0000000000000000 pbuf_take_at
/var/folders/bg/n1lwdyp56391g865_v8nrmhm0000gn/T//cc4exhWb.s:3313   .text.pbuf_take_at:0000000000000078 $d
/var/folders/bg/n1lwdyp56391g865_v8nrmhm0000gn/T//cc4exhWb.s:3320   .rodata.pbuf_clone.str1.4:0000000000000000 $d
/var/folders/bg/n1lwdyp56391g865_v8nrmhm0000gn/T//cc4exhWb.s:3324   .text.pbuf_clone:0000000000000000 $t
/var/folders/bg/n1lwdyp56391g865_v8nrmhm0000gn/T//cc4exhWb.s:3331   .text.pbuf_clone:0000000000000000 pbuf_clone
/var/folders/bg/n1lwdyp56391g865_v8nrmhm0000gn/T//cc4exhWb.s:3393   .text.pbuf_clone:000000000000002c $d
/var/folders/bg/n1lwdyp56391g865_v8nrmhm0000gn/T//cc4exhWb.s:3400   .text.pbuf_coalesce:0000000000000000 $t
/var/folders/bg/n1lwdyp56391g865_v8nrmhm0000gn/T//cc4exhWb.s:3407   .text.pbuf_coalesce:0000000000000000 pbuf_coalesce
/var/folders/bg/n1lwdyp56391g865_v8nrmhm0000gn/T//cc4exhWb.s:3461   .text.pbuf_try_get_at:0000000000000000 $t
/var/folders/bg/n1lwdyp56391g865_v8nrmhm0000gn/T//cc4exhWb.s:3468   .text.pbuf_try_get_at:0000000000000000 pbuf_try_get_at
/var/folders/bg/n1lwdyp56391g865_v8nrmhm0000gn/T//cc4exhWb.s:3533   .text.pbuf_get_at:0000000000000000 $t
/var/folders/bg/n1lwdyp56391g865_v8nrmhm0000gn/T//cc4exhWb.s:3540   .text.pbuf_get_at:0000000000000000 pbuf_get_at
/var/folders/bg/n1lwdyp56391g865_v8nrmhm0000gn/T//cc4exhWb.s:3580   .text.pbuf_put_at:0000000000000000 $t
/var/folders/bg/n1lwdyp56391g865_v8nrmhm0000gn/T//cc4exhWb.s:3587   .text.pbuf_put_at:0000000000000000 pbuf_put_at
/var/folders/bg/n1lwdyp56391g865_v8nrmhm0000gn/T//cc4exhWb.s:3638   .text.pbuf_memcmp:0000000000000000 $t
/var/folders/bg/n1lwdyp56391g865_v8nrmhm0000gn/T//cc4exhWb.s:3645   .text.pbuf_memcmp:0000000000000000 pbuf_memcmp
/var/folders/bg/n1lwdyp56391g865_v8nrmhm0000gn/T//cc4exhWb.s:3772   .text.pbuf_memfind:0000000000000000 $t
/var/folders/bg/n1lwdyp56391g865_v8nrmhm0000gn/T//cc4exhWb.s:3779   .text.pbuf_memfind:0000000000000000 pbuf_memfind
/var/folders/bg/n1lwdyp56391g865_v8nrmhm0000gn/T//cc4exhWb.s:3870   .text.pbuf_strstr:0000000000000000 $t
/var/folders/bg/n1lwdyp56391g865_v8nrmhm0000gn/T//cc4exhWb.s:3877   .text.pbuf_strstr:0000000000000000 pbuf_strstr
/var/folders/bg/n1lwdyp56391g865_v8nrmhm0000gn/T//cc4exhWb.s:3973   .bss.pbuf_free_ooseq_pending:0000000000000000 pbuf_free_ooseq_pending
/var/folders/bg/n1lwdyp56391g865_v8nrmhm0000gn/T//cc4exhWb.s:3974   .bss.pbuf_free_ooseq_pending:0000000000000000 $d

UNDEFINED SYMBOLS
printf
tcp_free_ooseq
tcp_active_pcbs
memp_malloc
ARM GAS  /var/folders/bg/n1lwdyp56391g865_v8nrmhm0000gn/T//cc4exhWb.s 			page 117


mem_free
memp_free
mem_malloc
mem_trim
memcpy
strlen
