ARM GAS  /var/folders/bg/n1lwdyp56391g865_v8nrmhm0000gn/T//ccN5ZAqC.s 			page 1


   1              		.cpu cortex-m7
   2              		.eabi_attribute 28, 1
   3              		.eabi_attribute 20, 1
   4              		.eabi_attribute 21, 1
   5              		.eabi_attribute 23, 3
   6              		.eabi_attribute 24, 1
   7              		.eabi_attribute 25, 1
   8              		.eabi_attribute 26, 1
   9              		.eabi_attribute 30, 1
  10              		.eabi_attribute 34, 1
  11              		.eabi_attribute 18, 4
  12              		.file	"slipif.c"
  13              		.text
  14              	.Ltext0:
  15              		.cfi_sections	.debug_frame
  16              		.section	.rodata.slipif_output.str1.4,"aMS",%progbits,1
  17              		.align	2
  18              	.LC0:
  19 0000 4D696464 		.ascii	"Middlewares/Third_Party/LwIP/src/netif/slipif.c\000"
  19      6C657761 
  19      7265732F 
  19      54686972 
  19      645F5061 
  20              		.align	2
  21              	.LC1:
  22 0030 6E657469 		.ascii	"netif != NULL\000"
  22      6620213D 
  22      204E554C 
  22      4C00
  23 003e 0000     		.align	2
  24              	.LC2:
  25 0040 41737365 		.ascii	"Assertion \"%s\" failed at line %d in %s\012\000"
  25      7274696F 
  25      6E202225 
  25      73222066 
  25      61696C65 
  26              		.align	2
  27              	.LC3:
  28 0068 6E657469 		.ascii	"netif->state != NULL\000"
  28      662D3E73 
  28      74617465 
  28      20213D20 
  28      4E554C4C 
  29 007d 000000   		.align	2
  30              	.LC4:
  31 0080 7020213D 		.ascii	"p != NULL\000"
  31      204E554C 
  31      4C00
  32              		.section	.text.slipif_output,"ax",%progbits
  33              		.align	1
  34              		.arch armv7e-m
  35              		.syntax unified
  36              		.thumb
  37              		.thumb_func
  38              		.fpu fpv5-d16
  40              	slipif_output:
  41              	.LVL0:
ARM GAS  /var/folders/bg/n1lwdyp56391g865_v8nrmhm0000gn/T//ccN5ZAqC.s 			page 2


  42              	.LFB167:
  43              		.file 1 "Middlewares/Third_Party/LwIP/src/netif/slipif.c"
   1:Middlewares/Third_Party/LwIP/src/netif/slipif.c **** /**
   2:Middlewares/Third_Party/LwIP/src/netif/slipif.c ****  * @file
   3:Middlewares/Third_Party/LwIP/src/netif/slipif.c ****  * SLIP Interface
   4:Middlewares/Third_Party/LwIP/src/netif/slipif.c ****  *
   5:Middlewares/Third_Party/LwIP/src/netif/slipif.c ****  */
   6:Middlewares/Third_Party/LwIP/src/netif/slipif.c **** 
   7:Middlewares/Third_Party/LwIP/src/netif/slipif.c **** /*
   8:Middlewares/Third_Party/LwIP/src/netif/slipif.c ****  * Copyright (c) 2001-2004 Swedish Institute of Computer Science.
   9:Middlewares/Third_Party/LwIP/src/netif/slipif.c ****  * All rights reserved.
  10:Middlewares/Third_Party/LwIP/src/netif/slipif.c ****  *
  11:Middlewares/Third_Party/LwIP/src/netif/slipif.c ****  * Redistribution and use in source and binary forms, with or without
  12:Middlewares/Third_Party/LwIP/src/netif/slipif.c ****  * modification, are permitted provided that the following conditions
  13:Middlewares/Third_Party/LwIP/src/netif/slipif.c ****  * are met:
  14:Middlewares/Third_Party/LwIP/src/netif/slipif.c ****  * 1. Redistributions of source code must retain the above copyright
  15:Middlewares/Third_Party/LwIP/src/netif/slipif.c ****  *    notice, this list of conditions and the following disclaimer.
  16:Middlewares/Third_Party/LwIP/src/netif/slipif.c ****  * 2. Redistributions in binary form must reproduce the above copyright
  17:Middlewares/Third_Party/LwIP/src/netif/slipif.c ****  *    notice, this list of conditions and the following disclaimer in the
  18:Middlewares/Third_Party/LwIP/src/netif/slipif.c ****  *    documentation and/or other materials provided with the distribution.
  19:Middlewares/Third_Party/LwIP/src/netif/slipif.c ****  * 3. Neither the name of the Institute nor the names of its contributors
  20:Middlewares/Third_Party/LwIP/src/netif/slipif.c ****  *    may be used to endorse or promote products derived from this software
  21:Middlewares/Third_Party/LwIP/src/netif/slipif.c ****  *    without specific prior written permission.
  22:Middlewares/Third_Party/LwIP/src/netif/slipif.c ****  *
  23:Middlewares/Third_Party/LwIP/src/netif/slipif.c ****  * THIS SOFTWARE IS PROVIDED BY THE INSTITUTE AND CONTRIBUTORS ``AS IS'' AND
  24:Middlewares/Third_Party/LwIP/src/netif/slipif.c ****  * ANY EXPRESS OR IMPLIED WARRANTIES, INCLUDING, BUT NOT LIMITED TO, THE
  25:Middlewares/Third_Party/LwIP/src/netif/slipif.c ****  * IMPLIED WARRANTIES OF MERCHANTABILITY AND FITNESS FOR A PARTICULAR PURPOSE
  26:Middlewares/Third_Party/LwIP/src/netif/slipif.c ****  * ARE DISCLAIMED.  IN NO EVENT SHALL THE INSTITUTE OR CONTRIBUTORS BE LIABLE
  27:Middlewares/Third_Party/LwIP/src/netif/slipif.c ****  * FOR ANY DIRECT, INDIRECT, INCIDENTAL, SPECIAL, EXEMPLARY, OR CONSEQUENTIAL
  28:Middlewares/Third_Party/LwIP/src/netif/slipif.c ****  * DAMAGES (INCLUDING, BUT NOT LIMITED TO, PROCUREMENT OF SUBSTITUTE GOODS
  29:Middlewares/Third_Party/LwIP/src/netif/slipif.c ****  * OR SERVICES; LOSS OF USE, DATA, OR PROFITS; OR BUSINESS INTERRUPTION)
  30:Middlewares/Third_Party/LwIP/src/netif/slipif.c ****  * HOWEVER CAUSED AND ON ANY THEORY OF LIABILITY, WHETHER IN CONTRACT, STRICT
  31:Middlewares/Third_Party/LwIP/src/netif/slipif.c ****  * LIABILITY, OR TORT (INCLUDING NEGLIGENCE OR OTHERWISE) ARISING IN ANY WAY
  32:Middlewares/Third_Party/LwIP/src/netif/slipif.c ****  * OUT OF THE USE OF THIS SOFTWARE, EVEN IF ADVISED OF THE POSSIBILITY OF
  33:Middlewares/Third_Party/LwIP/src/netif/slipif.c ****  * SUCH DAMAGE.
  34:Middlewares/Third_Party/LwIP/src/netif/slipif.c ****  *
  35:Middlewares/Third_Party/LwIP/src/netif/slipif.c ****  * This file is built upon the file: src/arch/rtxc/netif/sioslip.c
  36:Middlewares/Third_Party/LwIP/src/netif/slipif.c ****  *
  37:Middlewares/Third_Party/LwIP/src/netif/slipif.c ****  * Author: Magnus Ivarsson <magnus.ivarsson(at)volvo.com>
  38:Middlewares/Third_Party/LwIP/src/netif/slipif.c ****  *         Simon Goldschmidt
  39:Middlewares/Third_Party/LwIP/src/netif/slipif.c ****  */
  40:Middlewares/Third_Party/LwIP/src/netif/slipif.c **** 
  41:Middlewares/Third_Party/LwIP/src/netif/slipif.c **** 
  42:Middlewares/Third_Party/LwIP/src/netif/slipif.c **** /**
  43:Middlewares/Third_Party/LwIP/src/netif/slipif.c ****  * @defgroup slipif SLIP
  44:Middlewares/Third_Party/LwIP/src/netif/slipif.c ****  * @ingroup netifs
  45:Middlewares/Third_Party/LwIP/src/netif/slipif.c ****  *
  46:Middlewares/Third_Party/LwIP/src/netif/slipif.c ****  * This is an arch independent SLIP netif. The specific serial hooks must be
  47:Middlewares/Third_Party/LwIP/src/netif/slipif.c ****  * provided by another file. They are sio_open, sio_read/sio_tryread and sio_send
  48:Middlewares/Third_Party/LwIP/src/netif/slipif.c ****  *
  49:Middlewares/Third_Party/LwIP/src/netif/slipif.c ****  * Usage: This netif can be used in three ways:\n
  50:Middlewares/Third_Party/LwIP/src/netif/slipif.c ****  *        1) For NO_SYS==0, an RX thread can be used which blocks on sio_read()
  51:Middlewares/Third_Party/LwIP/src/netif/slipif.c ****  *           until data is received.\n
  52:Middlewares/Third_Party/LwIP/src/netif/slipif.c ****  *        2) In your main loop, call slipif_poll() to check for new RX bytes,
  53:Middlewares/Third_Party/LwIP/src/netif/slipif.c ****  *           completed packets are fed into netif->input().\n
  54:Middlewares/Third_Party/LwIP/src/netif/slipif.c ****  *        3) Call slipif_received_byte[s]() from your serial RX ISR and
  55:Middlewares/Third_Party/LwIP/src/netif/slipif.c ****  *           slipif_process_rxqueue() from your main loop. ISR level decodes
ARM GAS  /var/folders/bg/n1lwdyp56391g865_v8nrmhm0000gn/T//ccN5ZAqC.s 			page 3


  56:Middlewares/Third_Party/LwIP/src/netif/slipif.c ****  *           packets and puts completed packets on a queue which is fed into
  57:Middlewares/Third_Party/LwIP/src/netif/slipif.c ****  *           the stack from the main loop (needs SYS_LIGHTWEIGHT_PROT for
  58:Middlewares/Third_Party/LwIP/src/netif/slipif.c ****  *           pbuf_alloc to work on ISR level!).
  59:Middlewares/Third_Party/LwIP/src/netif/slipif.c ****  *
  60:Middlewares/Third_Party/LwIP/src/netif/slipif.c ****  */
  61:Middlewares/Third_Party/LwIP/src/netif/slipif.c **** 
  62:Middlewares/Third_Party/LwIP/src/netif/slipif.c **** #include "netif/slipif.h"
  63:Middlewares/Third_Party/LwIP/src/netif/slipif.c **** #include "lwip/opt.h"
  64:Middlewares/Third_Party/LwIP/src/netif/slipif.c **** 
  65:Middlewares/Third_Party/LwIP/src/netif/slipif.c **** #include "lwip/def.h"
  66:Middlewares/Third_Party/LwIP/src/netif/slipif.c **** #include "lwip/pbuf.h"
  67:Middlewares/Third_Party/LwIP/src/netif/slipif.c **** #include "lwip/stats.h"
  68:Middlewares/Third_Party/LwIP/src/netif/slipif.c **** #include "lwip/snmp.h"
  69:Middlewares/Third_Party/LwIP/src/netif/slipif.c **** #include "lwip/sys.h"
  70:Middlewares/Third_Party/LwIP/src/netif/slipif.c **** #include "lwip/sio.h"
  71:Middlewares/Third_Party/LwIP/src/netif/slipif.c **** 
  72:Middlewares/Third_Party/LwIP/src/netif/slipif.c **** #define SLIP_END     0xC0 /* 0300: start and end of every packet */
  73:Middlewares/Third_Party/LwIP/src/netif/slipif.c **** #define SLIP_ESC     0xDB /* 0333: escape start (one byte escaped data follows) */
  74:Middlewares/Third_Party/LwIP/src/netif/slipif.c **** #define SLIP_ESC_END 0xDC /* 0334: following escape: original byte is 0xC0 (END) */
  75:Middlewares/Third_Party/LwIP/src/netif/slipif.c **** #define SLIP_ESC_ESC 0xDD /* 0335: following escape: original byte is 0xDB (ESC) */
  76:Middlewares/Third_Party/LwIP/src/netif/slipif.c **** 
  77:Middlewares/Third_Party/LwIP/src/netif/slipif.c **** /** Maximum packet size that is received by this netif */
  78:Middlewares/Third_Party/LwIP/src/netif/slipif.c **** #ifndef SLIP_MAX_SIZE
  79:Middlewares/Third_Party/LwIP/src/netif/slipif.c **** #define SLIP_MAX_SIZE 1500
  80:Middlewares/Third_Party/LwIP/src/netif/slipif.c **** #endif
  81:Middlewares/Third_Party/LwIP/src/netif/slipif.c **** 
  82:Middlewares/Third_Party/LwIP/src/netif/slipif.c **** /** Define this to the interface speed for SNMP
  83:Middlewares/Third_Party/LwIP/src/netif/slipif.c ****  * (sio_fd is the sio_fd_t returned by sio_open).
  84:Middlewares/Third_Party/LwIP/src/netif/slipif.c ****  * The default value of zero means 'unknown'.
  85:Middlewares/Third_Party/LwIP/src/netif/slipif.c ****  */
  86:Middlewares/Third_Party/LwIP/src/netif/slipif.c **** #ifndef SLIP_SIO_SPEED
  87:Middlewares/Third_Party/LwIP/src/netif/slipif.c **** #define SLIP_SIO_SPEED(sio_fd) 0
  88:Middlewares/Third_Party/LwIP/src/netif/slipif.c **** #endif
  89:Middlewares/Third_Party/LwIP/src/netif/slipif.c **** 
  90:Middlewares/Third_Party/LwIP/src/netif/slipif.c **** enum slipif_recv_state {
  91:Middlewares/Third_Party/LwIP/src/netif/slipif.c ****   SLIP_RECV_NORMAL,
  92:Middlewares/Third_Party/LwIP/src/netif/slipif.c ****   SLIP_RECV_ESCAPE
  93:Middlewares/Third_Party/LwIP/src/netif/slipif.c **** };
  94:Middlewares/Third_Party/LwIP/src/netif/slipif.c **** 
  95:Middlewares/Third_Party/LwIP/src/netif/slipif.c **** struct slipif_priv {
  96:Middlewares/Third_Party/LwIP/src/netif/slipif.c ****   sio_fd_t sd;
  97:Middlewares/Third_Party/LwIP/src/netif/slipif.c ****   /* q is the whole pbuf chain for a packet, p is the current pbuf in the chain */
  98:Middlewares/Third_Party/LwIP/src/netif/slipif.c ****   struct pbuf *p, *q;
  99:Middlewares/Third_Party/LwIP/src/netif/slipif.c ****   u8_t state;
 100:Middlewares/Third_Party/LwIP/src/netif/slipif.c ****   u16_t i, recved;
 101:Middlewares/Third_Party/LwIP/src/netif/slipif.c **** #if SLIP_RX_FROM_ISR
 102:Middlewares/Third_Party/LwIP/src/netif/slipif.c ****   struct pbuf *rxpackets;
 103:Middlewares/Third_Party/LwIP/src/netif/slipif.c **** #endif
 104:Middlewares/Third_Party/LwIP/src/netif/slipif.c **** };
 105:Middlewares/Third_Party/LwIP/src/netif/slipif.c **** 
 106:Middlewares/Third_Party/LwIP/src/netif/slipif.c **** /**
 107:Middlewares/Third_Party/LwIP/src/netif/slipif.c ****  * Send a pbuf doing the necessary SLIP encapsulation
 108:Middlewares/Third_Party/LwIP/src/netif/slipif.c ****  *
 109:Middlewares/Third_Party/LwIP/src/netif/slipif.c ****  * Uses the serial layer's sio_send()
 110:Middlewares/Third_Party/LwIP/src/netif/slipif.c ****  *
 111:Middlewares/Third_Party/LwIP/src/netif/slipif.c ****  * @param netif the lwip network interface structure for this slipif
 112:Middlewares/Third_Party/LwIP/src/netif/slipif.c ****  * @param p the pbuf chain packet to send
ARM GAS  /var/folders/bg/n1lwdyp56391g865_v8nrmhm0000gn/T//ccN5ZAqC.s 			page 4


 113:Middlewares/Third_Party/LwIP/src/netif/slipif.c ****  * @return always returns ERR_OK since the serial layer does not provide return values
 114:Middlewares/Third_Party/LwIP/src/netif/slipif.c ****  */
 115:Middlewares/Third_Party/LwIP/src/netif/slipif.c **** static err_t
 116:Middlewares/Third_Party/LwIP/src/netif/slipif.c **** slipif_output(struct netif *netif, struct pbuf *p)
 117:Middlewares/Third_Party/LwIP/src/netif/slipif.c **** {
  44              		.loc 1 117 1 view -0
  45              		.cfi_startproc
  46              		@ args = 0, pretend = 0, frame = 0
  47              		@ frame_needed = 0, uses_anonymous_args = 0
  48              		.loc 1 117 1 is_stmt 0 view .LVU1
  49 0000 70B5     		push	{r4, r5, r6, lr}
  50              	.LCFI0:
  51              		.cfi_def_cfa_offset 16
  52              		.cfi_offset 4, -16
  53              		.cfi_offset 5, -12
  54              		.cfi_offset 6, -8
  55              		.cfi_offset 14, -4
  56 0002 0D46     		mov	r5, r1
 118:Middlewares/Third_Party/LwIP/src/netif/slipif.c ****   struct slipif_priv *priv;
  57              		.loc 1 118 3 is_stmt 1 view .LVU2
 119:Middlewares/Third_Party/LwIP/src/netif/slipif.c ****   struct pbuf *q;
  58              		.loc 1 119 3 view .LVU3
 120:Middlewares/Third_Party/LwIP/src/netif/slipif.c ****   u16_t i;
  59              		.loc 1 120 3 view .LVU4
 121:Middlewares/Third_Party/LwIP/src/netif/slipif.c ****   u8_t c;
  60              		.loc 1 121 3 view .LVU5
 122:Middlewares/Third_Party/LwIP/src/netif/slipif.c **** 
 123:Middlewares/Third_Party/LwIP/src/netif/slipif.c ****   LWIP_ASSERT("netif != NULL", (netif != NULL));
  61              		.loc 1 123 3 view .LVU6
  62              		.loc 1 123 3 view .LVU7
  63 0004 0446     		mov	r4, r0
  64 0006 40B1     		cbz	r0, .L15
  65              	.LVL1:
  66              	.L2:
  67              		.loc 1 123 3 discriminator 3 view .LVU8
  68              		.loc 1 123 3 discriminator 3 view .LVU9
 124:Middlewares/Third_Party/LwIP/src/netif/slipif.c ****   LWIP_ASSERT("netif->state != NULL", (netif->state != NULL));
  69              		.loc 1 124 3 discriminator 3 view .LVU10
  70              		.loc 1 124 3 discriminator 3 view .LVU11
  71 0008 236A     		ldr	r3, [r4, #32]
  72 000a 6BB1     		cbz	r3, .L16
  73              	.L3:
  74              		.loc 1 124 3 discriminator 3 view .LVU12
  75              		.loc 1 124 3 discriminator 3 view .LVU13
 125:Middlewares/Third_Party/LwIP/src/netif/slipif.c ****   LWIP_ASSERT("p != NULL", (p != NULL));
  76              		.loc 1 125 3 discriminator 3 view .LVU14
  77              		.loc 1 125 3 discriminator 3 view .LVU15
  78 000c 9DB1     		cbz	r5, .L17
  79              	.L4:
  80              		.loc 1 125 3 discriminator 3 view .LVU16
  81              		.loc 1 125 3 discriminator 3 view .LVU17
 126:Middlewares/Third_Party/LwIP/src/netif/slipif.c **** 
 127:Middlewares/Third_Party/LwIP/src/netif/slipif.c ****   LWIP_DEBUGF(SLIP_DEBUG, ("slipif_output: sending %"U16_F" bytes\n", p->tot_len));
  82              		.loc 1 127 83 discriminator 3 view .LVU18
 128:Middlewares/Third_Party/LwIP/src/netif/slipif.c ****   priv = (struct slipif_priv *)netif->state;
  83              		.loc 1 128 3 discriminator 3 view .LVU19
  84              		.loc 1 128 8 is_stmt 0 discriminator 3 view .LVU20
ARM GAS  /var/folders/bg/n1lwdyp56391g865_v8nrmhm0000gn/T//ccN5ZAqC.s 			page 5


  85 000e 266A     		ldr	r6, [r4, #32]
  86              	.LVL2:
 129:Middlewares/Third_Party/LwIP/src/netif/slipif.c **** 
 130:Middlewares/Third_Party/LwIP/src/netif/slipif.c ****   /* Send pbuf out on the serial I/O device. */
 131:Middlewares/Third_Party/LwIP/src/netif/slipif.c ****   /* Start with packet delimiter. */
 132:Middlewares/Third_Party/LwIP/src/netif/slipif.c ****   sio_send(SLIP_END, priv->sd);
  87              		.loc 1 132 3 is_stmt 1 discriminator 3 view .LVU21
  88 0010 3168     		ldr	r1, [r6]
  89 0012 C020     		movs	r0, #192
  90 0014 FFF7FEFF 		bl	sio_send
  91              	.LVL3:
 133:Middlewares/Third_Party/LwIP/src/netif/slipif.c **** 
 134:Middlewares/Third_Party/LwIP/src/netif/slipif.c ****   for (q = p; q != NULL; q = q->next) {
  92              		.loc 1 134 3 discriminator 3 view .LVU22
  93              		.loc 1 134 3 is_stmt 0 discriminator 3 view .LVU23
  94 0018 35E0     		b	.L5
  95              	.LVL4:
  96              	.L15:
 123:Middlewares/Third_Party/LwIP/src/netif/slipif.c ****   LWIP_ASSERT("netif->state != NULL", (netif->state != NULL));
  97              		.loc 1 123 3 is_stmt 1 discriminator 1 view .LVU24
 123:Middlewares/Third_Party/LwIP/src/netif/slipif.c ****   LWIP_ASSERT("netif->state != NULL", (netif->state != NULL));
  98              		.loc 1 123 3 discriminator 1 view .LVU25
  99 001a 1F4B     		ldr	r3, .L20
 100 001c 7B22     		movs	r2, #123
 101 001e 1F49     		ldr	r1, .L20+4
 102              	.LVL5:
 123:Middlewares/Third_Party/LwIP/src/netif/slipif.c ****   LWIP_ASSERT("netif->state != NULL", (netif->state != NULL));
 103              		.loc 1 123 3 is_stmt 0 discriminator 1 view .LVU26
 104 0020 1F48     		ldr	r0, .L20+8
 105              	.LVL6:
 123:Middlewares/Third_Party/LwIP/src/netif/slipif.c ****   LWIP_ASSERT("netif->state != NULL", (netif->state != NULL));
 106              		.loc 1 123 3 discriminator 1 view .LVU27
 107 0022 FFF7FEFF 		bl	printf
 108              	.LVL7:
 109 0026 EFE7     		b	.L2
 110              	.L16:
 124:Middlewares/Third_Party/LwIP/src/netif/slipif.c ****   LWIP_ASSERT("p != NULL", (p != NULL));
 111              		.loc 1 124 3 is_stmt 1 discriminator 1 view .LVU28
 124:Middlewares/Third_Party/LwIP/src/netif/slipif.c ****   LWIP_ASSERT("p != NULL", (p != NULL));
 112              		.loc 1 124 3 discriminator 1 view .LVU29
 113 0028 1B4B     		ldr	r3, .L20
 114 002a 7C22     		movs	r2, #124
 115 002c 1D49     		ldr	r1, .L20+12
 116 002e 1C48     		ldr	r0, .L20+8
 117 0030 FFF7FEFF 		bl	printf
 118              	.LVL8:
 119 0034 EAE7     		b	.L3
 120              	.L17:
 125:Middlewares/Third_Party/LwIP/src/netif/slipif.c **** 
 121              		.loc 1 125 3 discriminator 1 view .LVU30
 125:Middlewares/Third_Party/LwIP/src/netif/slipif.c **** 
 122              		.loc 1 125 3 discriminator 1 view .LVU31
 123 0036 184B     		ldr	r3, .L20
 124 0038 7D22     		movs	r2, #125
 125 003a 1B49     		ldr	r1, .L20+16
 126 003c 1848     		ldr	r0, .L20+8
 127 003e FFF7FEFF 		bl	printf
ARM GAS  /var/folders/bg/n1lwdyp56391g865_v8nrmhm0000gn/T//ccN5ZAqC.s 			page 6


 128              	.LVL9:
 129 0042 E4E7     		b	.L4
 130              	.LVL10:
 131              	.L6:
 135:Middlewares/Third_Party/LwIP/src/netif/slipif.c ****     for (i = 0; i < q->len; i++) {
 136:Middlewares/Third_Party/LwIP/src/netif/slipif.c ****       c = ((u8_t *)q->payload)[i];
 137:Middlewares/Third_Party/LwIP/src/netif/slipif.c ****       switch (c) {
 138:Middlewares/Third_Party/LwIP/src/netif/slipif.c ****         case SLIP_END:
 139:Middlewares/Third_Party/LwIP/src/netif/slipif.c ****           /* need to escape this byte (0xC0 -> 0xDB, 0xDC) */
 140:Middlewares/Third_Party/LwIP/src/netif/slipif.c ****           sio_send(SLIP_ESC, priv->sd);
 132              		.loc 1 140 11 view .LVU32
 133 0044 3168     		ldr	r1, [r6]
 134 0046 DB20     		movs	r0, #219
 135              	.LVL11:
 136              		.loc 1 140 11 is_stmt 0 view .LVU33
 137 0048 FFF7FEFF 		bl	sio_send
 138              	.LVL12:
 141:Middlewares/Third_Party/LwIP/src/netif/slipif.c ****           sio_send(SLIP_ESC_END, priv->sd);
 139              		.loc 1 141 11 is_stmt 1 view .LVU34
 140 004c 3168     		ldr	r1, [r6]
 141 004e DC20     		movs	r0, #220
 142 0050 FFF7FEFF 		bl	sio_send
 143              	.LVL13:
 142:Middlewares/Third_Party/LwIP/src/netif/slipif.c ****           break;
 144              		.loc 1 142 11 view .LVU35
 145              	.L9:
 135:Middlewares/Third_Party/LwIP/src/netif/slipif.c ****     for (i = 0; i < q->len; i++) {
 146              		.loc 1 135 29 discriminator 2 view .LVU36
 135:Middlewares/Third_Party/LwIP/src/netif/slipif.c ****     for (i = 0; i < q->len; i++) {
 147              		.loc 1 135 30 is_stmt 0 discriminator 2 view .LVU37
 148 0054 0134     		adds	r4, r4, #1
 149              	.LVL14:
 135:Middlewares/Third_Party/LwIP/src/netif/slipif.c ****     for (i = 0; i < q->len; i++) {
 150              		.loc 1 135 30 discriminator 2 view .LVU38
 151 0056 A4B2     		uxth	r4, r4
 152              	.LVL15:
 153              	.L11:
 135:Middlewares/Third_Party/LwIP/src/netif/slipif.c ****     for (i = 0; i < q->len; i++) {
 154              		.loc 1 135 17 is_stmt 1 discriminator 1 view .LVU39
 135:Middlewares/Third_Party/LwIP/src/netif/slipif.c ****     for (i = 0; i < q->len; i++) {
 155              		.loc 1 135 22 is_stmt 0 discriminator 1 view .LVU40
 156 0058 6B89     		ldrh	r3, [r5, #10]
 135:Middlewares/Third_Party/LwIP/src/netif/slipif.c ****     for (i = 0; i < q->len; i++) {
 157              		.loc 1 135 5 discriminator 1 view .LVU41
 158 005a A342     		cmp	r3, r4
 159 005c 12D9     		bls	.L18
 136:Middlewares/Third_Party/LwIP/src/netif/slipif.c ****       switch (c) {
 160              		.loc 1 136 7 is_stmt 1 view .LVU42
 136:Middlewares/Third_Party/LwIP/src/netif/slipif.c ****       switch (c) {
 161              		.loc 1 136 21 is_stmt 0 view .LVU43
 162 005e 6B68     		ldr	r3, [r5, #4]
 136:Middlewares/Third_Party/LwIP/src/netif/slipif.c ****       switch (c) {
 163              		.loc 1 136 9 view .LVU44
 164 0060 185D     		ldrb	r0, [r3, r4]	@ zero_extendqisi2
 165              	.LVL16:
 137:Middlewares/Third_Party/LwIP/src/netif/slipif.c ****         case SLIP_END:
 166              		.loc 1 137 7 is_stmt 1 view .LVU45
ARM GAS  /var/folders/bg/n1lwdyp56391g865_v8nrmhm0000gn/T//ccN5ZAqC.s 			page 7


 167 0062 C028     		cmp	r0, #192
 168 0064 EED0     		beq	.L6
 169 0066 DB28     		cmp	r0, #219
 170 0068 03D0     		beq	.L7
 143:Middlewares/Third_Party/LwIP/src/netif/slipif.c ****         case SLIP_ESC:
 144:Middlewares/Third_Party/LwIP/src/netif/slipif.c ****           /* need to escape this byte (0xDB -> 0xDB, 0xDD) */
 145:Middlewares/Third_Party/LwIP/src/netif/slipif.c ****           sio_send(SLIP_ESC, priv->sd);
 146:Middlewares/Third_Party/LwIP/src/netif/slipif.c ****           sio_send(SLIP_ESC_ESC, priv->sd);
 147:Middlewares/Third_Party/LwIP/src/netif/slipif.c ****           break;
 148:Middlewares/Third_Party/LwIP/src/netif/slipif.c ****         default:
 149:Middlewares/Third_Party/LwIP/src/netif/slipif.c ****           /* normal byte - no need for escaping */
 150:Middlewares/Third_Party/LwIP/src/netif/slipif.c ****           sio_send(c, priv->sd);
 171              		.loc 1 150 11 view .LVU46
 172 006a 3168     		ldr	r1, [r6]
 173 006c FFF7FEFF 		bl	sio_send
 174              	.LVL17:
 151:Middlewares/Third_Party/LwIP/src/netif/slipif.c ****           break;
 175              		.loc 1 151 11 view .LVU47
 176 0070 F0E7     		b	.L9
 177              	.LVL18:
 178              	.L7:
 145:Middlewares/Third_Party/LwIP/src/netif/slipif.c ****           sio_send(SLIP_ESC_ESC, priv->sd);
 179              		.loc 1 145 11 view .LVU48
 180 0072 3168     		ldr	r1, [r6]
 181 0074 DB20     		movs	r0, #219
 182              	.LVL19:
 145:Middlewares/Third_Party/LwIP/src/netif/slipif.c ****           sio_send(SLIP_ESC_ESC, priv->sd);
 183              		.loc 1 145 11 is_stmt 0 view .LVU49
 184 0076 FFF7FEFF 		bl	sio_send
 185              	.LVL20:
 146:Middlewares/Third_Party/LwIP/src/netif/slipif.c ****           break;
 186              		.loc 1 146 11 is_stmt 1 view .LVU50
 187 007a 3168     		ldr	r1, [r6]
 188 007c DD20     		movs	r0, #221
 189 007e FFF7FEFF 		bl	sio_send
 190              	.LVL21:
 147:Middlewares/Third_Party/LwIP/src/netif/slipif.c ****         default:
 191              		.loc 1 147 11 view .LVU51
 192 0082 E7E7     		b	.L9
 193              	.L18:
 134:Middlewares/Third_Party/LwIP/src/netif/slipif.c ****     for (i = 0; i < q->len; i++) {
 194              		.loc 1 134 26 discriminator 2 view .LVU52
 134:Middlewares/Third_Party/LwIP/src/netif/slipif.c ****     for (i = 0; i < q->len; i++) {
 195              		.loc 1 134 28 is_stmt 0 discriminator 2 view .LVU53
 196 0084 2D68     		ldr	r5, [r5]
 197              	.LVL22:
 198              	.L5:
 134:Middlewares/Third_Party/LwIP/src/netif/slipif.c ****     for (i = 0; i < q->len; i++) {
 199              		.loc 1 134 15 is_stmt 1 discriminator 1 view .LVU54
 134:Middlewares/Third_Party/LwIP/src/netif/slipif.c ****     for (i = 0; i < q->len; i++) {
 200              		.loc 1 134 3 is_stmt 0 discriminator 1 view .LVU55
 201 0086 0DB1     		cbz	r5, .L19
 135:Middlewares/Third_Party/LwIP/src/netif/slipif.c ****       c = ((u8_t *)q->payload)[i];
 202              		.loc 1 135 12 view .LVU56
 203 0088 0024     		movs	r4, #0
 204 008a E5E7     		b	.L11
 205              	.L19:
ARM GAS  /var/folders/bg/n1lwdyp56391g865_v8nrmhm0000gn/T//ccN5ZAqC.s 			page 8


 152:Middlewares/Third_Party/LwIP/src/netif/slipif.c ****       }
 153:Middlewares/Third_Party/LwIP/src/netif/slipif.c ****     }
 154:Middlewares/Third_Party/LwIP/src/netif/slipif.c ****   }
 155:Middlewares/Third_Party/LwIP/src/netif/slipif.c ****   /* End with packet delimiter. */
 156:Middlewares/Third_Party/LwIP/src/netif/slipif.c ****   sio_send(SLIP_END, priv->sd);
 206              		.loc 1 156 3 is_stmt 1 view .LVU57
 207 008c 3168     		ldr	r1, [r6]
 208 008e C020     		movs	r0, #192
 209 0090 FFF7FEFF 		bl	sio_send
 210              	.LVL23:
 157:Middlewares/Third_Party/LwIP/src/netif/slipif.c ****   return ERR_OK;
 211              		.loc 1 157 3 view .LVU58
 158:Middlewares/Third_Party/LwIP/src/netif/slipif.c **** }
 212              		.loc 1 158 1 is_stmt 0 view .LVU59
 213 0094 0020     		movs	r0, #0
 214 0096 70BD     		pop	{r4, r5, r6, pc}
 215              	.LVL24:
 216              	.L21:
 217              		.loc 1 158 1 view .LVU60
 218              		.align	2
 219              	.L20:
 220 0098 00000000 		.word	.LC0
 221 009c 30000000 		.word	.LC1
 222 00a0 40000000 		.word	.LC2
 223 00a4 68000000 		.word	.LC3
 224 00a8 80000000 		.word	.LC4
 225              		.cfi_endproc
 226              	.LFE167:
 228              		.section	.text.slipif_output_v4,"ax",%progbits
 229              		.align	1
 230              		.syntax unified
 231              		.thumb
 232              		.thumb_func
 233              		.fpu fpv5-d16
 235              	slipif_output_v4:
 236              	.LVL25:
 237              	.LFB168:
 159:Middlewares/Third_Party/LwIP/src/netif/slipif.c **** 
 160:Middlewares/Third_Party/LwIP/src/netif/slipif.c **** #if LWIP_IPV4
 161:Middlewares/Third_Party/LwIP/src/netif/slipif.c **** /**
 162:Middlewares/Third_Party/LwIP/src/netif/slipif.c ****  * Send a pbuf doing the necessary SLIP encapsulation
 163:Middlewares/Third_Party/LwIP/src/netif/slipif.c ****  *
 164:Middlewares/Third_Party/LwIP/src/netif/slipif.c ****  * Uses the serial layer's sio_send()
 165:Middlewares/Third_Party/LwIP/src/netif/slipif.c ****  *
 166:Middlewares/Third_Party/LwIP/src/netif/slipif.c ****  * @param netif the lwip network interface structure for this slipif
 167:Middlewares/Third_Party/LwIP/src/netif/slipif.c ****  * @param p the pbuf chain packet to send
 168:Middlewares/Third_Party/LwIP/src/netif/slipif.c ****  * @param ipaddr the ip address to send the packet to (not used for slipif)
 169:Middlewares/Third_Party/LwIP/src/netif/slipif.c ****  * @return always returns ERR_OK since the serial layer does not provide return values
 170:Middlewares/Third_Party/LwIP/src/netif/slipif.c ****  */
 171:Middlewares/Third_Party/LwIP/src/netif/slipif.c **** static err_t
 172:Middlewares/Third_Party/LwIP/src/netif/slipif.c **** slipif_output_v4(struct netif *netif, struct pbuf *p, const ip4_addr_t *ipaddr)
 173:Middlewares/Third_Party/LwIP/src/netif/slipif.c **** {
 238              		.loc 1 173 1 is_stmt 1 view -0
 239              		.cfi_startproc
 240              		@ args = 0, pretend = 0, frame = 0
 241              		@ frame_needed = 0, uses_anonymous_args = 0
 242              		.loc 1 173 1 is_stmt 0 view .LVU62
ARM GAS  /var/folders/bg/n1lwdyp56391g865_v8nrmhm0000gn/T//ccN5ZAqC.s 			page 9


 243 0000 08B5     		push	{r3, lr}
 244              	.LCFI1:
 245              		.cfi_def_cfa_offset 8
 246              		.cfi_offset 3, -8
 247              		.cfi_offset 14, -4
 174:Middlewares/Third_Party/LwIP/src/netif/slipif.c ****   LWIP_UNUSED_ARG(ipaddr);
 248              		.loc 1 174 3 is_stmt 1 view .LVU63
 175:Middlewares/Third_Party/LwIP/src/netif/slipif.c ****   return slipif_output(netif, p);
 249              		.loc 1 175 3 view .LVU64
 250              		.loc 1 175 10 is_stmt 0 view .LVU65
 251 0002 FFF7FEFF 		bl	slipif_output
 252              	.LVL26:
 176:Middlewares/Third_Party/LwIP/src/netif/slipif.c **** }
 253              		.loc 1 176 1 view .LVU66
 254 0006 08BD     		pop	{r3, pc}
 255              		.cfi_endproc
 256              	.LFE168:
 258              		.section	.text.slipif_rxbyte,"ax",%progbits
 259              		.align	1
 260              		.syntax unified
 261              		.thumb
 262              		.thumb_func
 263              		.fpu fpv5-d16
 265              	slipif_rxbyte:
 266              	.LVL27:
 267              	.LFB169:
 177:Middlewares/Third_Party/LwIP/src/netif/slipif.c **** #endif /* LWIP_IPV4 */
 178:Middlewares/Third_Party/LwIP/src/netif/slipif.c **** 
 179:Middlewares/Third_Party/LwIP/src/netif/slipif.c **** #if LWIP_IPV6
 180:Middlewares/Third_Party/LwIP/src/netif/slipif.c **** /**
 181:Middlewares/Third_Party/LwIP/src/netif/slipif.c ****  * Send a pbuf doing the necessary SLIP encapsulation
 182:Middlewares/Third_Party/LwIP/src/netif/slipif.c ****  *
 183:Middlewares/Third_Party/LwIP/src/netif/slipif.c ****  * Uses the serial layer's sio_send()
 184:Middlewares/Third_Party/LwIP/src/netif/slipif.c ****  *
 185:Middlewares/Third_Party/LwIP/src/netif/slipif.c ****  * @param netif the lwip network interface structure for this slipif
 186:Middlewares/Third_Party/LwIP/src/netif/slipif.c ****  * @param p the pbuf chain packet to send
 187:Middlewares/Third_Party/LwIP/src/netif/slipif.c ****  * @param ipaddr the ip address to send the packet to (not used for slipif)
 188:Middlewares/Third_Party/LwIP/src/netif/slipif.c ****  * @return always returns ERR_OK since the serial layer does not provide return values
 189:Middlewares/Third_Party/LwIP/src/netif/slipif.c ****  */
 190:Middlewares/Third_Party/LwIP/src/netif/slipif.c **** static err_t
 191:Middlewares/Third_Party/LwIP/src/netif/slipif.c **** slipif_output_v6(struct netif *netif, struct pbuf *p, const ip6_addr_t *ipaddr)
 192:Middlewares/Third_Party/LwIP/src/netif/slipif.c **** {
 193:Middlewares/Third_Party/LwIP/src/netif/slipif.c ****   LWIP_UNUSED_ARG(ipaddr);
 194:Middlewares/Third_Party/LwIP/src/netif/slipif.c ****   return slipif_output(netif, p);
 195:Middlewares/Third_Party/LwIP/src/netif/slipif.c **** }
 196:Middlewares/Third_Party/LwIP/src/netif/slipif.c **** #endif /* LWIP_IPV6 */
 197:Middlewares/Third_Party/LwIP/src/netif/slipif.c **** 
 198:Middlewares/Third_Party/LwIP/src/netif/slipif.c **** /**
 199:Middlewares/Third_Party/LwIP/src/netif/slipif.c ****  * Handle the incoming SLIP stream character by character
 200:Middlewares/Third_Party/LwIP/src/netif/slipif.c ****  *
 201:Middlewares/Third_Party/LwIP/src/netif/slipif.c ****  * @param netif the lwip network interface structure for this slipif
 202:Middlewares/Third_Party/LwIP/src/netif/slipif.c ****  * @param c received character (multiple calls to this function will
 203:Middlewares/Third_Party/LwIP/src/netif/slipif.c ****  *        return a complete packet, NULL is returned before - used for polling)
 204:Middlewares/Third_Party/LwIP/src/netif/slipif.c ****  * @return The IP packet when SLIP_END is received
 205:Middlewares/Third_Party/LwIP/src/netif/slipif.c ****  */
 206:Middlewares/Third_Party/LwIP/src/netif/slipif.c **** static struct pbuf *
 207:Middlewares/Third_Party/LwIP/src/netif/slipif.c **** slipif_rxbyte(struct netif *netif, u8_t c)
ARM GAS  /var/folders/bg/n1lwdyp56391g865_v8nrmhm0000gn/T//ccN5ZAqC.s 			page 10


 208:Middlewares/Third_Party/LwIP/src/netif/slipif.c **** {
 268              		.loc 1 208 1 is_stmt 1 view -0
 269              		.cfi_startproc
 270              		@ args = 0, pretend = 0, frame = 0
 271              		@ frame_needed = 0, uses_anonymous_args = 0
 272              		.loc 1 208 1 is_stmt 0 view .LVU68
 273 0000 38B5     		push	{r3, r4, r5, lr}
 274              	.LCFI2:
 275              		.cfi_def_cfa_offset 16
 276              		.cfi_offset 3, -16
 277              		.cfi_offset 4, -12
 278              		.cfi_offset 5, -8
 279              		.cfi_offset 14, -4
 280 0002 0D46     		mov	r5, r1
 209:Middlewares/Third_Party/LwIP/src/netif/slipif.c ****   struct slipif_priv *priv;
 281              		.loc 1 209 3 is_stmt 1 view .LVU69
 210:Middlewares/Third_Party/LwIP/src/netif/slipif.c ****   struct pbuf *t;
 282              		.loc 1 210 3 view .LVU70
 211:Middlewares/Third_Party/LwIP/src/netif/slipif.c **** 
 212:Middlewares/Third_Party/LwIP/src/netif/slipif.c ****   LWIP_ASSERT("netif != NULL", (netif != NULL));
 283              		.loc 1 212 3 view .LVU71
 284              		.loc 1 212 3 view .LVU72
 285 0004 0446     		mov	r4, r0
 286 0006 0028     		cmp	r0, #0
 287 0008 2CD0     		beq	.L42
 288              	.LVL28:
 289              	.L25:
 290              		.loc 1 212 3 discriminator 3 view .LVU73
 291              		.loc 1 212 3 discriminator 3 view .LVU74
 213:Middlewares/Third_Party/LwIP/src/netif/slipif.c ****   LWIP_ASSERT("netif->state != NULL", (netif->state != NULL));
 292              		.loc 1 213 3 discriminator 3 view .LVU75
 293              		.loc 1 213 3 discriminator 3 view .LVU76
 294 000a 236A     		ldr	r3, [r4, #32]
 295 000c 002B     		cmp	r3, #0
 296 000e 30D0     		beq	.L43
 297              	.L26:
 298              		.loc 1 213 3 discriminator 3 view .LVU77
 299              		.loc 1 213 3 discriminator 3 view .LVU78
 214:Middlewares/Third_Party/LwIP/src/netif/slipif.c **** 
 215:Middlewares/Third_Party/LwIP/src/netif/slipif.c ****   priv = (struct slipif_priv *)netif->state;
 300              		.loc 1 215 3 discriminator 3 view .LVU79
 301              		.loc 1 215 8 is_stmt 0 discriminator 3 view .LVU80
 302 0010 246A     		ldr	r4, [r4, #32]
 303              	.LVL29:
 216:Middlewares/Third_Party/LwIP/src/netif/slipif.c **** 
 217:Middlewares/Third_Party/LwIP/src/netif/slipif.c ****   switch (priv->state) {
 304              		.loc 1 217 3 is_stmt 1 discriminator 3 view .LVU81
 305              		.loc 1 217 15 is_stmt 0 discriminator 3 view .LVU82
 306 0012 237B     		ldrb	r3, [r4, #12]	@ zero_extendqisi2
 307              		.loc 1 217 3 discriminator 3 view .LVU83
 308 0014 002B     		cmp	r3, #0
 309 0016 33D0     		beq	.L27
 310              		.loc 1 217 3 view .LVU84
 311 0018 012B     		cmp	r3, #1
 312 001a 47D0     		beq	.L28
 313              	.LVL30:
 314              	.L29:
ARM GAS  /var/folders/bg/n1lwdyp56391g865_v8nrmhm0000gn/T//ccN5ZAqC.s 			page 11


 218:Middlewares/Third_Party/LwIP/src/netif/slipif.c ****     case SLIP_RECV_NORMAL:
 219:Middlewares/Third_Party/LwIP/src/netif/slipif.c ****       switch (c) {
 220:Middlewares/Third_Party/LwIP/src/netif/slipif.c ****         case SLIP_END:
 221:Middlewares/Third_Party/LwIP/src/netif/slipif.c ****           if (priv->recved > 0) {
 222:Middlewares/Third_Party/LwIP/src/netif/slipif.c ****             /* Received whole packet. */
 223:Middlewares/Third_Party/LwIP/src/netif/slipif.c ****             /* Trim the pbuf to the size of the received packet. */
 224:Middlewares/Third_Party/LwIP/src/netif/slipif.c ****             pbuf_realloc(priv->q, priv->recved);
 225:Middlewares/Third_Party/LwIP/src/netif/slipif.c **** 
 226:Middlewares/Third_Party/LwIP/src/netif/slipif.c ****             LINK_STATS_INC(link.recv);
 227:Middlewares/Third_Party/LwIP/src/netif/slipif.c **** 
 228:Middlewares/Third_Party/LwIP/src/netif/slipif.c ****             LWIP_DEBUGF(SLIP_DEBUG, ("slipif: Got packet (%"U16_F" bytes)\n", priv->recved));
 229:Middlewares/Third_Party/LwIP/src/netif/slipif.c ****             t = priv->q;
 230:Middlewares/Third_Party/LwIP/src/netif/slipif.c ****             priv->p = priv->q = NULL;
 231:Middlewares/Third_Party/LwIP/src/netif/slipif.c ****             priv->i = priv->recved = 0;
 232:Middlewares/Third_Party/LwIP/src/netif/slipif.c ****             return t;
 233:Middlewares/Third_Party/LwIP/src/netif/slipif.c ****           }
 234:Middlewares/Third_Party/LwIP/src/netif/slipif.c ****           return NULL;
 235:Middlewares/Third_Party/LwIP/src/netif/slipif.c ****         case SLIP_ESC:
 236:Middlewares/Third_Party/LwIP/src/netif/slipif.c ****           priv->state = SLIP_RECV_ESCAPE;
 237:Middlewares/Third_Party/LwIP/src/netif/slipif.c ****           return NULL;
 238:Middlewares/Third_Party/LwIP/src/netif/slipif.c ****         default:
 239:Middlewares/Third_Party/LwIP/src/netif/slipif.c ****           break;
 240:Middlewares/Third_Party/LwIP/src/netif/slipif.c ****       } /* end switch (c) */
 241:Middlewares/Third_Party/LwIP/src/netif/slipif.c ****       break;
 242:Middlewares/Third_Party/LwIP/src/netif/slipif.c ****     case SLIP_RECV_ESCAPE:
 243:Middlewares/Third_Party/LwIP/src/netif/slipif.c ****       /* un-escape END or ESC bytes, leave other bytes
 244:Middlewares/Third_Party/LwIP/src/netif/slipif.c ****          (although that would be a protocol error) */
 245:Middlewares/Third_Party/LwIP/src/netif/slipif.c ****       switch (c) {
 246:Middlewares/Third_Party/LwIP/src/netif/slipif.c ****         case SLIP_ESC_END:
 247:Middlewares/Third_Party/LwIP/src/netif/slipif.c ****           c = SLIP_END;
 248:Middlewares/Third_Party/LwIP/src/netif/slipif.c ****           break;
 249:Middlewares/Third_Party/LwIP/src/netif/slipif.c ****         case SLIP_ESC_ESC:
 250:Middlewares/Third_Party/LwIP/src/netif/slipif.c ****           c = SLIP_ESC;
 251:Middlewares/Third_Party/LwIP/src/netif/slipif.c ****           break;
 252:Middlewares/Third_Party/LwIP/src/netif/slipif.c ****         default:
 253:Middlewares/Third_Party/LwIP/src/netif/slipif.c ****           break;
 254:Middlewares/Third_Party/LwIP/src/netif/slipif.c ****       }
 255:Middlewares/Third_Party/LwIP/src/netif/slipif.c ****       priv->state = SLIP_RECV_NORMAL;
 256:Middlewares/Third_Party/LwIP/src/netif/slipif.c ****       break;
 257:Middlewares/Third_Party/LwIP/src/netif/slipif.c ****     default:
 258:Middlewares/Third_Party/LwIP/src/netif/slipif.c ****       break;
 259:Middlewares/Third_Party/LwIP/src/netif/slipif.c ****   } /* end switch (priv->state) */
 260:Middlewares/Third_Party/LwIP/src/netif/slipif.c **** 
 261:Middlewares/Third_Party/LwIP/src/netif/slipif.c ****   /* byte received, packet not yet completely received */
 262:Middlewares/Third_Party/LwIP/src/netif/slipif.c ****   if (priv->p == NULL) {
 315              		.loc 1 262 3 is_stmt 1 view .LVU85
 316              		.loc 1 262 11 is_stmt 0 view .LVU86
 317 001c 6368     		ldr	r3, [r4, #4]
 318              		.loc 1 262 6 view .LVU87
 319 001e 002B     		cmp	r3, #0
 320 0020 4ED0     		beq	.L44
 321              	.L34:
 263:Middlewares/Third_Party/LwIP/src/netif/slipif.c ****     /* allocate a new pbuf */
 264:Middlewares/Third_Party/LwIP/src/netif/slipif.c ****     LWIP_DEBUGF(SLIP_DEBUG, ("slipif_input: alloc\n"));
 265:Middlewares/Third_Party/LwIP/src/netif/slipif.c ****     priv->p = pbuf_alloc(PBUF_LINK, (PBUF_POOL_BUFSIZE - PBUF_LINK_HLEN - PBUF_LINK_ENCAPSULATION_H
 266:Middlewares/Third_Party/LwIP/src/netif/slipif.c **** 
 267:Middlewares/Third_Party/LwIP/src/netif/slipif.c ****     if (priv->p == NULL) {
ARM GAS  /var/folders/bg/n1lwdyp56391g865_v8nrmhm0000gn/T//ccN5ZAqC.s 			page 12


 268:Middlewares/Third_Party/LwIP/src/netif/slipif.c ****       LINK_STATS_INC(link.drop);
 269:Middlewares/Third_Party/LwIP/src/netif/slipif.c ****       LWIP_DEBUGF(SLIP_DEBUG, ("slipif_input: no new pbuf! (DROP)\n"));
 270:Middlewares/Third_Party/LwIP/src/netif/slipif.c ****       /* don't process any further since we got no pbuf to receive to */
 271:Middlewares/Third_Party/LwIP/src/netif/slipif.c ****       return NULL;
 272:Middlewares/Third_Party/LwIP/src/netif/slipif.c ****     }
 273:Middlewares/Third_Party/LwIP/src/netif/slipif.c **** 
 274:Middlewares/Third_Party/LwIP/src/netif/slipif.c ****     if (priv->q != NULL) {
 275:Middlewares/Third_Party/LwIP/src/netif/slipif.c ****       /* 'chain' the pbuf to the existing chain */
 276:Middlewares/Third_Party/LwIP/src/netif/slipif.c ****       pbuf_cat(priv->q, priv->p);
 277:Middlewares/Third_Party/LwIP/src/netif/slipif.c ****     } else {
 278:Middlewares/Third_Party/LwIP/src/netif/slipif.c ****       /* p is the first pbuf in the chain */
 279:Middlewares/Third_Party/LwIP/src/netif/slipif.c ****       priv->q = priv->p;
 280:Middlewares/Third_Party/LwIP/src/netif/slipif.c ****     }
 281:Middlewares/Third_Party/LwIP/src/netif/slipif.c ****   }
 282:Middlewares/Third_Party/LwIP/src/netif/slipif.c **** 
 283:Middlewares/Third_Party/LwIP/src/netif/slipif.c ****   /* this automatically drops bytes if > SLIP_MAX_SIZE */
 284:Middlewares/Third_Party/LwIP/src/netif/slipif.c ****   if ((priv->p != NULL) && (priv->recved <= SLIP_MAX_SIZE)) {
 322              		.loc 1 284 3 is_stmt 1 view .LVU88
 323              		.loc 1 284 12 is_stmt 0 view .LVU89
 324 0022 6068     		ldr	r0, [r4, #4]
 325              		.loc 1 284 6 view .LVU90
 326 0024 0028     		cmp	r0, #0
 327 0026 61D0     		beq	.L24
 328              		.loc 1 284 33 discriminator 1 view .LVU91
 329 0028 228A     		ldrh	r2, [r4, #16]
 330              		.loc 1 284 25 discriminator 1 view .LVU92
 331 002a 40F2DC53 		movw	r3, #1500
 332 002e 9A42     		cmp	r2, r3
 333 0030 5BD8     		bhi	.L39
 285:Middlewares/Third_Party/LwIP/src/netif/slipif.c ****     ((u8_t *)priv->p->payload)[priv->i] = c;
 334              		.loc 1 285 5 is_stmt 1 view .LVU93
 335              		.loc 1 285 21 is_stmt 0 view .LVU94
 336 0032 4268     		ldr	r2, [r0, #4]
 337              		.loc 1 285 36 view .LVU95
 338 0034 E389     		ldrh	r3, [r4, #14]
 339              		.loc 1 285 41 view .LVU96
 340 0036 D554     		strb	r5, [r2, r3]
 286:Middlewares/Third_Party/LwIP/src/netif/slipif.c ****     priv->recved++;
 341              		.loc 1 286 5 is_stmt 1 view .LVU97
 342              		.loc 1 286 9 is_stmt 0 view .LVU98
 343 0038 238A     		ldrh	r3, [r4, #16]
 344              		.loc 1 286 17 view .LVU99
 345 003a 0133     		adds	r3, r3, #1
 346 003c 2382     		strh	r3, [r4, #16]	@ movhi
 287:Middlewares/Third_Party/LwIP/src/netif/slipif.c ****     priv->i++;
 347              		.loc 1 287 5 is_stmt 1 view .LVU100
 348              		.loc 1 287 9 is_stmt 0 view .LVU101
 349 003e E389     		ldrh	r3, [r4, #14]
 350              		.loc 1 287 12 view .LVU102
 351 0040 0133     		adds	r3, r3, #1
 352 0042 9BB2     		uxth	r3, r3
 353 0044 E381     		strh	r3, [r4, #14]	@ movhi
 288:Middlewares/Third_Party/LwIP/src/netif/slipif.c ****     if (priv->i >= priv->p->len) {
 354              		.loc 1 288 5 is_stmt 1 view .LVU103
 355              		.loc 1 288 24 is_stmt 0 view .LVU104
 356 0046 6268     		ldr	r2, [r4, #4]
 357              		.loc 1 288 27 view .LVU105
ARM GAS  /var/folders/bg/n1lwdyp56391g865_v8nrmhm0000gn/T//ccN5ZAqC.s 			page 13


 358 0048 5189     		ldrh	r1, [r2, #10]
 359              		.loc 1 288 8 view .LVU106
 360 004a 8B42     		cmp	r3, r1
 361 004c 4FD3     		bcc	.L40
 289:Middlewares/Third_Party/LwIP/src/netif/slipif.c ****       /* on to the next pbuf */
 290:Middlewares/Third_Party/LwIP/src/netif/slipif.c ****       priv->i = 0;
 362              		.loc 1 290 7 is_stmt 1 view .LVU107
 363              		.loc 1 290 15 is_stmt 0 view .LVU108
 364 004e 0023     		movs	r3, #0
 365 0050 E381     		strh	r3, [r4, #14]	@ movhi
 291:Middlewares/Third_Party/LwIP/src/netif/slipif.c ****       if (priv->p->next != NULL && priv->p->next->len > 0) {
 366              		.loc 1 291 7 is_stmt 1 view .LVU109
 367              		.loc 1 291 18 is_stmt 0 view .LVU110
 368 0052 1368     		ldr	r3, [r2]
 369              		.loc 1 291 10 view .LVU111
 370 0054 002B     		cmp	r3, #0
 371 0056 45D0     		beq	.L36
 372              		.loc 1 291 49 discriminator 1 view .LVU112
 373 0058 5A89     		ldrh	r2, [r3, #10]
 374              		.loc 1 291 33 discriminator 1 view .LVU113
 375 005a 002A     		cmp	r2, #0
 376 005c 42D0     		beq	.L36
 292:Middlewares/Third_Party/LwIP/src/netif/slipif.c ****         /* p is a chain, on to the next in the chain */
 293:Middlewares/Third_Party/LwIP/src/netif/slipif.c ****         priv->p = priv->p->next;
 377              		.loc 1 293 9 is_stmt 1 view .LVU114
 378              		.loc 1 293 17 is_stmt 0 view .LVU115
 379 005e 6360     		str	r3, [r4, #4]
 294:Middlewares/Third_Party/LwIP/src/netif/slipif.c ****       } else {
 295:Middlewares/Third_Party/LwIP/src/netif/slipif.c ****         /* p is a single pbuf, set it to NULL so next time a new
 296:Middlewares/Third_Party/LwIP/src/netif/slipif.c ****          * pbuf is allocated */
 297:Middlewares/Third_Party/LwIP/src/netif/slipif.c ****         priv->p = NULL;
 298:Middlewares/Third_Party/LwIP/src/netif/slipif.c ****       }
 299:Middlewares/Third_Party/LwIP/src/netif/slipif.c ****     }
 300:Middlewares/Third_Party/LwIP/src/netif/slipif.c ****   }
 301:Middlewares/Third_Party/LwIP/src/netif/slipif.c ****   return NULL;
 380              		.loc 1 301 10 view .LVU116
 381 0060 0020     		movs	r0, #0
 293:Middlewares/Third_Party/LwIP/src/netif/slipif.c ****       } else {
 382              		.loc 1 293 17 view .LVU117
 383 0062 43E0     		b	.L24
 384              	.LVL31:
 385              	.L42:
 212:Middlewares/Third_Party/LwIP/src/netif/slipif.c ****   LWIP_ASSERT("netif->state != NULL", (netif->state != NULL));
 386              		.loc 1 212 3 is_stmt 1 discriminator 1 view .LVU118
 212:Middlewares/Third_Party/LwIP/src/netif/slipif.c ****   LWIP_ASSERT("netif->state != NULL", (netif->state != NULL));
 387              		.loc 1 212 3 discriminator 1 view .LVU119
 388 0064 234B     		ldr	r3, .L46
 389 0066 D422     		movs	r2, #212
 390 0068 2349     		ldr	r1, .L46+4
 391              	.LVL32:
 212:Middlewares/Third_Party/LwIP/src/netif/slipif.c ****   LWIP_ASSERT("netif->state != NULL", (netif->state != NULL));
 392              		.loc 1 212 3 is_stmt 0 discriminator 1 view .LVU120
 393 006a 2448     		ldr	r0, .L46+8
 394              	.LVL33:
 212:Middlewares/Third_Party/LwIP/src/netif/slipif.c ****   LWIP_ASSERT("netif->state != NULL", (netif->state != NULL));
 395              		.loc 1 212 3 discriminator 1 view .LVU121
 396 006c FFF7FEFF 		bl	printf
ARM GAS  /var/folders/bg/n1lwdyp56391g865_v8nrmhm0000gn/T//ccN5ZAqC.s 			page 14


 397              	.LVL34:
 398 0070 CBE7     		b	.L25
 399              	.L43:
 213:Middlewares/Third_Party/LwIP/src/netif/slipif.c **** 
 400              		.loc 1 213 3 is_stmt 1 discriminator 1 view .LVU122
 213:Middlewares/Third_Party/LwIP/src/netif/slipif.c **** 
 401              		.loc 1 213 3 discriminator 1 view .LVU123
 402 0072 204B     		ldr	r3, .L46
 403 0074 D522     		movs	r2, #213
 404 0076 2249     		ldr	r1, .L46+12
 405 0078 2048     		ldr	r0, .L46+8
 406 007a FFF7FEFF 		bl	printf
 407              	.LVL35:
 408 007e C7E7     		b	.L26
 409              	.LVL36:
 410              	.L27:
 219:Middlewares/Third_Party/LwIP/src/netif/slipif.c ****         case SLIP_END:
 411              		.loc 1 219 7 view .LVU124
 412 0080 C02D     		cmp	r5, #192
 413 0082 05D0     		beq	.L30
 414 0084 DB2D     		cmp	r5, #219
 415 0086 C9D1     		bne	.L29
 236:Middlewares/Third_Party/LwIP/src/netif/slipif.c ****           return NULL;
 416              		.loc 1 236 11 view .LVU125
 236:Middlewares/Third_Party/LwIP/src/netif/slipif.c ****           return NULL;
 417              		.loc 1 236 23 is_stmt 0 view .LVU126
 418 0088 0123     		movs	r3, #1
 419 008a 2373     		strb	r3, [r4, #12]
 237:Middlewares/Third_Party/LwIP/src/netif/slipif.c ****         default:
 420              		.loc 1 237 11 is_stmt 1 view .LVU127
 237:Middlewares/Third_Party/LwIP/src/netif/slipif.c ****         default:
 421              		.loc 1 237 18 is_stmt 0 view .LVU128
 422 008c 0020     		movs	r0, #0
 423 008e 2DE0     		b	.L24
 424              	.L30:
 221:Middlewares/Third_Party/LwIP/src/netif/slipif.c ****             /* Received whole packet. */
 425              		.loc 1 221 11 is_stmt 1 view .LVU129
 221:Middlewares/Third_Party/LwIP/src/netif/slipif.c ****             /* Received whole packet. */
 426              		.loc 1 221 19 is_stmt 0 view .LVU130
 427 0090 218A     		ldrh	r1, [r4, #16]
 221:Middlewares/Third_Party/LwIP/src/netif/slipif.c ****             /* Received whole packet. */
 428              		.loc 1 221 14 view .LVU131
 429 0092 09B9     		cbnz	r1, .L45
 234:Middlewares/Third_Party/LwIP/src/netif/slipif.c ****         case SLIP_ESC:
 430              		.loc 1 234 18 view .LVU132
 431 0094 0020     		movs	r0, #0
 432 0096 29E0     		b	.L24
 433              	.L45:
 224:Middlewares/Third_Party/LwIP/src/netif/slipif.c **** 
 434              		.loc 1 224 13 is_stmt 1 view .LVU133
 435 0098 A068     		ldr	r0, [r4, #8]
 436 009a FFF7FEFF 		bl	pbuf_realloc
 437              	.LVL37:
 226:Middlewares/Third_Party/LwIP/src/netif/slipif.c **** 
 438              		.loc 1 226 38 view .LVU134
 228:Middlewares/Third_Party/LwIP/src/netif/slipif.c ****             t = priv->q;
 439              		.loc 1 228 93 view .LVU135
ARM GAS  /var/folders/bg/n1lwdyp56391g865_v8nrmhm0000gn/T//ccN5ZAqC.s 			page 15


 229:Middlewares/Third_Party/LwIP/src/netif/slipif.c ****             priv->p = priv->q = NULL;
 440              		.loc 1 229 13 view .LVU136
 229:Middlewares/Third_Party/LwIP/src/netif/slipif.c ****             priv->p = priv->q = NULL;
 441              		.loc 1 229 15 is_stmt 0 view .LVU137
 442 009e A068     		ldr	r0, [r4, #8]
 443              	.LVL38:
 230:Middlewares/Third_Party/LwIP/src/netif/slipif.c ****             priv->i = priv->recved = 0;
 444              		.loc 1 230 13 is_stmt 1 view .LVU138
 230:Middlewares/Third_Party/LwIP/src/netif/slipif.c ****             priv->i = priv->recved = 0;
 445              		.loc 1 230 31 is_stmt 0 view .LVU139
 446 00a0 0023     		movs	r3, #0
 447 00a2 A360     		str	r3, [r4, #8]
 230:Middlewares/Third_Party/LwIP/src/netif/slipif.c ****             priv->i = priv->recved = 0;
 448              		.loc 1 230 21 view .LVU140
 449 00a4 6360     		str	r3, [r4, #4]
 231:Middlewares/Third_Party/LwIP/src/netif/slipif.c ****             return t;
 450              		.loc 1 231 13 is_stmt 1 view .LVU141
 231:Middlewares/Third_Party/LwIP/src/netif/slipif.c ****             return t;
 451              		.loc 1 231 36 is_stmt 0 view .LVU142
 452 00a6 2382     		strh	r3, [r4, #16]	@ movhi
 231:Middlewares/Third_Party/LwIP/src/netif/slipif.c ****             return t;
 453              		.loc 1 231 21 view .LVU143
 454 00a8 E381     		strh	r3, [r4, #14]	@ movhi
 232:Middlewares/Third_Party/LwIP/src/netif/slipif.c ****           }
 455              		.loc 1 232 13 is_stmt 1 view .LVU144
 232:Middlewares/Third_Party/LwIP/src/netif/slipif.c ****           }
 456              		.loc 1 232 20 is_stmt 0 view .LVU145
 457 00aa 1FE0     		b	.L24
 458              	.LVL39:
 459              	.L28:
 245:Middlewares/Third_Party/LwIP/src/netif/slipif.c ****         case SLIP_ESC_END:
 460              		.loc 1 245 7 is_stmt 1 view .LVU146
 461 00ac DC2D     		cmp	r5, #220
 462 00ae 05D0     		beq	.L38
 463 00b0 DD2D     		cmp	r5, #221
 464 00b2 00D1     		bne	.L33
 250:Middlewares/Third_Party/LwIP/src/netif/slipif.c ****           break;
 465              		.loc 1 250 13 is_stmt 0 view .LVU147
 466 00b4 DB25     		movs	r5, #219
 467              	.L33:
 468              	.LVL40:
 255:Middlewares/Third_Party/LwIP/src/netif/slipif.c ****       break;
 469              		.loc 1 255 7 is_stmt 1 view .LVU148
 255:Middlewares/Third_Party/LwIP/src/netif/slipif.c ****       break;
 470              		.loc 1 255 19 is_stmt 0 view .LVU149
 471 00b6 0023     		movs	r3, #0
 472 00b8 2373     		strb	r3, [r4, #12]
 256:Middlewares/Third_Party/LwIP/src/netif/slipif.c ****     default:
 473              		.loc 1 256 7 is_stmt 1 view .LVU150
 474 00ba AFE7     		b	.L29
 475              	.LVL41:
 476              	.L38:
 247:Middlewares/Third_Party/LwIP/src/netif/slipif.c ****           break;
 477              		.loc 1 247 13 is_stmt 0 view .LVU151
 478 00bc C025     		movs	r5, #192
 479 00be FAE7     		b	.L33
 480              	.LVL42:
ARM GAS  /var/folders/bg/n1lwdyp56391g865_v8nrmhm0000gn/T//ccN5ZAqC.s 			page 16


 481              	.L44:
 264:Middlewares/Third_Party/LwIP/src/netif/slipif.c ****     priv->p = pbuf_alloc(PBUF_LINK, (PBUF_POOL_BUFSIZE - PBUF_LINK_HLEN - PBUF_LINK_ENCAPSULATION_H
 482              		.loc 1 264 55 is_stmt 1 view .LVU152
 265:Middlewares/Third_Party/LwIP/src/netif/slipif.c **** 
 483              		.loc 1 265 5 view .LVU153
 265:Middlewares/Third_Party/LwIP/src/netif/slipif.c **** 
 484              		.loc 1 265 15 is_stmt 0 view .LVU154
 485 00c0 4FF4C172 		mov	r2, #386
 486 00c4 40F24221 		movw	r1, #578
 487 00c8 0E20     		movs	r0, #14
 488 00ca FFF7FEFF 		bl	pbuf_alloc
 489              	.LVL43:
 265:Middlewares/Third_Party/LwIP/src/netif/slipif.c **** 
 490              		.loc 1 265 13 view .LVU155
 491 00ce 6060     		str	r0, [r4, #4]
 267:Middlewares/Third_Party/LwIP/src/netif/slipif.c ****       LINK_STATS_INC(link.drop);
 492              		.loc 1 267 5 is_stmt 1 view .LVU156
 267:Middlewares/Third_Party/LwIP/src/netif/slipif.c ****       LINK_STATS_INC(link.drop);
 493              		.loc 1 267 8 is_stmt 0 view .LVU157
 494 00d0 60B1     		cbz	r0, .L24
 274:Middlewares/Third_Party/LwIP/src/netif/slipif.c ****       /* 'chain' the pbuf to the existing chain */
 495              		.loc 1 274 5 is_stmt 1 view .LVU158
 274:Middlewares/Third_Party/LwIP/src/netif/slipif.c ****       /* 'chain' the pbuf to the existing chain */
 496              		.loc 1 274 13 is_stmt 0 view .LVU159
 497 00d2 A368     		ldr	r3, [r4, #8]
 274:Middlewares/Third_Party/LwIP/src/netif/slipif.c ****       /* 'chain' the pbuf to the existing chain */
 498              		.loc 1 274 8 view .LVU160
 499 00d4 23B1     		cbz	r3, .L35
 276:Middlewares/Third_Party/LwIP/src/netif/slipif.c ****     } else {
 500              		.loc 1 276 7 is_stmt 1 view .LVU161
 501 00d6 0146     		mov	r1, r0
 502 00d8 1846     		mov	r0, r3
 503 00da FFF7FEFF 		bl	pbuf_cat
 504              	.LVL44:
 505 00de A0E7     		b	.L34
 506              	.L35:
 279:Middlewares/Third_Party/LwIP/src/netif/slipif.c ****     }
 507              		.loc 1 279 7 view .LVU162
 279:Middlewares/Third_Party/LwIP/src/netif/slipif.c ****     }
 508              		.loc 1 279 15 is_stmt 0 view .LVU163
 509 00e0 A060     		str	r0, [r4, #8]
 510 00e2 9EE7     		b	.L34
 511              	.L36:
 297:Middlewares/Third_Party/LwIP/src/netif/slipif.c ****       }
 512              		.loc 1 297 9 is_stmt 1 view .LVU164
 297:Middlewares/Third_Party/LwIP/src/netif/slipif.c ****       }
 513              		.loc 1 297 17 is_stmt 0 view .LVU165
 514 00e4 0020     		movs	r0, #0
 515 00e6 6060     		str	r0, [r4, #4]
 516 00e8 00E0     		b	.L24
 517              	.L39:
 518              		.loc 1 301 10 view .LVU166
 519 00ea 0020     		movs	r0, #0
 520              	.LVL45:
 521              	.L24:
 302:Middlewares/Third_Party/LwIP/src/netif/slipif.c **** }
 522              		.loc 1 302 1 view .LVU167
ARM GAS  /var/folders/bg/n1lwdyp56391g865_v8nrmhm0000gn/T//ccN5ZAqC.s 			page 17


 523 00ec 38BD     		pop	{r3, r4, r5, pc}
 524              	.LVL46:
 525              	.L40:
 301:Middlewares/Third_Party/LwIP/src/netif/slipif.c **** }
 526              		.loc 1 301 10 view .LVU168
 527 00ee 0020     		movs	r0, #0
 528 00f0 FCE7     		b	.L24
 529              	.L47:
 530 00f2 00BF     		.align	2
 531              	.L46:
 532 00f4 00000000 		.word	.LC0
 533 00f8 30000000 		.word	.LC1
 534 00fc 40000000 		.word	.LC2
 535 0100 68000000 		.word	.LC3
 536              		.cfi_endproc
 537              	.LFE169:
 539              		.section	.text.slipif_rxbyte_input,"ax",%progbits
 540              		.align	1
 541              		.syntax unified
 542              		.thumb
 543              		.thumb_func
 544              		.fpu fpv5-d16
 546              	slipif_rxbyte_input:
 547              	.LVL47:
 548              	.LFB170:
 303:Middlewares/Third_Party/LwIP/src/netif/slipif.c **** 
 304:Middlewares/Third_Party/LwIP/src/netif/slipif.c **** /** Like slipif_rxbyte, but passes completed packets to netif->input
 305:Middlewares/Third_Party/LwIP/src/netif/slipif.c ****  *
 306:Middlewares/Third_Party/LwIP/src/netif/slipif.c ****  * @param netif The lwip network interface structure for this slipif
 307:Middlewares/Third_Party/LwIP/src/netif/slipif.c ****  * @param c received character
 308:Middlewares/Third_Party/LwIP/src/netif/slipif.c ****  */
 309:Middlewares/Third_Party/LwIP/src/netif/slipif.c **** static void
 310:Middlewares/Third_Party/LwIP/src/netif/slipif.c **** slipif_rxbyte_input(struct netif *netif, u8_t c)
 311:Middlewares/Third_Party/LwIP/src/netif/slipif.c **** {
 549              		.loc 1 311 1 is_stmt 1 view -0
 550              		.cfi_startproc
 551              		@ args = 0, pretend = 0, frame = 0
 552              		@ frame_needed = 0, uses_anonymous_args = 0
 553              		.loc 1 311 1 is_stmt 0 view .LVU170
 554 0000 38B5     		push	{r3, r4, r5, lr}
 555              	.LCFI3:
 556              		.cfi_def_cfa_offset 16
 557              		.cfi_offset 3, -16
 558              		.cfi_offset 4, -12
 559              		.cfi_offset 5, -8
 560              		.cfi_offset 14, -4
 561 0002 0446     		mov	r4, r0
 312:Middlewares/Third_Party/LwIP/src/netif/slipif.c ****   struct pbuf *p;
 562              		.loc 1 312 3 is_stmt 1 view .LVU171
 313:Middlewares/Third_Party/LwIP/src/netif/slipif.c ****   p = slipif_rxbyte(netif, c);
 563              		.loc 1 313 3 view .LVU172
 564              		.loc 1 313 7 is_stmt 0 view .LVU173
 565 0004 FFF7FEFF 		bl	slipif_rxbyte
 566              	.LVL48:
 314:Middlewares/Third_Party/LwIP/src/netif/slipif.c ****   if (p != NULL) {
 567              		.loc 1 314 3 is_stmt 1 view .LVU174
 568              		.loc 1 314 6 is_stmt 0 view .LVU175
ARM GAS  /var/folders/bg/n1lwdyp56391g865_v8nrmhm0000gn/T//ccN5ZAqC.s 			page 18


 569 0008 20B1     		cbz	r0, .L48
 570 000a 0546     		mov	r5, r0
 315:Middlewares/Third_Party/LwIP/src/netif/slipif.c ****     if (netif->input(p, netif) != ERR_OK) {
 571              		.loc 1 315 5 is_stmt 1 view .LVU176
 572              		.loc 1 315 14 is_stmt 0 view .LVU177
 573 000c 2369     		ldr	r3, [r4, #16]
 574              		.loc 1 315 9 view .LVU178
 575 000e 2146     		mov	r1, r4
 576 0010 9847     		blx	r3
 577              	.LVL49:
 578              		.loc 1 315 8 view .LVU179
 579 0012 00B9     		cbnz	r0, .L51
 580              	.LVL50:
 581              	.L48:
 316:Middlewares/Third_Party/LwIP/src/netif/slipif.c ****       pbuf_free(p);
 317:Middlewares/Third_Party/LwIP/src/netif/slipif.c ****     }
 318:Middlewares/Third_Party/LwIP/src/netif/slipif.c ****   }
 319:Middlewares/Third_Party/LwIP/src/netif/slipif.c **** }
 582              		.loc 1 319 1 view .LVU180
 583 0014 38BD     		pop	{r3, r4, r5, pc}
 584              	.LVL51:
 585              	.L51:
 316:Middlewares/Third_Party/LwIP/src/netif/slipif.c ****       pbuf_free(p);
 586              		.loc 1 316 7 is_stmt 1 view .LVU181
 587 0016 2846     		mov	r0, r5
 588 0018 FFF7FEFF 		bl	pbuf_free
 589              	.LVL52:
 590              		.loc 1 319 1 is_stmt 0 view .LVU182
 591 001c FAE7     		b	.L48
 592              		.cfi_endproc
 593              	.LFE170:
 595              		.section	.rodata.slipif_init.str1.4,"aMS",%progbits,1
 596              		.align	2
 597              	.LC5:
 598 0000 736C6970 		.ascii	"slipif needs an input callback\000"
 598      6966206E 
 598      65656473 
 598      20616E20 
 598      696E7075 
 599              		.section	.text.slipif_init,"ax",%progbits
 600              		.align	1
 601              		.global	slipif_init
 602              		.syntax unified
 603              		.thumb
 604              		.thumb_func
 605              		.fpu fpv5-d16
 607              	slipif_init:
 608              	.LVL53:
 609              	.LFB171:
 320:Middlewares/Third_Party/LwIP/src/netif/slipif.c **** 
 321:Middlewares/Third_Party/LwIP/src/netif/slipif.c **** #if SLIP_USE_RX_THREAD
 322:Middlewares/Third_Party/LwIP/src/netif/slipif.c **** /**
 323:Middlewares/Third_Party/LwIP/src/netif/slipif.c ****  * The SLIP input thread.
 324:Middlewares/Third_Party/LwIP/src/netif/slipif.c ****  *
 325:Middlewares/Third_Party/LwIP/src/netif/slipif.c ****  * Feed the IP layer with incoming packets
 326:Middlewares/Third_Party/LwIP/src/netif/slipif.c ****  *
 327:Middlewares/Third_Party/LwIP/src/netif/slipif.c ****  * @param nf the lwip network interface structure for this slipif
ARM GAS  /var/folders/bg/n1lwdyp56391g865_v8nrmhm0000gn/T//ccN5ZAqC.s 			page 19


 328:Middlewares/Third_Party/LwIP/src/netif/slipif.c ****  */
 329:Middlewares/Third_Party/LwIP/src/netif/slipif.c **** static void
 330:Middlewares/Third_Party/LwIP/src/netif/slipif.c **** slipif_loop_thread(void *nf)
 331:Middlewares/Third_Party/LwIP/src/netif/slipif.c **** {
 332:Middlewares/Third_Party/LwIP/src/netif/slipif.c ****   u8_t c;
 333:Middlewares/Third_Party/LwIP/src/netif/slipif.c ****   struct netif *netif = (struct netif *)nf;
 334:Middlewares/Third_Party/LwIP/src/netif/slipif.c ****   struct slipif_priv *priv = (struct slipif_priv *)netif->state;
 335:Middlewares/Third_Party/LwIP/src/netif/slipif.c **** 
 336:Middlewares/Third_Party/LwIP/src/netif/slipif.c ****   while (1) {
 337:Middlewares/Third_Party/LwIP/src/netif/slipif.c ****     if (sio_read(priv->sd, &c, 1) > 0) {
 338:Middlewares/Third_Party/LwIP/src/netif/slipif.c ****       slipif_rxbyte_input(netif, c);
 339:Middlewares/Third_Party/LwIP/src/netif/slipif.c ****     }
 340:Middlewares/Third_Party/LwIP/src/netif/slipif.c ****   }
 341:Middlewares/Third_Party/LwIP/src/netif/slipif.c **** }
 342:Middlewares/Third_Party/LwIP/src/netif/slipif.c **** #endif /* SLIP_USE_RX_THREAD */
 343:Middlewares/Third_Party/LwIP/src/netif/slipif.c **** 
 344:Middlewares/Third_Party/LwIP/src/netif/slipif.c **** /**
 345:Middlewares/Third_Party/LwIP/src/netif/slipif.c ****  * @ingroup slipif
 346:Middlewares/Third_Party/LwIP/src/netif/slipif.c ****  * SLIP netif initialization
 347:Middlewares/Third_Party/LwIP/src/netif/slipif.c ****  *
 348:Middlewares/Third_Party/LwIP/src/netif/slipif.c ****  * Call the arch specific sio_open and remember
 349:Middlewares/Third_Party/LwIP/src/netif/slipif.c ****  * the opened device in the state field of the netif.
 350:Middlewares/Third_Party/LwIP/src/netif/slipif.c ****  *
 351:Middlewares/Third_Party/LwIP/src/netif/slipif.c ****  * @param netif the lwip network interface structure for this slipif
 352:Middlewares/Third_Party/LwIP/src/netif/slipif.c ****  * @return ERR_OK if serial line could be opened,
 353:Middlewares/Third_Party/LwIP/src/netif/slipif.c ****  *         ERR_MEM if no memory could be allocated,
 354:Middlewares/Third_Party/LwIP/src/netif/slipif.c ****  *         ERR_IF is serial line couldn't be opened
 355:Middlewares/Third_Party/LwIP/src/netif/slipif.c ****  *
 356:Middlewares/Third_Party/LwIP/src/netif/slipif.c ****  * @note If netif->state is interpreted as an u8_t serial port number.
 357:Middlewares/Third_Party/LwIP/src/netif/slipif.c ****  *
 358:Middlewares/Third_Party/LwIP/src/netif/slipif.c ****  */
 359:Middlewares/Third_Party/LwIP/src/netif/slipif.c **** err_t
 360:Middlewares/Third_Party/LwIP/src/netif/slipif.c **** slipif_init(struct netif *netif)
 361:Middlewares/Third_Party/LwIP/src/netif/slipif.c **** {
 610              		.loc 1 361 1 is_stmt 1 view -0
 611              		.cfi_startproc
 612              		@ args = 0, pretend = 0, frame = 0
 613              		@ frame_needed = 0, uses_anonymous_args = 0
 614              		.loc 1 361 1 is_stmt 0 view .LVU184
 615 0000 70B5     		push	{r4, r5, r6, lr}
 616              	.LCFI4:
 617              		.cfi_def_cfa_offset 16
 618              		.cfi_offset 4, -16
 619              		.cfi_offset 5, -12
 620              		.cfi_offset 6, -8
 621              		.cfi_offset 14, -4
 622 0002 0446     		mov	r4, r0
 362:Middlewares/Third_Party/LwIP/src/netif/slipif.c ****   struct slipif_priv *priv;
 623              		.loc 1 362 3 is_stmt 1 view .LVU185
 363:Middlewares/Third_Party/LwIP/src/netif/slipif.c ****   u8_t sio_num;
 624              		.loc 1 363 3 view .LVU186
 364:Middlewares/Third_Party/LwIP/src/netif/slipif.c **** 
 365:Middlewares/Third_Party/LwIP/src/netif/slipif.c ****   LWIP_ASSERT("slipif needs an input callback", netif->input != NULL);
 625              		.loc 1 365 3 view .LVU187
 626              		.loc 1 365 3 view .LVU188
 627 0004 0369     		ldr	r3, [r0, #16]
 628 0006 F3B1     		cbz	r3, .L58
ARM GAS  /var/folders/bg/n1lwdyp56391g865_v8nrmhm0000gn/T//ccN5ZAqC.s 			page 20


 629              	.LVL54:
 630              	.L53:
 631              		.loc 1 365 3 discriminator 3 view .LVU189
 632              		.loc 1 365 3 discriminator 3 view .LVU190
 366:Middlewares/Third_Party/LwIP/src/netif/slipif.c **** 
 367:Middlewares/Third_Party/LwIP/src/netif/slipif.c ****   /* netif->state contains serial port number */
 368:Middlewares/Third_Party/LwIP/src/netif/slipif.c ****   sio_num = LWIP_PTR_NUMERIC_CAST(u8_t, netif->state);
 633              		.loc 1 368 3 discriminator 3 view .LVU191
 634              		.loc 1 368 11 is_stmt 0 discriminator 3 view .LVU192
 635 0008 94F82060 		ldrb	r6, [r4, #32]	@ zero_extendqisi2
 636              	.LVL55:
 369:Middlewares/Third_Party/LwIP/src/netif/slipif.c **** 
 370:Middlewares/Third_Party/LwIP/src/netif/slipif.c ****   LWIP_DEBUGF(SLIP_DEBUG, ("slipif_init: netif->num=%"U16_F"\n", (u16_t)sio_num));
 637              		.loc 1 370 82 is_stmt 1 discriminator 3 view .LVU193
 371:Middlewares/Third_Party/LwIP/src/netif/slipif.c **** 
 372:Middlewares/Third_Party/LwIP/src/netif/slipif.c ****   /* Allocate private data */
 373:Middlewares/Third_Party/LwIP/src/netif/slipif.c ****   priv = (struct slipif_priv *)mem_malloc(sizeof(struct slipif_priv));
 638              		.loc 1 373 3 discriminator 3 view .LVU194
 639              		.loc 1 373 32 is_stmt 0 discriminator 3 view .LVU195
 640 000c 1420     		movs	r0, #20
 641 000e FFF7FEFF 		bl	mem_malloc
 642              	.LVL56:
 374:Middlewares/Third_Party/LwIP/src/netif/slipif.c ****   if (!priv) {
 643              		.loc 1 374 3 is_stmt 1 discriminator 3 view .LVU196
 644              		.loc 1 374 6 is_stmt 0 discriminator 3 view .LVU197
 645 0012 0546     		mov	r5, r0
 646 0014 28B3     		cbz	r0, .L56
 375:Middlewares/Third_Party/LwIP/src/netif/slipif.c ****     return ERR_MEM;
 376:Middlewares/Third_Party/LwIP/src/netif/slipif.c ****   }
 377:Middlewares/Third_Party/LwIP/src/netif/slipif.c **** 
 378:Middlewares/Third_Party/LwIP/src/netif/slipif.c ****   netif->name[0] = 's';
 647              		.loc 1 378 3 is_stmt 1 view .LVU198
 648              		.loc 1 378 18 is_stmt 0 view .LVU199
 649 0016 7323     		movs	r3, #115
 650 0018 84F82E30 		strb	r3, [r4, #46]
 379:Middlewares/Third_Party/LwIP/src/netif/slipif.c ****   netif->name[1] = 'l';
 651              		.loc 1 379 3 is_stmt 1 view .LVU200
 652              		.loc 1 379 18 is_stmt 0 view .LVU201
 653 001c 6C23     		movs	r3, #108
 654 001e 84F82F30 		strb	r3, [r4, #47]
 380:Middlewares/Third_Party/LwIP/src/netif/slipif.c **** #if LWIP_IPV4
 381:Middlewares/Third_Party/LwIP/src/netif/slipif.c ****   netif->output = slipif_output_v4;
 655              		.loc 1 381 3 is_stmt 1 view .LVU202
 656              		.loc 1 381 17 is_stmt 0 view .LVU203
 657 0022 114B     		ldr	r3, .L60
 658 0024 6361     		str	r3, [r4, #20]
 382:Middlewares/Third_Party/LwIP/src/netif/slipif.c **** #endif /* LWIP_IPV4 */
 383:Middlewares/Third_Party/LwIP/src/netif/slipif.c **** #if LWIP_IPV6
 384:Middlewares/Third_Party/LwIP/src/netif/slipif.c ****   netif->output_ip6 = slipif_output_v6;
 385:Middlewares/Third_Party/LwIP/src/netif/slipif.c **** #endif /* LWIP_IPV6 */
 386:Middlewares/Third_Party/LwIP/src/netif/slipif.c ****   netif->mtu = SLIP_MAX_SIZE;
 659              		.loc 1 386 3 is_stmt 1 view .LVU204
 660              		.loc 1 386 14 is_stmt 0 view .LVU205
 661 0026 40F2DC53 		movw	r3, #1500
 662 002a A384     		strh	r3, [r4, #36]	@ movhi
 387:Middlewares/Third_Party/LwIP/src/netif/slipif.c **** 
 388:Middlewares/Third_Party/LwIP/src/netif/slipif.c ****   /* Try to open the serial port. */
ARM GAS  /var/folders/bg/n1lwdyp56391g865_v8nrmhm0000gn/T//ccN5ZAqC.s 			page 21


 389:Middlewares/Third_Party/LwIP/src/netif/slipif.c ****   priv->sd = sio_open(sio_num);
 663              		.loc 1 389 3 is_stmt 1 view .LVU206
 664              		.loc 1 389 14 is_stmt 0 view .LVU207
 665 002c 3046     		mov	r0, r6
 666              	.LVL57:
 667              		.loc 1 389 14 view .LVU208
 668 002e FFF7FEFF 		bl	sio_open
 669              	.LVL58:
 670              		.loc 1 389 12 view .LVU209
 671 0032 2860     		str	r0, [r5]
 390:Middlewares/Third_Party/LwIP/src/netif/slipif.c ****   if (!priv->sd) {
 672              		.loc 1 390 3 is_stmt 1 view .LVU210
 673              		.loc 1 390 6 is_stmt 0 view .LVU211
 674 0034 78B1     		cbz	r0, .L59
 391:Middlewares/Third_Party/LwIP/src/netif/slipif.c ****     /* Opening the serial port failed. */
 392:Middlewares/Third_Party/LwIP/src/netif/slipif.c ****     mem_free(priv);
 393:Middlewares/Third_Party/LwIP/src/netif/slipif.c ****     return ERR_IF;
 394:Middlewares/Third_Party/LwIP/src/netif/slipif.c ****   }
 395:Middlewares/Third_Party/LwIP/src/netif/slipif.c **** 
 396:Middlewares/Third_Party/LwIP/src/netif/slipif.c ****   /* Initialize private data */
 397:Middlewares/Third_Party/LwIP/src/netif/slipif.c ****   priv->p = NULL;
 675              		.loc 1 397 3 is_stmt 1 view .LVU212
 676              		.loc 1 397 11 is_stmt 0 view .LVU213
 677 0036 0020     		movs	r0, #0
 678 0038 6860     		str	r0, [r5, #4]
 398:Middlewares/Third_Party/LwIP/src/netif/slipif.c ****   priv->q = NULL;
 679              		.loc 1 398 3 is_stmt 1 view .LVU214
 680              		.loc 1 398 11 is_stmt 0 view .LVU215
 681 003a A860     		str	r0, [r5, #8]
 399:Middlewares/Third_Party/LwIP/src/netif/slipif.c ****   priv->state = SLIP_RECV_NORMAL;
 682              		.loc 1 399 3 is_stmt 1 view .LVU216
 683              		.loc 1 399 15 is_stmt 0 view .LVU217
 684 003c 2873     		strb	r0, [r5, #12]
 400:Middlewares/Third_Party/LwIP/src/netif/slipif.c ****   priv->i = 0;
 685              		.loc 1 400 3 is_stmt 1 view .LVU218
 686              		.loc 1 400 11 is_stmt 0 view .LVU219
 687 003e E881     		strh	r0, [r5, #14]	@ movhi
 401:Middlewares/Third_Party/LwIP/src/netif/slipif.c ****   priv->recved = 0;
 688              		.loc 1 401 3 is_stmt 1 view .LVU220
 689              		.loc 1 401 16 is_stmt 0 view .LVU221
 690 0040 2882     		strh	r0, [r5, #16]	@ movhi
 402:Middlewares/Third_Party/LwIP/src/netif/slipif.c **** #if SLIP_RX_FROM_ISR
 403:Middlewares/Third_Party/LwIP/src/netif/slipif.c ****   priv->rxpackets = NULL;
 404:Middlewares/Third_Party/LwIP/src/netif/slipif.c **** #endif
 405:Middlewares/Third_Party/LwIP/src/netif/slipif.c **** 
 406:Middlewares/Third_Party/LwIP/src/netif/slipif.c ****   netif->state = priv;
 691              		.loc 1 406 3 is_stmt 1 view .LVU222
 692              		.loc 1 406 16 is_stmt 0 view .LVU223
 693 0042 2562     		str	r5, [r4, #32]
 407:Middlewares/Third_Party/LwIP/src/netif/slipif.c **** 
 408:Middlewares/Third_Party/LwIP/src/netif/slipif.c ****   /* initialize the snmp variables and counters inside the struct netif */
 409:Middlewares/Third_Party/LwIP/src/netif/slipif.c ****   MIB2_INIT_NETIF(netif, snmp_ifType_slip, SLIP_SIO_SPEED(priv->sd));
 694              		.loc 1 409 69 is_stmt 1 view .LVU224
 410:Middlewares/Third_Party/LwIP/src/netif/slipif.c **** 
 411:Middlewares/Third_Party/LwIP/src/netif/slipif.c **** #if SLIP_USE_RX_THREAD
 412:Middlewares/Third_Party/LwIP/src/netif/slipif.c ****   /* Create a thread to poll the serial line. */
 413:Middlewares/Third_Party/LwIP/src/netif/slipif.c ****   sys_thread_new(SLIPIF_THREAD_NAME, slipif_loop_thread, netif,
ARM GAS  /var/folders/bg/n1lwdyp56391g865_v8nrmhm0000gn/T//ccN5ZAqC.s 			page 22


 414:Middlewares/Third_Party/LwIP/src/netif/slipif.c ****                  SLIPIF_THREAD_STACKSIZE, SLIPIF_THREAD_PRIO);
 415:Middlewares/Third_Party/LwIP/src/netif/slipif.c **** #endif /* SLIP_USE_RX_THREAD */
 416:Middlewares/Third_Party/LwIP/src/netif/slipif.c ****   return ERR_OK;
 695              		.loc 1 416 3 view .LVU225
 696              	.L54:
 417:Middlewares/Third_Party/LwIP/src/netif/slipif.c **** }
 697              		.loc 1 417 1 is_stmt 0 view .LVU226
 698 0044 70BD     		pop	{r4, r5, r6, pc}
 699              	.LVL59:
 700              	.L58:
 365:Middlewares/Third_Party/LwIP/src/netif/slipif.c **** 
 701              		.loc 1 365 3 is_stmt 1 discriminator 1 view .LVU227
 365:Middlewares/Third_Party/LwIP/src/netif/slipif.c **** 
 702              		.loc 1 365 3 discriminator 1 view .LVU228
 703 0046 094B     		ldr	r3, .L60+4
 704 0048 40F26D12 		movw	r2, #365
 705 004c 0849     		ldr	r1, .L60+8
 706 004e 0948     		ldr	r0, .L60+12
 707              	.LVL60:
 365:Middlewares/Third_Party/LwIP/src/netif/slipif.c **** 
 708              		.loc 1 365 3 is_stmt 0 discriminator 1 view .LVU229
 709 0050 FFF7FEFF 		bl	printf
 710              	.LVL61:
 711 0054 D8E7     		b	.L53
 712              	.LVL62:
 713              	.L59:
 392:Middlewares/Third_Party/LwIP/src/netif/slipif.c ****     return ERR_IF;
 714              		.loc 1 392 5 is_stmt 1 view .LVU230
 715 0056 2846     		mov	r0, r5
 716 0058 FFF7FEFF 		bl	mem_free
 717              	.LVL63:
 393:Middlewares/Third_Party/LwIP/src/netif/slipif.c ****   }
 718              		.loc 1 393 5 view .LVU231
 393:Middlewares/Third_Party/LwIP/src/netif/slipif.c ****   }
 719              		.loc 1 393 12 is_stmt 0 view .LVU232
 720 005c 6FF00B00 		mvn	r0, #11
 721 0060 F0E7     		b	.L54
 722              	.LVL64:
 723              	.L56:
 375:Middlewares/Third_Party/LwIP/src/netif/slipif.c ****   }
 724              		.loc 1 375 12 view .LVU233
 725 0062 4FF0FF30 		mov	r0, #-1
 726              	.LVL65:
 375:Middlewares/Third_Party/LwIP/src/netif/slipif.c ****   }
 727              		.loc 1 375 12 view .LVU234
 728 0066 EDE7     		b	.L54
 729              	.L61:
 730              		.align	2
 731              	.L60:
 732 0068 00000000 		.word	slipif_output_v4
 733 006c 00000000 		.word	.LC0
 734 0070 00000000 		.word	.LC5
 735 0074 40000000 		.word	.LC2
 736              		.cfi_endproc
 737              	.LFE171:
 739              		.section	.text.slipif_poll,"ax",%progbits
 740              		.align	1
ARM GAS  /var/folders/bg/n1lwdyp56391g865_v8nrmhm0000gn/T//ccN5ZAqC.s 			page 23


 741              		.global	slipif_poll
 742              		.syntax unified
 743              		.thumb
 744              		.thumb_func
 745              		.fpu fpv5-d16
 747              	slipif_poll:
 748              	.LVL66:
 749              	.LFB172:
 418:Middlewares/Third_Party/LwIP/src/netif/slipif.c **** 
 419:Middlewares/Third_Party/LwIP/src/netif/slipif.c **** /**
 420:Middlewares/Third_Party/LwIP/src/netif/slipif.c ****  * @ingroup slipif
 421:Middlewares/Third_Party/LwIP/src/netif/slipif.c ****  * Polls the serial device and feeds the IP layer with incoming packets.
 422:Middlewares/Third_Party/LwIP/src/netif/slipif.c ****  *
 423:Middlewares/Third_Party/LwIP/src/netif/slipif.c ****  * @param netif The lwip network interface structure for this slipif
 424:Middlewares/Third_Party/LwIP/src/netif/slipif.c ****  */
 425:Middlewares/Third_Party/LwIP/src/netif/slipif.c **** void
 426:Middlewares/Third_Party/LwIP/src/netif/slipif.c **** slipif_poll(struct netif *netif)
 427:Middlewares/Third_Party/LwIP/src/netif/slipif.c **** {
 750              		.loc 1 427 1 is_stmt 1 view -0
 751              		.cfi_startproc
 752              		@ args = 0, pretend = 0, frame = 8
 753              		@ frame_needed = 0, uses_anonymous_args = 0
 754              		.loc 1 427 1 is_stmt 0 view .LVU236
 755 0000 30B5     		push	{r4, r5, lr}
 756              	.LCFI5:
 757              		.cfi_def_cfa_offset 12
 758              		.cfi_offset 4, -12
 759              		.cfi_offset 5, -8
 760              		.cfi_offset 14, -4
 761 0002 83B0     		sub	sp, sp, #12
 762              	.LCFI6:
 763              		.cfi_def_cfa_offset 24
 428:Middlewares/Third_Party/LwIP/src/netif/slipif.c ****   u8_t c;
 764              		.loc 1 428 3 is_stmt 1 view .LVU237
 429:Middlewares/Third_Party/LwIP/src/netif/slipif.c ****   struct slipif_priv *priv;
 765              		.loc 1 429 3 view .LVU238
 430:Middlewares/Third_Party/LwIP/src/netif/slipif.c **** 
 431:Middlewares/Third_Party/LwIP/src/netif/slipif.c ****   LWIP_ASSERT("netif != NULL", (netif != NULL));
 766              		.loc 1 431 3 view .LVU239
 767              		.loc 1 431 3 view .LVU240
 768 0004 0446     		mov	r4, r0
 769 0006 18B1     		cbz	r0, .L68
 770              	.LVL67:
 771              	.L63:
 772              		.loc 1 431 3 discriminator 3 view .LVU241
 773              		.loc 1 431 3 discriminator 3 view .LVU242
 432:Middlewares/Third_Party/LwIP/src/netif/slipif.c ****   LWIP_ASSERT("netif->state != NULL", (netif->state != NULL));
 774              		.loc 1 432 3 discriminator 3 view .LVU243
 775              		.loc 1 432 3 discriminator 3 view .LVU244
 776 0008 236A     		ldr	r3, [r4, #32]
 777 000a 4BB1     		cbz	r3, .L69
 778              	.L64:
 779              		.loc 1 432 3 discriminator 3 view .LVU245
 780              		.loc 1 432 3 discriminator 3 view .LVU246
 433:Middlewares/Third_Party/LwIP/src/netif/slipif.c **** 
 434:Middlewares/Third_Party/LwIP/src/netif/slipif.c ****   priv = (struct slipif_priv *)netif->state;
 781              		.loc 1 434 3 discriminator 3 view .LVU247
ARM GAS  /var/folders/bg/n1lwdyp56391g865_v8nrmhm0000gn/T//ccN5ZAqC.s 			page 24


 782              		.loc 1 434 8 is_stmt 0 discriminator 3 view .LVU248
 783 000c 256A     		ldr	r5, [r4, #32]
 784              	.LVL68:
 435:Middlewares/Third_Party/LwIP/src/netif/slipif.c **** 
 436:Middlewares/Third_Party/LwIP/src/netif/slipif.c ****   while (sio_tryread(priv->sd, &c, 1) > 0) {
 785              		.loc 1 436 3 is_stmt 1 discriminator 3 view .LVU249
 786              		.loc 1 436 9 is_stmt 0 discriminator 3 view .LVU250
 787 000e 14E0     		b	.L65
 788              	.LVL69:
 789              	.L68:
 431:Middlewares/Third_Party/LwIP/src/netif/slipif.c ****   LWIP_ASSERT("netif->state != NULL", (netif->state != NULL));
 790              		.loc 1 431 3 is_stmt 1 discriminator 1 view .LVU251
 431:Middlewares/Third_Party/LwIP/src/netif/slipif.c ****   LWIP_ASSERT("netif->state != NULL", (netif->state != NULL));
 791              		.loc 1 431 3 discriminator 1 view .LVU252
 792 0010 0F4B     		ldr	r3, .L70
 793 0012 40F2AF12 		movw	r2, #431
 794 0016 0F49     		ldr	r1, .L70+4
 795 0018 0F48     		ldr	r0, .L70+8
 796              	.LVL70:
 431:Middlewares/Third_Party/LwIP/src/netif/slipif.c ****   LWIP_ASSERT("netif->state != NULL", (netif->state != NULL));
 797              		.loc 1 431 3 is_stmt 0 discriminator 1 view .LVU253
 798 001a FFF7FEFF 		bl	printf
 799              	.LVL71:
 800 001e F3E7     		b	.L63
 801              	.L69:
 432:Middlewares/Third_Party/LwIP/src/netif/slipif.c **** 
 802              		.loc 1 432 3 is_stmt 1 discriminator 1 view .LVU254
 432:Middlewares/Third_Party/LwIP/src/netif/slipif.c **** 
 803              		.loc 1 432 3 discriminator 1 view .LVU255
 804 0020 0B4B     		ldr	r3, .L70
 805 0022 4FF4D872 		mov	r2, #432
 806 0026 0D49     		ldr	r1, .L70+12
 807 0028 0B48     		ldr	r0, .L70+8
 808 002a FFF7FEFF 		bl	printf
 809              	.LVL72:
 810 002e EDE7     		b	.L64
 811              	.LVL73:
 812              	.L66:
 437:Middlewares/Third_Party/LwIP/src/netif/slipif.c ****     slipif_rxbyte_input(netif, c);
 813              		.loc 1 437 5 view .LVU256
 814 0030 9DF80710 		ldrb	r1, [sp, #7]	@ zero_extendqisi2
 815 0034 2046     		mov	r0, r4
 816 0036 FFF7FEFF 		bl	slipif_rxbyte_input
 817              	.LVL74:
 818              	.L65:
 436:Middlewares/Third_Party/LwIP/src/netif/slipif.c ****     slipif_rxbyte_input(netif, c);
 819              		.loc 1 436 9 view .LVU257
 436:Middlewares/Third_Party/LwIP/src/netif/slipif.c ****     slipif_rxbyte_input(netif, c);
 820              		.loc 1 436 10 is_stmt 0 view .LVU258
 821 003a 0122     		movs	r2, #1
 822 003c 0DF10701 		add	r1, sp, #7
 823 0040 2868     		ldr	r0, [r5]
 824 0042 FFF7FEFF 		bl	sio_tryread
 825              	.LVL75:
 436:Middlewares/Third_Party/LwIP/src/netif/slipif.c ****     slipif_rxbyte_input(netif, c);
 826              		.loc 1 436 9 view .LVU259
 827 0046 0028     		cmp	r0, #0
ARM GAS  /var/folders/bg/n1lwdyp56391g865_v8nrmhm0000gn/T//ccN5ZAqC.s 			page 25


 828 0048 F2D1     		bne	.L66
 438:Middlewares/Third_Party/LwIP/src/netif/slipif.c ****   }
 439:Middlewares/Third_Party/LwIP/src/netif/slipif.c **** }
 829              		.loc 1 439 1 view .LVU260
 830 004a 03B0     		add	sp, sp, #12
 831              	.LCFI7:
 832              		.cfi_def_cfa_offset 12
 833              		@ sp needed
 834 004c 30BD     		pop	{r4, r5, pc}
 835              	.LVL76:
 836              	.L71:
 837              		.loc 1 439 1 view .LVU261
 838 004e 00BF     		.align	2
 839              	.L70:
 840 0050 00000000 		.word	.LC0
 841 0054 30000000 		.word	.LC1
 842 0058 40000000 		.word	.LC2
 843 005c 68000000 		.word	.LC3
 844              		.cfi_endproc
 845              	.LFE172:
 847              		.text
 848              	.Letext0:
 849              		.file 2 "/opt/homebrew/Cellar/arm-none-eabi-gcc/10.3-2021.07/gcc/arm-none-eabi/include/machine/_de
 850              		.file 3 "/opt/homebrew/Cellar/arm-none-eabi-gcc/10.3-2021.07/gcc/arm-none-eabi/include/sys/_stdint
 851              		.file 4 "/opt/homebrew/Cellar/arm-none-eabi-gcc/10.3-2021.07/gcc/lib/gcc/arm-none-eabi/10.3.1/incl
 852              		.file 5 "Middlewares/Third_Party/LwIP/src/include/lwip/arch.h"
 853              		.file 6 "Middlewares/Third_Party/LwIP/src/include/lwip/err.h"
 854              		.file 7 "Middlewares/Third_Party/LwIP/src/include/lwip/ip4_addr.h"
 855              		.file 8 "Middlewares/Third_Party/LwIP/src/include/lwip/ip_addr.h"
 856              		.file 9 "Middlewares/Third_Party/LwIP/src/include/lwip/pbuf.h"
 857              		.file 10 "Middlewares/Third_Party/LwIP/src/include/lwip/netif.h"
 858              		.file 11 "Middlewares/Third_Party/LwIP/src/include/lwip/sio.h"
 859              		.file 12 "/opt/homebrew/Cellar/arm-none-eabi-gcc/10.3-2021.07/gcc/arm-none-eabi/include/stdio.h"
 860              		.file 13 "Middlewares/Third_Party/LwIP/src/include/lwip/mem.h"
ARM GAS  /var/folders/bg/n1lwdyp56391g865_v8nrmhm0000gn/T//ccN5ZAqC.s 			page 26

